(dp0
S'impact_no_galaxies'
p1
(lp2
sS'dv400_imp1000_det_az'
p3
(lp4
sS'dv400_imp300_det'
p5
I0
sS'dv400_imp1000_non_az'
p6
(lp7
F1.8
aF72.3
aF60.0
aF49.8
aF3.8
aF81.3
aF72.8
asS'dv400_l001_det'
p8
I0
sS'dv400_imp200_det'
p9
I0
sS'dv400_rvir025_det'
p10
I0
sS'dv400_imp300_non_az'
p11
(lp12
sS'dv400_l05_non_inc'
p13
(lp14
sS'dv400_imp400_non_lstar'
p15
(lp16
F0.0081
asS'dv400_l05_det'
p17
I0
sS'dv400_l1_non'
p18
I1
sS'dv_300'
p19
(lp20
sS'dv_50'
p21
(lp22
sS'dv400_imp750_det_az'
p23
(lp24
sS'dv400_imp750_det_inc'
p25
(lp26
sS'dv400_l005_non_lstar'
p27
(lp28
sS'dv400_l0001_non_lstar'
p29
(lp30
sS'dv400_l75_det'
p31
I1
sS'dv400_l0001_det_lstar'
p32
(lp33
sS'dv400_imp50_det_inc'
p34
(lp35
sS'dv400_l01_non'
p36
I1
sS'dv400_rvir05_det'
p37
I1
sS'dv400_imp50_det_lstar'
p38
(lp39
sS'dv400_imp1000_non_inc'
p40
(lp41
F90.0
aF66.0
aF49.0
aF59.0
aF77.0
aF0.0
aF62.0
asS'dv400_l001_non_lstar'
p42
(lp43
sS'dv400_imp50_non'
p44
I0
sS'dv400_all_det_azs'
p45
(lp46
F72.3
aF72.3
aF72.3
aF72.3
aF72.3
aF72.3
aF49.8
aF49.8
aF49.8
aF49.8
aF49.8
aF49.8
aF13.6
aF13.6
aF13.6
aF13.6
aF13.6
aF13.6
aF52.8
aF52.8
aF52.8
aF86.3
aF86.3
aF86.3
aF86.3
aF86.3
aF86.3
aF40.4
aF40.4
aF40.4
aF56.9
aF56.9
aF56.9
aF56.9
aF56.9
aF56.9
aF21.0
aF21.0
aF21.0
aF31.7
aF31.7
aF31.7
aF31.7
aF31.7
aF31.7
asS'dv400_rvir025_non'
p47
I0
sS'dv400_rvir075_det'
p48
I0
sS'dv400_all_non_group_dists'
p49
(lp50
S'-99.99'
p51
ag51
ag51
ag51
ag51
ag51
aS'-99.99'
p52
ag52
ag52
ag52
ag52
ag52
aS'-99.99'
p53
ag53
ag53
aS'-99.99'
p54
ag54
ag54
aS'-99.99'
p55
ag55
ag55
ag55
ag55
ag55
aS'-99.99'
p56
ag56
ag56
ag56
ag56
ag56
aS'9'
p57
ag57
ag57
ag57
ag57
ag57
aS'-99.99'
p58
ag58
ag58
ag58
ag58
ag58
aS'10.5'
p59
ag59
ag59
ag59
ag59
ag59
aS'-99.99'
p60
ag60
ag60
ag60
ag60
ag60
aS'-99.99'
p61
ag61
ag61
aS'-99.99'
p62
ag62
ag62
ag62
ag62
ag62
aS'-99.99'
p63
ag63
ag63
ag63
ag63
ag63
aS'-99.99'
p64
ag64
ag64
ag64
ag64
ag64
asS'dv400_imp50_non_lstar'
p65
(lp66
sS'dv400_imp25_non_lstar'
p67
(lp68
sS'dv_400'
p69
(lp70
F24.0
aF1078.0
aF1239.0
aF7831.0
aF7890.0
aF7968.0
aF1210.0
aF2264.0
aF2425.0
aF9017.0
aF9076.0
aF9154.0
asS'dv400_l0005_non_az'
p71
(lp72
sS'dv400_l05_det_lstar'
p73
(lp74
sS'dv400_l0001_non'
p75
I0
sS'dv400_l75_det_inc'
p76
(lp77
F80.0
asS'dv400_all_det_incs'
p78
(lp79
F66.0
aF66.0
aF66.0
aF66.0
aF66.0
aF66.0
aF69.0
aF69.0
aF69.0
aF69.0
aF69.0
aF69.0
aF50.0
aF50.0
aF50.0
aF50.0
aF50.0
aF50.0
aF80.0
aF80.0
aF80.0
aF48.0
aF48.0
aF48.0
aF48.0
aF48.0
aF48.0
aF81.0
aF81.0
aF81.0
aF69.0
aF69.0
aF69.0
aF69.0
aF69.0
aF69.0
aF34.0
aF34.0
aF34.0
aF47.0
aF47.0
aF47.0
aF47.0
aF47.0
aF47.0
asS'dv400_imp400_non'
p80
I1
sS'dv400_l0001_det_az'
p81
(lp82
sS'dv400_imp500_det_az'
p83
(lp84
sS'dv400_all_non_imps'
p85
(lp86
F888.007
aF888.007
aF888.007
aF888.007
aF888.007
aF888.007
aF989.558
aF989.558
aF989.558
aF989.558
aF989.558
aF989.558
aF74.348
aF74.348
aF74.348
aF121.456
aF121.456
aF121.456
aF796.416
aF796.416
aF796.416
aF796.416
aF796.416
aF796.416
aF507.235
aF507.235
aF507.235
aF507.235
aF507.235
aF507.235
aF997.734
aF997.734
aF997.734
aF997.734
aF997.734
aF997.734
aF799.003
aF799.003
aF799.003
aF799.003
aF799.003
aF799.003
aF821.137
aF821.137
aF821.137
aF821.137
aF821.137
aF821.137
aF589.271
aF589.271
aF589.271
aF589.271
aF589.271
aF589.271
aF134.901
aF134.901
aF134.901
aF667.755
aF667.755
aF667.755
aF667.755
aF667.755
aF667.755
aF579.031
aF579.031
aF579.031
aF579.031
aF579.031
aF579.031
aF324.172
aF324.172
aF324.172
aF324.172
aF324.172
aF324.172
asS'dv400_l75_non_lstar'
p87
(lp88
sS'dv400_imp500_det'
p89
I0
sS'dv400_l75_non'
p90
I0
sS'dv400_imp500_det_lstar'
p91
(lp92
sS'dv400_l0001_non_az'
p93
(lp94
sS'dv400_imp500_non_az'
p95
(lp96
sS'dv400_imp100_non_lstar'
p97
(lp98
sS'dv400_l75_non_inc'
p99
(lp100
sS'dv400_imp25_non'
p101
I0
sS'dv_rvir25'
p102
(lp103
sS'dv400_l0001_det'
p104
I0
sS'dv400_imp25_non_az'
p105
(lp106
sS'dv400_l001_det_lstar'
p107
(lp108
sS'dv400_l1_det_lstar'
p109
(lp110
sS'dv400_l005_non'
p111
I0
sS'dv400_all_non_incs'
p112
(lp113
F90.0
aF90.0
aF90.0
aF90.0
aF90.0
aF90.0
aF49.0
aF49.0
aF49.0
aF49.0
aF49.0
aF49.0
aF80.0
aF80.0
aF80.0
aF81.0
aF81.0
aF81.0
aF59.0
aF59.0
aF59.0
aF59.0
aF59.0
aF59.0
aF56.0
aF56.0
aF56.0
aF56.0
aF56.0
aF56.0
aF77.0
aF77.0
aF77.0
aF77.0
aF77.0
aF77.0
aF0.0
aF0.0
aF0.0
aF0.0
aF0.0
aF0.0
aF62.0
aF62.0
aF62.0
aF62.0
aF62.0
aF62.0
aF0.0
aF0.0
aF0.0
aF0.0
aF0.0
aF0.0
aF34.0
aF34.0
aF34.0
aF58.0
aF58.0
aF58.0
aF58.0
aF58.0
aF58.0
aF0.0
aF0.0
aF0.0
aF0.0
aF0.0
aF0.0
aF55.0
aF55.0
aF55.0
aF55.0
aF55.0
aF55.0
asS'dv400_l5_det_az'
p114
(lp115
sS'dv_rvir1'
p116
(lp117
sS'dv_rvir2'
p118
(lp119
F-8135.0
aF-7081.0
aF-6920.0
aF-328.0
aF-269.0
aF-191.0
asS'dv400_imp300_det_az'
p120
(lp121
sS'dv400_all_non_majdiams'
p122
(lp123
S'10.5'
p124
ag124
ag124
ag124
ag124
ag124
aS'1.112'
p125
ag125
ag125
ag125
ag125
ag125
aS'32.86'
p126
ag126
ag126
aS'13.63'
p127
ag127
ag127
aS'3.931'
p128
ag128
ag128
ag128
ag128
ag128
aS'2.152'
p129
ag129
ag129
ag129
ag129
ag129
aS'17.4'
p130
ag130
ag130
ag130
ag130
ag130
aS'5.259'
p131
ag131
ag131
ag131
ag131
ag131
aS'6.599'
p132
ag132
ag132
ag132
ag132
ag132
aS'0.3818'
p133
ag133
ag133
ag133
ag133
ag133
aS'7.718'
p134
ag134
ag134
aS'1.688'
p135
ag135
ag135
ag135
ag135
ag135
aS'2.954'
p136
ag136
ag136
ag136
ag136
ag136
aS'3.486'
p137
ag137
ag137
ag137
ag137
ag137
asS'dv400_all_non_bmags'
p138
(lp139
S'13.2'
p140
ag140
ag140
ag140
ag140
ag140
aS'15.7'
p141
ag141
ag141
ag141
ag141
ag141
aS'14.1'
p142
ag142
ag142
aS'18'
p143
ag143
ag143
aS'16.9'
p144
ag144
ag144
ag144
ag144
ag144
aS'17.9'
p145
ag145
ag145
ag145
ag145
ag145
aS'8.71'
p146
ag146
ag146
ag146
ag146
ag146
aS'15.9'
p147
ag147
ag147
ag147
ag147
ag147
aS'12.8'
p148
ag148
ag148
ag148
ag148
ag148
aS'20.3'
p149
ag149
ag149
ag149
ag149
ag149
aS'18.1'
p150
ag150
ag150
aS'18'
p151
ag151
ag151
ag151
ag151
ag151
aS'15'
p152
ag152
ag152
ag152
ag152
ag152
aS'14.6'
p153
ag153
ag153
ag153
ag153
ag153
asS'dv_l5'
p154
(lp155
sS'dv400_l005_det'
p156
I0
sS'dv400_imp400_det_lstar'
p157
(lp158
F0.036
asS'dv400_l1_det_az'
p159
(lp160
sS'dv400_l01_non_lstar'
p161
(lp162
F0.19
asS'dv400_rvir1_non'
p163
I0
sS'dv400_l0005_det_inc'
p164
(lp165
sS'dv400_imp100_non_az'
p166
(lp167
sS'dv400_l5_non_az'
p168
(lp169
sS'dv400_all_det_bmags'
p170
(lp171
S'17.7'
p172
ag172
ag172
ag172
ag172
ag172
aS'14.5'
p173
ag173
ag173
ag173
ag173
ag173
aS'15.1'
p174
ag174
ag174
ag174
ag174
ag174
ag142
ag142
ag142
aS'14.6'
p175
ag175
ag175
ag175
ag175
ag175
ag143
ag143
ag143
aS'16.2'
p176
ag176
ag176
ag176
ag176
ag176
ag150
ag150
ag150
aS'14.9'
p177
ag177
ag177
ag177
ag177
ag177
asS'dv400_l005_non_az'
p178
(lp179
sS'dv400_l0005_det_lstar'
p180
(lp181
sS'dv400_all_det_lstars'
p182
(lp183
F0.011
aF0.011
aF0.011
aF0.011
aF0.011
aF0.011
aF0.15
aF0.15
aF0.15
aF0.15
aF0.15
aF0.15
aF0.036
aF0.036
aF0.036
aF0.036
aF0.036
aF0.036
aF3.2
aF3.2
aF3.2
aF0.2
aF0.2
aF0.2
aF0.2
aF0.2
aF0.2
aF0.2
aF0.2
aF0.2
aF0.029
aF0.029
aF0.029
aF0.029
aF0.029
aF0.029
aF0.19
aF0.19
aF0.19
aF0.14
aF0.14
aF0.14
aF0.14
aF0.14
aF0.14
asS'dv400_imp25_non_inc'
p184
(lp185
sS'dv400_imp400_det_inc'
p186
(lp187
F50.0
asS'dv400_rvir2_det'
p188
I0
sS'impact_rvir_no_galaxies'
p189
(lp190
F1800.0
aF2854.0
aF3015.0
aF9607.0
aF9666.0
aF9744.0
aF1800.0
aF2854.0
aF3015.0
aF9607.0
aF9666.0
aF9744.0
aF1800.0
aF2854.0
aF3015.0
aF9607.0
aF9666.0
aF9744.0
aF1800.0
aF2854.0
aF3015.0
aF9607.0
aF9666.0
aF9744.0
aF1800.0
aF2854.0
aF3015.0
aF9607.0
aF9666.0
aF9744.0
aF1800.0
aF2854.0
aF3015.0
aF9607.0
aF9666.0
aF9744.0
aF1800.0
aF2854.0
aF3015.0
aF9607.0
aF9666.0
aF9744.0
aF1800.0
aF2854.0
aF3015.0
aF9607.0
aF9666.0
aF9744.0
aF1800.0
aF2854.0
aF3015.0
aF9607.0
aF9666.0
aF9744.0
aF1800.0
aF2854.0
aF3015.0
aF9607.0
aF9666.0
aF9744.0
aF1800.0
aF2854.0
aF3015.0
aF9607.0
aF9666.0
aF9744.0
aF1800.0
aF2854.0
aF3015.0
aF9607.0
aF9666.0
aF9744.0
aF1800.0
aF2854.0
aF3015.0
aF9607.0
aF9666.0
aF9744.0
aF1800.0
aF2854.0
aF3015.0
aF9607.0
aF9666.0
aF9744.0
aF1800.0
aF2854.0
aF3015.0
aF9607.0
aF9666.0
aF9744.0
aF1800.0
aF2854.0
aF3015.0
aF9607.0
aF9666.0
aF9744.0
aF1800.0
aF2854.0
aF3015.0
aF9607.0
aF9666.0
aF9744.0
asS'dv400_l5_non_inc'
p191
(lp192
sS'dv400_l01_non_inc'
p193
(lp194
F34.0
asS'dv400_rvir05_non'
p195
I0
sS'dv400_l5_det_lstar'
p196
(lp197
sS'dv400_l01_non_az'
p198
(lp199
F21.0
asS'dv400_imp200_det_inc'
p200
(lp201
sS'dv400_imp200_det_lstar'
p202
(lp203
sS'dv400_imp300_det_inc'
p204
(lp205
sS'dv_500'
p206
(lp207
sS'dv400_all_det_group_dists'
p208
(lp209
S'-99.99'
p210
ag210
ag210
ag210
ag210
ag210
aS'-99.99'
p211
ag211
ag211
ag211
ag211
ag211
aS'20.8'
p212
ag212
ag212
ag212
ag212
ag212
ag53
ag53
ag53
aS'-99.99'
p213
ag213
ag213
ag213
ag213
ag213
ag54
ag54
ag54
aS'-99.99'
p214
ag214
ag214
ag214
ag214
ag214
ag61
ag61
ag61
aS'-99.99'
p215
ag215
ag215
ag215
ag215
ag215
asS'dv400_imp25_det_az'
p216
(lp217
sS'likelihood_no_galaxies'
p218
(lp219
F1800.0
aF2854.0
aF3015.0
aF9607.0
aF9666.0
aF9744.0
aF1800.0
aF2854.0
aF3015.0
aF9607.0
aF9666.0
aF9744.0
aF1800.0
aF2854.0
aF3015.0
aF9607.0
aF9666.0
aF9744.0
aF1800.0
aF2854.0
aF3015.0
aF9607.0
aF9666.0
aF9744.0
aF1800.0
aF2854.0
aF3015.0
aF9607.0
aF9666.0
aF9744.0
aF1800.0
aF2854.0
aF3015.0
aF9607.0
aF9666.0
aF9744.0
aF1800.0
aF2854.0
aF3015.0
aF9607.0
aF9666.0
aF9744.0
aF1800.0
aF2854.0
aF3015.0
aF9607.0
aF9666.0
aF9744.0
aF1800.0
aF2854.0
aF3015.0
aF9607.0
aF9666.0
aF9744.0
aF1800.0
aF2854.0
aF3015.0
aF9607.0
aF9666.0
aF9744.0
aF1800.0
aF2854.0
aF3015.0
aF9607.0
aF9666.0
aF9744.0
aF1800.0
aF2854.0
aF3015.0
aF9607.0
aF9666.0
aF9744.0
aF1800.0
aF2854.0
aF3015.0
aF9607.0
aF9666.0
aF9744.0
aF1800.0
aF2854.0
aF3015.0
aF9607.0
aF9666.0
aF9744.0
aF1800.0
aF2854.0
aF3015.0
aF9607.0
aF9666.0
aF9744.0
aF1800.0
aF2854.0
aF3015.0
aF9607.0
aF9666.0
aF9744.0
aF1800.0
aF2854.0
aF3015.0
aF9607.0
aF9666.0
aF9744.0
asS'dv_l005'
p220
(lp221
sS'dv400_imp200_non_lstar'
p222
(lp223
F0.2
aF0.19
asS'dv400_l05_non_lstar'
p224
(lp225
sS'dv400_imp100_det_inc'
p226
(lp227
F80.0
asS'dv400_imp25_det_inc'
p228
(lp229
sS'dv400_l05_non_az'
p230
(lp231
sS'dv400_imp100_det'
p232
I1
sS'dv400_imp500_non_lstar'
p233
(lp234
sS'dv400_l01_det_lstar'
p235
(lp236
sS'dv400_imp300_non_lstar'
p237
(lp238
sS'dv400_l5_non'
p239
I0
sS'dv400_l0005_non'
p240
I0
sS'dv400_l005_non_inc'
p241
(lp242
sS'dv400_l01_det_az'
p243
(lp244
sS'dv400_imp50_det_az'
p245
(lp246
sS'dv_25'
p247
(lp248
sS'dv400_l01_det_inc'
p249
(lp250
sS'dv400_all_det_majdiams'
p251
(lp252
S'4.077'
p253
ag253
ag253
ag253
ag253
ag253
aS'8.38'
p254
ag254
ag254
ag254
ag254
ag254
aS'3.692'
p255
ag255
ag255
ag255
ag255
ag255
ag126
ag126
ag126
aS'5.016'
p256
ag256
ag256
ag256
ag256
ag256
ag127
ag127
ag127
aS'5.531'
p257
ag257
ag257
ag257
ag257
ag257
ag134
ag134
ag134
aS'9.847'
p258
ag258
ag258
ag258
ag258
ag258
asS'dv400_rvir1_det'
p259
I0
sS'dv400_imp50_non_az'
p260
(lp261
sS'dv400_l1_non_lstar'
p262
(lp263
F0.2
asS'dv400_rvir075_non'
p264
I0
sS'dv400_imp1000_non_lstar'
p265
(lp266
F0.048
aF0.011
aF0.004
aF0.0056
aF0.95
aF0.0056
aF0.2
asS'dv400_imp100_det_az'
p267
(lp268
F52.8
asS'dv400_all_non_group_mems'
p269
(lp270
S'-99'
p271
ag271
ag271
ag271
ag271
ag271
aS'-99'
p272
ag272
ag272
ag272
ag272
ag272
aS'-99'
p273
ag273
ag273
aS'-99'
p274
ag274
ag274
aS'-99'
p275
ag275
ag275
ag275
ag275
ag275
aS'-99'
p276
ag276
ag276
ag276
ag276
ag276
aS'2'
p277
ag277
ag277
ag277
ag277
ag277
aS'-99'
p278
ag278
ag278
ag278
ag278
ag278
aS'1'
p279
ag279
ag279
ag279
ag279
ag279
aS'-99'
p280
ag280
ag280
ag280
ag280
ag280
aS'-99'
p281
ag281
ag281
aS'-99'
p282
ag282
ag282
ag282
ag282
ag282
aS'-99'
p283
ag283
ag283
ag283
ag283
ag283
aS'-99'
p284
ag284
ag284
ag284
ag284
ag284
asS'dv_100'
p285
(lp286
F-7885.0
aF-6831.0
aF-6670.0
aF-78.0
aF-19.0
aF59.0
asS'dv400_imp50_det'
p287
I0
sS'dv400_l0005_non_inc'
p288
(lp289
sS'dv_rvir075'
p290
(lp291
sS'dv400_imp750_det_lstar'
p292
(lp293
sS'dv400_l0001_non_inc'
p294
(lp295
sS'dv400_all_det_group_mems'
p296
(lp297
S'-99'
p298
ag298
ag298
ag298
ag298
ag298
aS'-99'
p299
ag299
ag299
ag299
ag299
ag299
ag279
ag279
ag279
ag279
ag279
ag279
ag273
ag273
ag273
aS'-99'
p300
ag300
ag300
ag300
ag300
ag300
ag274
ag274
ag274
aS'-99'
p301
ag301
ag301
ag301
ag301
ag301
ag281
ag281
ag281
aS'-99'
p302
ag302
ag302
ag302
ag302
ag302
asS'dv400_imp500_non_inc'
p303
(lp304
sS'dv400_rvir25_non'
p305
I0
sS'dv400_imp500_det_inc'
p306
(lp307
sS'dv400_l5_det'
p308
I0
sS'dv400_l0005_non_lstar'
p309
(lp310
sS'dv400_l0001_det_inc'
p311
(lp312
sS'dv400_l01_det'
p313
I0
sS'dv400_imp400_non_az'
p314
(lp315
F48.2
asS'dv400_all_non_azs'
p316
(lp317
F1.8
aF1.8
aF1.8
aF1.8
aF1.8
aF1.8
aF60.0
aF60.0
aF60.0
aF60.0
aF60.0
aF60.0
aF52.8
aF52.8
aF52.8
aF40.4
aF40.4
aF40.4
aF49.8
aF49.8
aF49.8
aF49.8
aF49.8
aF49.8
aF77.5
aF77.5
aF77.5
aF77.5
aF77.5
aF77.5
aF3.8
aF3.8
aF3.8
aF3.8
aF3.8
aF3.8
aF81.3
aF81.3
aF81.3
aF81.3
aF81.3
aF81.3
aF72.8
aF72.8
aF72.8
aF72.8
aF72.8
aF72.8
aF25.9
aF25.9
aF25.9
aF25.9
aF25.9
aF25.9
aF21.0
aF21.0
aF21.0
aF27.7
aF27.7
aF27.7
aF27.7
aF27.7
aF27.7
aF75.3
aF75.3
aF75.3
aF75.3
aF75.3
aF75.3
aF48.2
aF48.2
aF48.2
aF48.2
aF48.2
aF48.2
asS'dv400_imp100_non'
p318
I0
sS'dv400_l005_det_az'
p319
(lp320
sS'dv400_imp50_non_inc'
p321
(lp322
sS'dv400_rvir15_det'
p323
I0
sS'dv400_imp300_det_lstar'
p324
(lp325
sS'dv400_all_non_likelihoods'
p326
(lp327
F6.408788526329194e-45
aF6.408788526329194e-45
aF6.408788526329194e-45
aF6.408788526329194e-45
aF6.408788526329194e-45
aF6.408788526329194e-45
aF0.0
aF0.0
aF0.0
aF0.0
aF0.0
aF0.0
aF0.8626443040768198
aF0.8626443040768198
aF0.8626443040768198
aF0.2649734694949291
aF0.2649734694949291
aF0.2649734694949291
aF1.1880137220188278e-138
aF1.1880137220188278e-138
aF1.1880137220188278e-138
aF1.1880137220188278e-138
aF1.1880137220188278e-138
aF1.1880137220188278e-138
aF3.2717056684505357e-129
aF3.2717056684505357e-129
aF3.2717056684505357e-129
aF3.2717056684505357e-129
aF3.2717056684505357e-129
aF3.2717056684505357e-129
aF1.625766264353278e-28
aF1.625766264353278e-28
aF1.625766264353278e-28
aF1.625766264353278e-28
aF1.625766264353278e-28
aF1.625766264353278e-28
aF1.2570565207165728e-93
aF1.2570565207165728e-93
aF1.2570565207165728e-93
aF1.2570565207165728e-93
aF1.2570565207165728e-93
aF1.2570565207165728e-93
aF1.8277431212065078e-72
aF1.8277431212065078e-72
aF1.8277431212065078e-72
aF1.8277431212065078e-72
aF1.8277431212065078e-72
aF1.8277431212065078e-72
aF0.0
aF0.0
aF0.0
aF0.0
aF0.0
aF0.0
aF0.027548191255582683
aF0.027548191255582683
aF0.027548191255582683
aF4.640909170215e-312
aF4.640909170215e-312
aF4.640909170215e-312
aF4.640909170215e-312
aF4.640909170215e-312
aF4.640909170215e-312
aF6.816546121896969e-109
aF6.816546121896969e-109
aF6.816546121896969e-109
aF6.816546121896969e-109
aF6.816546121896969e-109
aF6.816546121896969e-109
aF1.0507373537564096e-27
aF1.0507373537564096e-27
aF1.0507373537564096e-27
aF1.0507373537564096e-27
aF1.0507373537564096e-27
aF1.0507373537564096e-27
asS'dv400_all_non_rvirs'
p328
(lp329
F88.03
aF88.03
aF88.03
aF88.03
aF88.03
aF88.03
aF18.7
aF18.7
aF18.7
aF18.7
aF18.7
aF18.7
aF193.42
aF193.42
aF193.42
aF105.39
aF105.39
aF105.39
aF44.69
aF44.69
aF44.69
aF44.69
aF44.69
aF44.69
aF29.49
aF29.49
aF29.49
aF29.49
aF29.49
aF29.49
aF124.73
aF124.73
aF124.73
aF124.73
aF124.73
aF124.73
aF54.63
aF54.63
aF54.63
aF54.63
aF54.63
aF54.63
aF63.89
aF63.89
aF63.89
aF63.89
aF63.89
aF63.89
aF8.94
aF8.94
aF8.94
aF8.94
aF8.94
aF8.94
aF71.18
aF71.18
aF71.18
aF24.94
aF24.94
aF24.94
aF24.94
aF24.94
aF24.94
aF36.69
aF36.69
aF36.69
aF36.69
aF36.69
aF36.69
aF41.13
aF41.13
aF41.13
aF41.13
aF41.13
aF41.13
asS'dv400_l1_det'
p330
I0
sS'dv400_imp1000_det_inc'
p331
(lp332
sS'dv400_l75_det_lstar'
p333
(lp334
F3.2
asS'dv400_all_det_mtypes'
p335
(lp336
S'x'
p337
ag337
ag337
ag337
ag337
ag337
aS'S?'
p338
ag338
ag338
ag338
ag338
ag338
aS'S0-a'
p339
ag339
ag339
ag339
ag339
ag339
aS'Sc'
p340
ag340
ag340
aS'S0/a'
p341
ag341
ag341
ag341
ag341
ag341
ag337
ag337
ag337
ag337
ag337
ag337
ag337
ag337
ag337
aS'Extended_Src_[SDSS]'
p342
ag342
ag342
aS'IA?(s)m_V:'
p343
ag343
ag343
ag343
ag343
ag343
asS'dv_l75'
p344
(lp345
F-7885.0
aF-6831.0
aF-6670.0
aF-78.0
aF-19.0
aF59.0
asS'dv400_l75_non_az'
p346
(lp347
sS'dv400_all_det_rvirs'
p348
(lp349
F45.83
aF45.83
aF45.83
aF45.83
aF45.83
aF45.83
aF75.34
aF75.34
aF75.34
aF75.34
aF75.34
aF75.34
aF42.8
aF42.8
aF42.8
aF42.8
aF42.8
aF42.8
aF193.42
aF193.42
aF193.42
aF52.87
aF52.87
aF52.87
aF52.87
aF52.87
aF52.87
aF105.39
aF105.39
aF105.39
aF56.56
aF56.56
aF56.56
aF56.56
aF56.56
aF56.56
aF71.18
aF71.18
aF71.18
aF84.21
aF84.21
aF84.21
aF84.21
aF84.21
aF84.21
asS'dv400_imp100_non_inc'
p350
(lp351
sS'dv_750'
p352
(lp353
F319.0
aF1373.0
aF1534.0
aF8126.0
aF8185.0
aF8263.0
aF-13.0
aF1041.0
aF1202.0
aF7794.0
aF7853.0
aF7931.0
aF390.0
aF1444.0
aF1605.0
aF8197.0
aF8256.0
aF8334.0
aF848.0
aF1902.0
aF2063.0
aF8655.0
aF8714.0
aF8792.0
aF880.0
aF1934.0
aF2095.0
aF8687.0
aF8746.0
aF8824.0
aF1288.0
aF2342.0
aF2503.0
aF9095.0
aF9154.0
aF9232.0
aF12.0
aF1066.0
aF1227.0
aF7819.0
aF7878.0
aF7956.0
aF1275.0
aF2329.0
aF2490.0
aF9082.0
aF9141.0
aF9219.0
asS'dv400_l001_non'
p354
I0
sS'dv400_l5_det_inc'
p355
(lp356
sS'dv400_imp750_det'
p357
I0
sS'dv400_imp400_det'
p358
I1
sS'dv400_imp25_det'
p359
I0
sS'dv_l1'
p360
(lp361
F-8013.0
aF-6959.0
aF-6798.0
aF-206.0
aF-147.0
aF-69.0
asS'dv400_imp400_non_inc'
p362
(lp363
F55.0
asS'dv400_imp750_non_az'
p364
(lp365
F49.8
aF86.3
aF56.9
aF77.5
aF25.9
aF27.7
aF31.7
aF75.3
asS'dv400_imp200_non'
p366
I2
sS'dv400_imp750_non_inc'
p367
(lp368
F69.0
aF48.0
aF69.0
aF56.0
aF0.0
aF58.0
aF47.0
aF0.0
asS'dv400_l001_non_az'
p369
(lp370
sS'dv400_l5_non_lstar'
p371
(lp372
sS'dv400_l001_det_az'
p373
(lp374
sS'dv400_imp500_non'
p375
I0
sS'dv400_rvir15_non'
p376
I1
sS'dv400_imp750_non'
p377
I8
sS'dv_1000'
p378
(lp379
F673.0
aF1727.0
aF1888.0
aF8480.0
aF8539.0
aF8617.0
aF66.0
aF1120.0
aF1281.0
aF7873.0
aF7932.0
aF8010.0
aF1154.0
aF2208.0
aF2369.0
aF8961.0
aF9020.0
aF9098.0
aF1066.0
aF2120.0
aF2281.0
aF8873.0
aF8932.0
aF9010.0
aF1194.0
aF2248.0
aF2409.0
aF9001.0
aF9060.0
aF9138.0
aF1026.0
aF2080.0
aF2241.0
aF8833.0
aF8892.0
aF8970.0
aF1040.0
aF2094.0
aF2255.0
aF8847.0
aF8906.0
aF8984.0
asS'dv_l0005'
p380
(lp381
sS'dv_l0001'
p382
(lp383
sS'dv400_rvir25_det'
p384
I0
sS'dv400_imp200_det_az'
p385
(lp386
sS'dv400_l1_non_az'
p387
(lp388
F40.4
asS'dv400_imp1000_det_lstar'
p389
(lp390
sS'dv400_l05_non'
p391
I0
sS'dv400_all_det_group_nums'
p392
(lp393
S'-99'
p394
ag394
ag394
ag394
ag394
ag394
aS'-99'
p395
ag395
ag395
ag395
ag395
ag395
aS'112994'
p396
ag396
ag396
ag396
ag396
ag396
aS'-99'
p397
ag397
ag397
aS'-99'
p398
ag398
ag398
ag398
ag398
ag398
aS'-99'
p399
ag399
ag399
aS'-99'
p400
ag400
ag400
ag400
ag400
ag400
aS'-99'
p401
ag401
ag401
aS'-99'
p402
ag402
ag402
ag402
ag402
ag402
asS'dv400_imp750_non_lstar'
p403
(lp404
F0.15
aF0.2
aF0.029
aF0.0034
aF0.00032
aF0.0013
aF0.14
aF0.004
asS'dv400_l1_non_inc'
p405
(lp406
F81.0
asS'dv400_l05_det_inc'
p407
(lp408
sS'dv400_imp200_non_az'
p409
(lp410
F40.4
aF21.0
asS'dv400_l005_det_inc'
p411
(lp412
sS'dv_rvir025'
p413
(lp414
sS'dv400_all_det_imps'
p415
(lp416
F997.353
aF997.353
aF997.353
aF997.353
aF997.353
aF997.353
aF748.936
aF748.936
aF748.936
aF748.936
aF748.936
aF748.936
aF355.049
aF355.049
aF355.049
aF355.049
aF355.049
aF355.049
aF74.348
aF74.348
aF74.348
aF628.617
aF628.617
aF628.617
aF628.617
aF628.617
aF628.617
aF121.456
aF121.456
aF121.456
aF717.434
aF717.434
aF717.434
aF717.434
aF717.434
aF717.434
aF134.901
aF134.901
aF134.901
aF615.321
aF615.321
aF615.321
aF615.321
aF615.321
aF615.321
asS'dv_200'
p417
(lp418
F-8013.0
aF-6959.0
aF-6798.0
aF-206.0
aF-147.0
aF-69.0
aF-8135.0
aF-7081.0
aF-6920.0
aF-328.0
aF-269.0
aF-191.0
asS'dv_l01'
p419
(lp420
F-8135.0
aF-7081.0
aF-6920.0
aF-328.0
aF-269.0
aF-191.0
asS'dv400_rvir2_non'
p421
I1
sS'dv_l05'
p422
(lp423
sS'dv400_all_det_likelihoods'
p424
(lp425
F2.111444536039802e-206
aF2.111444536039802e-206
aF2.111444536039802e-206
aF2.111444536039802e-206
aF2.111444536039802e-206
aF2.111444536039802e-206
aF1.212490058632885e-43
aF1.212490058632885e-43
aF1.212490058632885e-43
aF1.212490058632885e-43
aF1.212490058632885e-43
aF1.212490058632885e-43
aF1.299022831991444e-30
aF1.299022831991444e-30
aF1.299022831991444e-30
aF1.299022831991444e-30
aF1.299022831991444e-30
aF1.299022831991444e-30
aF0.8626443040768198
aF0.8626443040768198
aF0.8626443040768198
aF4.020712632592262e-62
aF4.020712632592262e-62
aF4.020712632592262e-62
aF4.020712632592262e-62
aF4.020712632592262e-62
aF4.020712632592262e-62
aF0.2649734694949291
aF0.2649734694949291
aF0.2649734694949291
aF1.329773094421263e-70
aF1.329773094421263e-70
aF1.329773094421263e-70
aF1.329773094421263e-70
aF1.329773094421263e-70
aF1.329773094421263e-70
aF0.027548191255582683
aF0.027548191255582683
aF0.027548191255582683
aF6.488610043227186e-24
aF6.488610043227186e-24
aF6.488610043227186e-24
aF6.488610043227186e-24
aF6.488610043227186e-24
aF6.488610043227186e-24
asS'dv400_l001_det_inc'
p426
(lp427
sS'dv400_imp25_det_lstar'
p428
(lp429
sS'dv400_l75_det_az'
p430
(lp431
F52.8
asS'dv400_l0005_det'
p432
I0
sS'dv_rvir05'
p433
(lp434
F-7885.0
aF-6831.0
aF-6670.0
aF-78.0
aF-19.0
aF59.0
asS'dv400_imp200_non_inc'
p435
(lp436
F81.0
aF34.0
asS'dv400_all_non_group_nums'
p437
(lp438
S'-99'
p439
ag439
ag439
ag439
ag439
ag439
aS'-99'
p440
ag440
ag440
ag440
ag440
ag440
ag397
ag397
ag397
ag399
ag399
ag399
aS'-99'
p441
ag441
ag441
ag441
ag441
ag441
aS'-99'
p442
ag442
ag442
ag442
ag442
ag442
aS'102705'
p443
ag443
ag443
ag443
ag443
ag443
aS'-99'
p444
ag444
ag444
ag444
ag444
ag444
aS'113054'
p445
ag445
ag445
ag445
ag445
ag445
aS'-99'
p446
ag446
ag446
ag446
ag446
ag446
ag401
ag401
ag401
aS'-99'
p447
ag447
ag447
ag447
ag447
ag447
aS'-99'
p448
ag448
ag448
ag448
ag448
ag448
aS'-99'
p449
ag449
ag449
ag449
ag449
ag449
asS'dv400_l1_det_inc'
p450
(lp451
sS'dv400_imp1000_det'
p452
I0
sS'dv400_imp400_det_az'
p453
(lp454
F13.6
asS'dv400_l001_non_inc'
p455
(lp456
sS'dv400_l0005_det_az'
p457
(lp458
sS'dv400_imp1000_non'
p459
I7
sS'dv400_l005_det_lstar'
p460
(lp461
sS'dv400_imp300_non_inc'
p462
(lp463
sS'dv400_imp300_non'
p464
I0
sS'dv400_imp100_det_lstar'
p465
(lp466
F3.2
asS'dv400_all_non_mtypes'
p467
(lp468
S'Sdm'
p469
ag469
ag469
ag469
ag469
ag469
aS'BCD;Sbrst_HII'
p470
ag470
ag470
ag470
ag470
ag470
ag340
ag340
ag340
ag337
ag337
ag337
aS'Im/dSO'
p471
ag471
ag471
ag471
ag471
ag471
ag337
ag337
ag337
ag337
ag337
ag337
aS'SB(s)d_HII'
p472
ag472
ag472
ag472
ag472
ag472
aS'SB(s)m_IV'
p473
ag473
ag473
ag473
ag473
ag473
aS'SBd?_sp'
p474
ag474
ag474
ag474
ag474
ag474
aS'Candidate_QSO'
p475
ag475
ag475
ag475
ag475
ag475
ag342
ag342
ag342
ag337
ag337
ag337
ag337
ag337
ag337
aS'ImV'
p476
ag476
ag476
ag476
ag476
ag476
aS'Sd'
p477
ag477
ag477
ag477
ag477
ag477
asS'dv_l001'
p478
(lp479
sS'dv400_l05_det_az'
p480
(lp481
sS'dv400_all_non_lstars'
p482
(lp483
F0.048
aF0.048
aF0.048
aF0.048
aF0.048
aF0.048
aF0.004
aF0.004
aF0.004
aF0.004
aF0.004
aF0.004
aF3.2
aF3.2
aF3.2
aF0.2
aF0.2
aF0.2
aF0.0056
aF0.0056
aF0.0056
aF0.0056
aF0.0056
aF0.0056
aF0.0034
aF0.0034
aF0.0034
aF0.0034
aF0.0034
aF0.0034
aF0.95
aF0.95
aF0.95
aF0.95
aF0.95
aF0.95
aF0.0056
aF0.0056
aF0.0056
aF0.0056
aF0.0056
aF0.0056
aF0.2
aF0.2
aF0.2
aF0.2
aF0.2
aF0.2
aF0.00032
aF0.00032
aF0.00032
aF0.00032
aF0.00032
aF0.00032
aF0.19
aF0.19
aF0.19
aF0.0013
aF0.0013
aF0.0013
aF0.0013
aF0.0013
aF0.0013
aF0.004
aF0.004
aF0.004
aF0.004
aF0.004
aF0.004
aF0.0081
aF0.0081
aF0.0081
aF0.0081
aF0.0081
aF0.0081
asS'dv_rvir15'
p484
(lp485
F-8013.0
aF-6959.0
aF-6798.0
aF-206.0
aF-147.0
aF-69.0
as.