(dp0
S'impact_no_galaxies'
p1
(lp2
sS'dv400_imp1000_det_az'
p3
(lp4
sS'dv400_imp300_det'
p5
I0
sS'dv400_imp1000_non_az'
p6
(lp7
F1.8
aF72.3
aF12.3
aF60.0
aF45.9
aF6.6
aF4.7
aF12.6
aF49.8
aF3.8
aF81.3
aF72.8
aF2.3
asS'dv400_l001_det'
p8
I0
sS'dv400_imp200_det'
p9
I0
sS'dv400_rvir025_det'
p10
I0
sS'dv400_imp300_non_az'
p11
(lp12
sS'dv400_l05_non_inc'
p13
(lp14
sS'dv400_imp400_non_lstar'
p15
(lp16
F0.0081
asS'dv400_l05_det'
p17
I0
sS'dv400_l1_non'
p18
I1
sS'dv_300'
p19
(lp20
sS'dv_50'
p21
(lp22
F699.0
aF1753.0
aF1914.0
aF8506.0
aF8565.0
aF8643.0
asS'dv400_imp750_det_az'
p23
(lp24
sS'dv400_imp750_det_inc'
p25
(lp26
sS'dv400_l005_non_lstar'
p27
(lp28
sS'dv400_l0001_non_lstar'
p29
(lp30
sS'dv400_l75_det'
p31
I1
sS'dv400_l0001_det_lstar'
p32
(lp33
sS'dv400_imp50_det_inc'
p34
(lp35
sS'dv400_l01_non'
p36
I1
sS'dv400_rvir05_det'
p37
I1
sS'dv400_imp50_det_lstar'
p38
(lp39
sS'dv400_imp1000_non_inc'
p40
(lp41
F90.0
aF66.0
aF-99.0
aF49.0
aF-99.0
aF-99.0
aF-99.0
aF-99.0
aF59.0
aF77.0
aF0.0
aF62.0
aF-99.0
asS'dv400_l001_non_lstar'
p42
(lp43
sS'dv400_imp50_non'
p44
I1
sS'dv400_all_det_azs'
p45
(lp46
F72.3
aF72.3
aF72.3
aF72.3
aF72.3
aF72.3
aF49.8
aF49.8
aF49.8
aF49.8
aF49.8
aF49.8
aF13.6
aF13.6
aF13.6
aF13.6
aF13.6
aF13.6
aF52.8
aF52.8
aF52.8
aF86.3
aF86.3
aF86.3
aF86.3
aF86.3
aF86.3
aF40.4
aF40.4
aF40.4
aF56.9
aF56.9
aF56.9
aF56.9
aF56.9
aF56.9
aF21.0
aF21.0
aF21.0
aF31.7
aF31.7
aF31.7
aF31.7
aF31.7
aF31.7
asS'dv400_rvir025_non'
p47
I0
sS'dv400_rvir075_det'
p48
I0
sS'dv400_all_non_group_dists'
p49
(lp50
S'-99.99'
p51
ag51
ag51
ag51
ag51
ag51
aS'-99.99'
p52
ag52
ag52
ag52
ag52
ag52
aS'-99.99'
p53
ag53
ag53
ag53
ag53
ag53
aS'-99.99'
p54
ag54
ag54
ag54
ag54
ag54
aS'-99.99'
p55
ag55
ag55
ag55
ag55
ag55
aS'-99.99'
p56
ag56
ag56
ag56
ag56
ag56
aS'-99.99'
p57
ag57
ag57
aS'-99.99'
p58
ag58
ag58
aS'-99.99'
p59
ag59
ag59
ag59
ag59
ag59
aS'-99.99'
p60
ag60
ag60
ag60
ag60
ag60
aS'-99.99'
p61
ag61
ag61
ag61
ag61
ag61
aS'-99.99'
p62
ag62
ag62
ag62
ag62
ag62
aS'-99.99'
p63
ag63
ag63
ag63
ag63
ag63
aS'-99.99'
p64
ag64
ag64
ag64
ag64
ag64
aS'9'
p65
ag65
ag65
ag65
ag65
ag65
aS'-99.99'
p66
ag66
ag66
ag66
ag66
ag66
aS'10.5'
p67
ag67
ag67
ag67
ag67
ag67
aS'-99.99'
p68
ag68
ag68
ag68
ag68
ag68
aS'-99.99'
p69
ag69
ag69
aS'-99.99'
p70
ag70
ag70
ag70
ag70
ag70
aS'-99.99'
p71
ag71
ag71
ag71
ag71
ag71
aS'-99.99'
p72
ag72
ag72
ag72
ag72
ag72
aS'-99.99'
p73
ag73
ag73
ag73
ag73
ag73
asS'dv400_imp50_non_lstar'
p74
(lp75
sS'dv400_imp25_non_lstar'
p76
(lp77
sS'dv_400'
p78
(lp79
F24.0
aF1078.0
aF1239.0
aF7831.0
aF7890.0
aF7968.0
aF1210.0
aF2264.0
aF2425.0
aF9017.0
aF9076.0
aF9154.0
asS'dv400_l0005_non_az'
p80
(lp81
sS'dv400_l05_det_lstar'
p82
(lp83
sS'dv400_l0001_non'
p84
I0
sS'dv400_l75_det_inc'
p85
(lp86
F80.0
asS'dv400_all_det_incs'
p87
(lp88
F66.0
aF66.0
aF66.0
aF66.0
aF66.0
aF66.0
aF69.0
aF69.0
aF69.0
aF69.0
aF69.0
aF69.0
aF50.0
aF50.0
aF50.0
aF50.0
aF50.0
aF50.0
aF80.0
aF80.0
aF80.0
aF48.0
aF48.0
aF48.0
aF48.0
aF48.0
aF48.0
aF81.0
aF81.0
aF81.0
aF69.0
aF69.0
aF69.0
aF69.0
aF69.0
aF69.0
aF34.0
aF34.0
aF34.0
aF47.0
aF47.0
aF47.0
aF47.0
aF47.0
aF47.0
asS'dv400_imp400_non'
p89
I1
sS'dv400_l0001_det_az'
p90
(lp91
sS'dv400_imp500_det_az'
p92
(lp93
sS'dv400_all_non_imps'
p94
(lp95
F888.007
aF888.007
aF888.007
aF888.007
aF888.007
aF888.007
aF46.536
aF46.536
aF46.536
aF46.536
aF46.536
aF46.536
aF703.489
aF703.489
aF703.489
aF703.489
aF703.489
aF703.489
aF803.149
aF803.149
aF803.149
aF803.149
aF803.149
aF803.149
aF989.558
aF989.558
aF989.558
aF989.558
aF989.558
aF989.558
aF823.964
aF823.964
aF823.964
aF823.964
aF823.964
aF823.964
aF74.348
aF74.348
aF74.348
aF121.456
aF121.456
aF121.456
aF932.656
aF932.656
aF932.656
aF932.656
aF932.656
aF932.656
aF741.751
aF741.751
aF741.751
aF741.751
aF741.751
aF741.751
aF947.014
aF947.014
aF947.014
aF947.014
aF947.014
aF947.014
aF798.984
aF798.984
aF798.984
aF798.984
aF798.984
aF798.984
aF796.416
aF796.416
aF796.416
aF796.416
aF796.416
aF796.416
aF507.235
aF507.235
aF507.235
aF507.235
aF507.235
aF507.235
aF997.734
aF997.734
aF997.734
aF997.734
aF997.734
aF997.734
aF799.003
aF799.003
aF799.003
aF799.003
aF799.003
aF799.003
aF821.137
aF821.137
aF821.137
aF821.137
aF821.137
aF821.137
aF589.271
aF589.271
aF589.271
aF589.271
aF589.271
aF589.271
aF134.901
aF134.901
aF134.901
aF667.755
aF667.755
aF667.755
aF667.755
aF667.755
aF667.755
aF893.227
aF893.227
aF893.227
aF893.227
aF893.227
aF893.227
aF579.031
aF579.031
aF579.031
aF579.031
aF579.031
aF579.031
aF324.172
aF324.172
aF324.172
aF324.172
aF324.172
aF324.172
asS'dv400_l75_non_lstar'
p96
(lp97
sS'dv400_imp500_det'
p98
I0
sS'dv400_l75_non'
p99
I0
sS'dv400_imp500_det_lstar'
p100
(lp101
sS'dv400_l0001_non_az'
p102
(lp103
sS'dv400_imp500_non_az'
p104
(lp105
sS'dv400_imp100_non_lstar'
p106
(lp107
sS'dv400_l75_non_inc'
p108
(lp109
sS'dv400_imp25_non'
p110
I0
sS'dv_rvir25'
p111
(lp112
sS'dv400_l0001_det'
p113
I0
sS'dv400_imp25_non_az'
p114
(lp115
sS'dv400_l001_det_lstar'
p116
(lp117
sS'dv400_l1_det_lstar'
p118
(lp119
sS'dv400_l005_non'
p120
I0
sS'dv400_all_non_incs'
p121
(lp122
F90.0
aF90.0
aF90.0
aF90.0
aF90.0
aF90.0
aF-99.0
aF-99.0
aF-99.0
aF-99.0
aF-99.0
aF-99.0
aF-99.0
aF-99.0
aF-99.0
aF-99.0
aF-99.0
aF-99.0
aF-99.0
aF-99.0
aF-99.0
aF-99.0
aF-99.0
aF-99.0
aF49.0
aF49.0
aF49.0
aF49.0
aF49.0
aF49.0
aF-99.0
aF-99.0
aF-99.0
aF-99.0
aF-99.0
aF-99.0
aF80.0
aF80.0
aF80.0
aF81.0
aF81.0
aF81.0
aF-99.0
aF-99.0
aF-99.0
aF-99.0
aF-99.0
aF-99.0
aF-99.0
aF-99.0
aF-99.0
aF-99.0
aF-99.0
aF-99.0
aF-99.0
aF-99.0
aF-99.0
aF-99.0
aF-99.0
aF-99.0
aF-99.0
aF-99.0
aF-99.0
aF-99.0
aF-99.0
aF-99.0
aF59.0
aF59.0
aF59.0
aF59.0
aF59.0
aF59.0
aF56.0
aF56.0
aF56.0
aF56.0
aF56.0
aF56.0
aF77.0
aF77.0
aF77.0
aF77.0
aF77.0
aF77.0
aF0.0
aF0.0
aF0.0
aF0.0
aF0.0
aF0.0
aF62.0
aF62.0
aF62.0
aF62.0
aF62.0
aF62.0
aF0.0
aF0.0
aF0.0
aF0.0
aF0.0
aF0.0
aF34.0
aF34.0
aF34.0
aF58.0
aF58.0
aF58.0
aF58.0
aF58.0
aF58.0
aF-99.0
aF-99.0
aF-99.0
aF-99.0
aF-99.0
aF-99.0
aF0.0
aF0.0
aF0.0
aF0.0
aF0.0
aF0.0
aF55.0
aF55.0
aF55.0
aF55.0
aF55.0
aF55.0
asS'dv400_l5_det_az'
p123
(lp124
sS'dv_rvir1'
p125
(lp126
sS'dv_rvir2'
p127
(lp128
F-8135.0
aF-7081.0
aF-6920.0
aF-328.0
aF-269.0
aF-191.0
asS'dv400_imp300_det_az'
p129
(lp130
sS'dv400_all_non_majdiams'
p131
(lp132
S'10.5'
p133
ag133
ag133
ag133
ag133
ag133
aS'-99.99'
p134
ag134
ag134
ag134
ag134
ag134
aS'-99.99'
p135
ag135
ag135
ag135
ag135
ag135
aS'-99.99'
p136
ag136
ag136
ag136
ag136
ag136
aS'1.112'
p137
ag137
ag137
ag137
ag137
ag137
aS'-99.99'
p138
ag138
ag138
ag138
ag138
ag138
aS'32.86'
p139
ag139
ag139
aS'13.63'
p140
ag140
ag140
aS'-99.99'
p141
ag141
ag141
ag141
ag141
ag141
aS'-99.99'
p142
ag142
ag142
ag142
ag142
ag142
aS'-99.99'
p143
ag143
ag143
ag143
ag143
ag143
aS'-99.99'
p144
ag144
ag144
ag144
ag144
ag144
aS'3.931'
p145
ag145
ag145
ag145
ag145
ag145
aS'2.152'
p146
ag146
ag146
ag146
ag146
ag146
aS'17.4'
p147
ag147
ag147
ag147
ag147
ag147
aS'5.259'
p148
ag148
ag148
ag148
ag148
ag148
aS'6.599'
p149
ag149
ag149
ag149
ag149
ag149
aS'0.3818'
p150
ag150
ag150
ag150
ag150
ag150
aS'7.718'
p151
ag151
ag151
aS'1.688'
p152
ag152
ag152
ag152
ag152
ag152
aS'-99.99'
p153
ag153
ag153
ag153
ag153
ag153
aS'2.954'
p154
ag154
ag154
ag154
ag154
ag154
aS'3.486'
p155
ag155
ag155
ag155
ag155
ag155
asS'dv400_all_non_bmags'
p156
(lp157
S'13.2'
p158
ag158
ag158
ag158
ag158
ag158
aS'-99.99'
p159
ag159
ag159
ag159
ag159
ag159
aS'-99.99'
p160
ag160
ag160
ag160
ag160
ag160
aS'-99.99'
p161
ag161
ag161
ag161
ag161
ag161
aS'15.7'
p162
ag162
ag162
ag162
ag162
ag162
aS'-99.99'
p163
ag163
ag163
ag163
ag163
ag163
aS'14.1'
p164
ag164
ag164
aS'18'
p165
ag165
ag165
aS'-99.99'
p166
ag166
ag166
ag166
ag166
ag166
aS'-99.99'
p167
ag167
ag167
ag167
ag167
ag167
aS'-99.99'
p168
ag168
ag168
ag168
ag168
ag168
aS'-99.99'
p169
ag169
ag169
ag169
ag169
ag169
aS'16.9'
p170
ag170
ag170
ag170
ag170
ag170
aS'17.9'
p171
ag171
ag171
ag171
ag171
ag171
aS'8.71'
p172
ag172
ag172
ag172
ag172
ag172
aS'15.9'
p173
ag173
ag173
ag173
ag173
ag173
aS'12.8'
p174
ag174
ag174
ag174
ag174
ag174
aS'20.3'
p175
ag175
ag175
ag175
ag175
ag175
aS'18.1'
p176
ag176
ag176
aS'18'
p177
ag177
ag177
ag177
ag177
ag177
aS'-99.99'
p178
ag178
ag178
ag178
ag178
ag178
aS'15'
p179
ag179
ag179
ag179
ag179
ag179
aS'14.6'
p180
ag180
ag180
ag180
ag180
ag180
asS'dv_l5'
p181
(lp182
sS'dv400_l005_det'
p183
I0
sS'dv400_imp400_det_lstar'
p184
(lp185
F0.036
asS'dv400_l1_det_az'
p186
(lp187
sS'dv400_l01_non_lstar'
p188
(lp189
F0.19
asS'dv400_rvir1_non'
p190
I0
sS'dv400_l0005_det_inc'
p191
(lp192
sS'dv400_imp100_non_az'
p193
(lp194
sS'dv400_l5_non_az'
p195
(lp196
sS'dv400_all_det_bmags'
p197
(lp198
S'17.7'
p199
ag199
ag199
ag199
ag199
ag199
aS'14.5'
p200
ag200
ag200
ag200
ag200
ag200
aS'15.1'
p201
ag201
ag201
ag201
ag201
ag201
ag164
ag164
ag164
aS'14.6'
p202
ag202
ag202
ag202
ag202
ag202
ag165
ag165
ag165
aS'16.2'
p203
ag203
ag203
ag203
ag203
ag203
ag176
ag176
ag176
aS'14.9'
p204
ag204
ag204
ag204
ag204
ag204
asS'dv400_l005_non_az'
p205
(lp206
sS'dv400_l0005_det_lstar'
p207
(lp208
sS'dv400_all_det_lstars'
p209
(lp210
F0.011
aF0.011
aF0.011
aF0.011
aF0.011
aF0.011
aF0.15
aF0.15
aF0.15
aF0.15
aF0.15
aF0.15
aF0.036
aF0.036
aF0.036
aF0.036
aF0.036
aF0.036
aF3.2
aF3.2
aF3.2
aF0.2
aF0.2
aF0.2
aF0.2
aF0.2
aF0.2
aF0.2
aF0.2
aF0.2
aF0.029
aF0.029
aF0.029
aF0.029
aF0.029
aF0.029
aF0.19
aF0.19
aF0.19
aF0.14
aF0.14
aF0.14
aF0.14
aF0.14
aF0.14
asS'dv400_imp25_non_inc'
p211
(lp212
sS'dv400_imp400_det_inc'
p213
(lp214
F50.0
asS'dv400_rvir2_det'
p215
I0
sS'impact_rvir_no_galaxies'
p216
(lp217
F1800.0
aF2854.0
aF3015.0
aF9607.0
aF9666.0
aF9744.0
aF1800.0
aF2854.0
aF3015.0
aF9607.0
aF9666.0
aF9744.0
aF1800.0
aF2854.0
aF3015.0
aF9607.0
aF9666.0
aF9744.0
aF1800.0
aF2854.0
aF3015.0
aF9607.0
aF9666.0
aF9744.0
aF1800.0
aF2854.0
aF3015.0
aF9607.0
aF9666.0
aF9744.0
aF1800.0
aF2854.0
aF3015.0
aF9607.0
aF9666.0
aF9744.0
aF1800.0
aF2854.0
aF3015.0
aF9607.0
aF9666.0
aF9744.0
aF1800.0
aF2854.0
aF3015.0
aF9607.0
aF9666.0
aF9744.0
aF1800.0
aF2854.0
aF3015.0
aF9607.0
aF9666.0
aF9744.0
aF1800.0
aF2854.0
aF3015.0
aF9607.0
aF9666.0
aF9744.0
aF1800.0
aF2854.0
aF3015.0
aF9607.0
aF9666.0
aF9744.0
aF1800.0
aF2854.0
aF3015.0
aF9607.0
aF9666.0
aF9744.0
aF1800.0
aF2854.0
aF3015.0
aF9607.0
aF9666.0
aF9744.0
aF1800.0
aF2854.0
aF3015.0
aF9607.0
aF9666.0
aF9744.0
aF1800.0
aF2854.0
aF3015.0
aF9607.0
aF9666.0
aF9744.0
aF1800.0
aF2854.0
aF3015.0
aF9607.0
aF9666.0
aF9744.0
aF1800.0
aF2854.0
aF3015.0
aF9607.0
aF9666.0
aF9744.0
asS'dv400_l5_non_inc'
p218
(lp219
sS'dv400_l01_non_inc'
p220
(lp221
F34.0
asS'dv400_rvir05_non'
p222
I0
sS'dv400_l5_det_lstar'
p223
(lp224
sS'dv400_l01_non_az'
p225
(lp226
F21.0
asS'dv400_imp200_det_inc'
p227
(lp228
sS'dv400_imp200_det_lstar'
p229
(lp230
sS'dv400_imp300_det_inc'
p231
(lp232
sS'dv_500'
p233
(lp234
sS'dv400_all_det_group_dists'
p235
(lp236
S'-99.99'
p237
ag237
ag237
ag237
ag237
ag237
aS'-99.99'
p238
ag238
ag238
ag238
ag238
ag238
aS'20.8'
p239
ag239
ag239
ag239
ag239
ag239
ag57
ag57
ag57
aS'-99.99'
p240
ag240
ag240
ag240
ag240
ag240
ag58
ag58
ag58
aS'-99.99'
p241
ag241
ag241
ag241
ag241
ag241
ag69
ag69
ag69
aS'-99.99'
p242
ag242
ag242
ag242
ag242
ag242
asS'dv400_imp25_det_az'
p243
(lp244
sS'likelihood_no_galaxies'
p245
(lp246
F1800.0
aF2854.0
aF3015.0
aF9607.0
aF9666.0
aF9744.0
aF1800.0
aF2854.0
aF3015.0
aF9607.0
aF9666.0
aF9744.0
aF1800.0
aF2854.0
aF3015.0
aF9607.0
aF9666.0
aF9744.0
aF1800.0
aF2854.0
aF3015.0
aF9607.0
aF9666.0
aF9744.0
aF1800.0
aF2854.0
aF3015.0
aF9607.0
aF9666.0
aF9744.0
aF1800.0
aF2854.0
aF3015.0
aF9607.0
aF9666.0
aF9744.0
aF1800.0
aF2854.0
aF3015.0
aF9607.0
aF9666.0
aF9744.0
aF1800.0
aF2854.0
aF3015.0
aF9607.0
aF9666.0
aF9744.0
aF1800.0
aF2854.0
aF3015.0
aF9607.0
aF9666.0
aF9744.0
aF1800.0
aF2854.0
aF3015.0
aF9607.0
aF9666.0
aF9744.0
aF1800.0
aF2854.0
aF3015.0
aF9607.0
aF9666.0
aF9744.0
aF1800.0
aF2854.0
aF3015.0
aF9607.0
aF9666.0
aF9744.0
aF1800.0
aF2854.0
aF3015.0
aF9607.0
aF9666.0
aF9744.0
aF1800.0
aF2854.0
aF3015.0
aF9607.0
aF9666.0
aF9744.0
aF1800.0
aF2854.0
aF3015.0
aF9607.0
aF9666.0
aF9744.0
aF1800.0
aF2854.0
aF3015.0
aF9607.0
aF9666.0
aF9744.0
aF1800.0
aF2854.0
aF3015.0
aF9607.0
aF9666.0
aF9744.0
asS'dv_l005'
p247
(lp248
sS'dv400_imp200_non_lstar'
p249
(lp250
F0.2
aF0.19
asS'dv400_l05_non_lstar'
p251
(lp252
sS'dv400_imp100_det_inc'
p253
(lp254
F80.0
asS'dv400_imp25_det_inc'
p255
(lp256
sS'dv400_l05_non_az'
p257
(lp258
sS'dv400_imp100_det'
p259
I1
sS'dv400_imp500_non_lstar'
p260
(lp261
sS'dv400_l01_det_lstar'
p262
(lp263
sS'dv400_imp300_non_lstar'
p264
(lp265
sS'dv400_l5_non'
p266
I0
sS'dv400_l0005_non'
p267
I0
sS'dv400_l005_non_inc'
p268
(lp269
sS'dv400_l01_det_az'
p270
(lp271
sS'dv400_imp50_det_az'
p272
(lp273
sS'dv_25'
p274
(lp275
sS'dv400_l01_det_inc'
p276
(lp277
sS'dv400_all_det_majdiams'
p278
(lp279
S'4.077'
p280
ag280
ag280
ag280
ag280
ag280
aS'8.38'
p281
ag281
ag281
ag281
ag281
ag281
aS'3.692'
p282
ag282
ag282
ag282
ag282
ag282
ag139
ag139
ag139
aS'5.016'
p283
ag283
ag283
ag283
ag283
ag283
ag140
ag140
ag140
aS'5.531'
p284
ag284
ag284
ag284
ag284
ag284
ag151
ag151
ag151
aS'9.847'
p285
ag285
ag285
ag285
ag285
ag285
asS'dv400_rvir1_det'
p286
I0
sS'dv400_imp50_non_az'
p287
(lp288
F65.9
asS'dv400_l1_non_lstar'
p289
(lp290
F0.2
asS'dv400_rvir075_non'
p291
I0
sS'dv400_imp1000_non_lstar'
p292
(lp293
F0.048
aF0.011
aF0.004
aF0.0056
aF0.95
aF0.0056
aF0.2
asS'dv400_imp100_det_az'
p294
(lp295
F52.8
asS'dv400_all_non_group_mems'
p296
(lp297
S'-99'
p298
ag298
ag298
ag298
ag298
ag298
aS'-99'
p299
ag299
ag299
ag299
ag299
ag299
aS'-99'
p300
ag300
ag300
ag300
ag300
ag300
aS'-99'
p301
ag301
ag301
ag301
ag301
ag301
aS'-99'
p302
ag302
ag302
ag302
ag302
ag302
aS'-99'
p303
ag303
ag303
ag303
ag303
ag303
aS'-99'
p304
ag304
ag304
aS'-99'
p305
ag305
ag305
aS'-99'
p306
ag306
ag306
ag306
ag306
ag306
aS'-99'
p307
ag307
ag307
ag307
ag307
ag307
aS'-99'
p308
ag308
ag308
ag308
ag308
ag308
aS'-99'
p309
ag309
ag309
ag309
ag309
ag309
aS'-99'
p310
ag310
ag310
ag310
ag310
ag310
aS'-99'
p311
ag311
ag311
ag311
ag311
ag311
aS'2'
p312
ag312
ag312
ag312
ag312
ag312
aS'-99'
p313
ag313
ag313
ag313
ag313
ag313
aS'1'
p314
ag314
ag314
ag314
ag314
ag314
aS'-99'
p315
ag315
ag315
ag315
ag315
ag315
aS'-99'
p316
ag316
ag316
aS'-99'
p317
ag317
ag317
ag317
ag317
ag317
aS'-99'
p318
ag318
ag318
ag318
ag318
ag318
aS'-99'
p319
ag319
ag319
ag319
ag319
ag319
aS'-99'
p320
ag320
ag320
ag320
ag320
ag320
asS'dv_100'
p321
(lp322
F-7885.0
aF-6831.0
aF-6670.0
aF-78.0
aF-19.0
aF59.0
asS'dv400_imp50_det'
p323
I0
sS'dv400_l0005_non_inc'
p324
(lp325
sS'dv_rvir075'
p326
(lp327
sS'dv400_imp750_det_lstar'
p328
(lp329
sS'dv400_l0001_non_inc'
p330
(lp331
sS'dv400_all_det_group_mems'
p332
(lp333
S'-99'
p334
ag334
ag334
ag334
ag334
ag334
aS'-99'
p335
ag335
ag335
ag335
ag335
ag335
ag314
ag314
ag314
ag314
ag314
ag314
ag304
ag304
ag304
aS'-99'
p336
ag336
ag336
ag336
ag336
ag336
ag305
ag305
ag305
aS'-99'
p337
ag337
ag337
ag337
ag337
ag337
ag316
ag316
ag316
aS'-99'
p338
ag338
ag338
ag338
ag338
ag338
asS'dv400_imp500_non_inc'
p339
(lp340
sS'dv400_rvir25_non'
p341
I0
sS'dv400_imp500_det_inc'
p342
(lp343
sS'dv400_l5_det'
p344
I0
sS'dv400_l0005_non_lstar'
p345
(lp346
sS'dv400_l0001_det_inc'
p347
(lp348
sS'dv400_l01_det'
p349
I0
sS'dv400_imp400_non_az'
p350
(lp351
F48.2
asS'dv400_all_non_azs'
p352
(lp353
F1.8
aF1.8
aF1.8
aF1.8
aF1.8
aF1.8
aF65.9
aF65.9
aF65.9
aF65.9
aF65.9
aF65.9
aF51.3
aF51.3
aF51.3
aF51.3
aF51.3
aF51.3
aF12.3
aF12.3
aF12.3
aF12.3
aF12.3
aF12.3
aF60.0
aF60.0
aF60.0
aF60.0
aF60.0
aF60.0
aF45.9
aF45.9
aF45.9
aF45.9
aF45.9
aF45.9
aF52.8
aF52.8
aF52.8
aF40.4
aF40.4
aF40.4
aF6.6
aF6.6
aF6.6
aF6.6
aF6.6
aF6.6
aF43.1
aF43.1
aF43.1
aF43.1
aF43.1
aF43.1
aF4.7
aF4.7
aF4.7
aF4.7
aF4.7
aF4.7
aF12.6
aF12.6
aF12.6
aF12.6
aF12.6
aF12.6
aF49.8
aF49.8
aF49.8
aF49.8
aF49.8
aF49.8
aF77.5
aF77.5
aF77.5
aF77.5
aF77.5
aF77.5
aF3.8
aF3.8
aF3.8
aF3.8
aF3.8
aF3.8
aF81.3
aF81.3
aF81.3
aF81.3
aF81.3
aF81.3
aF72.8
aF72.8
aF72.8
aF72.8
aF72.8
aF72.8
aF25.9
aF25.9
aF25.9
aF25.9
aF25.9
aF25.9
aF21.0
aF21.0
aF21.0
aF27.7
aF27.7
aF27.7
aF27.7
aF27.7
aF27.7
aF2.3
aF2.3
aF2.3
aF2.3
aF2.3
aF2.3
aF75.3
aF75.3
aF75.3
aF75.3
aF75.3
aF75.3
aF48.2
aF48.2
aF48.2
aF48.2
aF48.2
aF48.2
asS'dv400_imp100_non'
p354
I0
sS'dv400_l005_det_az'
p355
(lp356
sS'dv400_imp50_non_inc'
p357
(lp358
F-99.0
asS'dv400_rvir15_det'
p359
I0
sS'dv400_imp300_det_lstar'
p360
(lp361
sS'dv400_all_non_likelihoods'
p362
(lp363
F6.408788526329194e-45
aF6.408788526329194e-45
aF6.408788526329194e-45
aF6.408788526329194e-45
aF6.408788526329194e-45
aF6.408788526329194e-45
aF0.0
aF0.0
aF0.0
aF0.0
aF0.0
aF0.0
aF0.8626443040768198
aF0.8626443040768198
aF0.8626443040768198
aF0.2649734694949291
aF0.2649734694949291
aF0.2649734694949291
aF1.1880137220188278e-138
aF1.1880137220188278e-138
aF1.1880137220188278e-138
aF1.1880137220188278e-138
aF1.1880137220188278e-138
aF1.1880137220188278e-138
aF3.2717056684505357e-129
aF3.2717056684505357e-129
aF3.2717056684505357e-129
aF3.2717056684505357e-129
aF3.2717056684505357e-129
aF3.2717056684505357e-129
aF1.625766264353278e-28
aF1.625766264353278e-28
aF1.625766264353278e-28
aF1.625766264353278e-28
aF1.625766264353278e-28
aF1.625766264353278e-28
aF1.2570565207165728e-93
aF1.2570565207165728e-93
aF1.2570565207165728e-93
aF1.2570565207165728e-93
aF1.2570565207165728e-93
aF1.2570565207165728e-93
aF1.8277431212065078e-72
aF1.8277431212065078e-72
aF1.8277431212065078e-72
aF1.8277431212065078e-72
aF1.8277431212065078e-72
aF1.8277431212065078e-72
aF0.0
aF0.0
aF0.0
aF0.0
aF0.0
aF0.0
aF0.027548191255582683
aF0.027548191255582683
aF0.027548191255582683
aF4.640909170215e-312
aF4.640909170215e-312
aF4.640909170215e-312
aF4.640909170215e-312
aF4.640909170215e-312
aF4.640909170215e-312
aF6.816546121896969e-109
aF6.816546121896969e-109
aF6.816546121896969e-109
aF6.816546121896969e-109
aF6.816546121896969e-109
aF6.816546121896969e-109
aF1.0507373537564096e-27
aF1.0507373537564096e-27
aF1.0507373537564096e-27
aF1.0507373537564096e-27
aF1.0507373537564096e-27
aF1.0507373537564096e-27
asS'dv400_all_non_rvirs'
p364
(lp365
F88.03
aF88.03
aF88.03
aF88.03
aF88.03
aF88.03
aF-99.99
aF-99.99
aF-99.99
aF-99.99
aF-99.99
aF-99.99
aF-99.99
aF-99.99
aF-99.99
aF-99.99
aF-99.99
aF-99.99
aF-99.99
aF-99.99
aF-99.99
aF-99.99
aF-99.99
aF-99.99
aF18.7
aF18.7
aF18.7
aF18.7
aF18.7
aF18.7
aF-99.99
aF-99.99
aF-99.99
aF-99.99
aF-99.99
aF-99.99
aF193.42
aF193.42
aF193.42
aF105.39
aF105.39
aF105.39
aF-99.99
aF-99.99
aF-99.99
aF-99.99
aF-99.99
aF-99.99
aF-99.99
aF-99.99
aF-99.99
aF-99.99
aF-99.99
aF-99.99
aF-99.99
aF-99.99
aF-99.99
aF-99.99
aF-99.99
aF-99.99
aF-99.99
aF-99.99
aF-99.99
aF-99.99
aF-99.99
aF-99.99
aF44.69
aF44.69
aF44.69
aF44.69
aF44.69
aF44.69
aF29.49
aF29.49
aF29.49
aF29.49
aF29.49
aF29.49
aF124.73
aF124.73
aF124.73
aF124.73
aF124.73
aF124.73
aF54.63
aF54.63
aF54.63
aF54.63
aF54.63
aF54.63
aF63.89
aF63.89
aF63.89
aF63.89
aF63.89
aF63.89
aF8.94
aF8.94
aF8.94
aF8.94
aF8.94
aF8.94
aF71.18
aF71.18
aF71.18
aF24.94
aF24.94
aF24.94
aF24.94
aF24.94
aF24.94
aF-99.99
aF-99.99
aF-99.99
aF-99.99
aF-99.99
aF-99.99
aF36.69
aF36.69
aF36.69
aF36.69
aF36.69
aF36.69
aF41.13
aF41.13
aF41.13
aF41.13
aF41.13
aF41.13
asS'dv400_l1_det'
p366
I0
sS'dv400_imp1000_det_inc'
p367
(lp368
sS'dv400_l75_det_lstar'
p369
(lp370
F3.2
asS'dv400_all_det_mtypes'
p371
(lp372
S'x'
p373
ag373
ag373
ag373
ag373
ag373
aS'S?'
p374
ag374
ag374
ag374
ag374
ag374
aS'S0-a'
p375
ag375
ag375
ag375
ag375
ag375
aS'Sc'
p376
ag376
ag376
aS'S0/a'
p377
ag377
ag377
ag377
ag377
ag377
ag373
ag373
ag373
ag373
ag373
ag373
ag373
ag373
ag373
aS'Extended_Src_[SDSS]'
p378
ag378
ag378
aS'IA?(s)m_V:'
p379
ag379
ag379
ag379
ag379
ag379
asS'dv_l75'
p380
(lp381
F-7885.0
aF-6831.0
aF-6670.0
aF-78.0
aF-19.0
aF59.0
asS'dv400_l75_non_az'
p382
(lp383
sS'dv400_all_det_rvirs'
p384
(lp385
F45.83
aF45.83
aF45.83
aF45.83
aF45.83
aF45.83
aF75.34
aF75.34
aF75.34
aF75.34
aF75.34
aF75.34
aF42.8
aF42.8
aF42.8
aF42.8
aF42.8
aF42.8
aF193.42
aF193.42
aF193.42
aF52.87
aF52.87
aF52.87
aF52.87
aF52.87
aF52.87
aF105.39
aF105.39
aF105.39
aF56.56
aF56.56
aF56.56
aF56.56
aF56.56
aF56.56
aF71.18
aF71.18
aF71.18
aF84.21
aF84.21
aF84.21
aF84.21
aF84.21
aF84.21
asS'dv400_imp100_non_inc'
p386
(lp387
sS'dv_750'
p388
(lp389
F319.0
aF1373.0
aF1534.0
aF8126.0
aF8185.0
aF8263.0
aF822.0
aF1876.0
aF2037.0
aF8629.0
aF8688.0
aF8766.0
aF-13.0
aF1041.0
aF1202.0
aF7794.0
aF7853.0
aF7931.0
aF390.0
aF1444.0
aF1605.0
aF8197.0
aF8256.0
aF8334.0
aF1216.0
aF2270.0
aF2431.0
aF9023.0
aF9082.0
aF9160.0
aF848.0
aF1902.0
aF2063.0
aF8655.0
aF8714.0
aF8792.0
aF880.0
aF1934.0
aF2095.0
aF8687.0
aF8746.0
aF8824.0
aF1288.0
aF2342.0
aF2503.0
aF9095.0
aF9154.0
aF9232.0
aF12.0
aF1066.0
aF1227.0
aF7819.0
aF7878.0
aF7956.0
aF1275.0
aF2329.0
aF2490.0
aF9082.0
aF9141.0
aF9219.0
asS'dv400_l001_non'
p390
I0
sS'dv400_l5_det_inc'
p391
(lp392
sS'dv400_imp750_det'
p393
I0
sS'dv400_imp400_det'
p394
I1
sS'dv400_imp25_det'
p395
I0
sS'dv_l1'
p396
(lp397
F-8013.0
aF-6959.0
aF-6798.0
aF-206.0
aF-147.0
aF-69.0
asS'dv400_imp400_non_inc'
p398
(lp399
F55.0
asS'dv400_imp750_non_az'
p400
(lp401
F49.8
aF51.3
aF86.3
aF56.9
aF43.1
aF77.5
aF25.9
aF27.7
aF31.7
aF75.3
asS'dv400_imp200_non'
p402
I2
sS'dv400_imp750_non_inc'
p403
(lp404
F69.0
aF-99.0
aF48.0
aF69.0
aF-99.0
aF56.0
aF0.0
aF58.0
aF47.0
aF0.0
asS'dv400_l001_non_az'
p405
(lp406
sS'dv400_l5_non_lstar'
p407
(lp408
sS'dv400_l001_det_az'
p409
(lp410
sS'dv400_imp500_non'
p411
I0
sS'dv400_rvir15_non'
p412
I1
sS'dv400_imp750_non'
p413
I10
sS'dv_1000'
p414
(lp415
F673.0
aF1727.0
aF1888.0
aF8480.0
aF8539.0
aF8617.0
aF66.0
aF1120.0
aF1281.0
aF7873.0
aF7932.0
aF8010.0
aF826.0
aF1880.0
aF2041.0
aF8633.0
aF8692.0
aF8770.0
aF1154.0
aF2208.0
aF2369.0
aF8961.0
aF9020.0
aF9098.0
aF1345.0
aF2399.0
aF2560.0
aF9152.0
aF9211.0
aF9289.0
aF1031.0
aF2085.0
aF2246.0
aF8838.0
aF8897.0
aF8975.0
aF1120.0
aF2174.0
aF2335.0
aF8927.0
aF8986.0
aF9064.0
aF820.0
aF1874.0
aF2035.0
aF8627.0
aF8686.0
aF8764.0
aF1066.0
aF2120.0
aF2281.0
aF8873.0
aF8932.0
aF9010.0
aF1194.0
aF2248.0
aF2409.0
aF9001.0
aF9060.0
aF9138.0
aF1026.0
aF2080.0
aF2241.0
aF8833.0
aF8892.0
aF8970.0
aF1040.0
aF2094.0
aF2255.0
aF8847.0
aF8906.0
aF8984.0
aF1095.0
aF2149.0
aF2310.0
aF8902.0
aF8961.0
aF9039.0
asS'dv_l0005'
p416
(lp417
sS'dv_l0001'
p418
(lp419
sS'dv400_rvir25_det'
p420
I0
sS'dv400_imp200_det_az'
p421
(lp422
sS'dv400_l1_non_az'
p423
(lp424
F40.4
asS'dv400_imp1000_det_lstar'
p425
(lp426
sS'dv400_l05_non'
p427
I0
sS'dv400_all_det_group_nums'
p428
(lp429
S'-99'
p430
ag430
ag430
ag430
ag430
ag430
aS'-99'
p431
ag431
ag431
ag431
ag431
ag431
aS'112994'
p432
ag432
ag432
ag432
ag432
ag432
aS'-99'
p433
ag433
ag433
aS'-99'
p434
ag434
ag434
ag434
ag434
ag434
aS'-99'
p435
ag435
ag435
aS'-99'
p436
ag436
ag436
ag436
ag436
ag436
aS'-99'
p437
ag437
ag437
aS'-99'
p438
ag438
ag438
ag438
ag438
ag438
asS'dv400_imp750_non_lstar'
p439
(lp440
F0.15
aF0.2
aF0.029
aF0.0034
aF0.00032
aF0.0013
aF0.14
aF0.004
asS'dv400_l1_non_inc'
p441
(lp442
F81.0
asS'dv400_l05_det_inc'
p443
(lp444
sS'dv400_imp200_non_az'
p445
(lp446
F40.4
aF21.0
asS'dv400_l005_det_inc'
p447
(lp448
sS'dv_rvir025'
p449
(lp450
sS'dv400_all_det_imps'
p451
(lp452
F997.353
aF997.353
aF997.353
aF997.353
aF997.353
aF997.353
aF748.936
aF748.936
aF748.936
aF748.936
aF748.936
aF748.936
aF355.049
aF355.049
aF355.049
aF355.049
aF355.049
aF355.049
aF74.348
aF74.348
aF74.348
aF628.617
aF628.617
aF628.617
aF628.617
aF628.617
aF628.617
aF121.456
aF121.456
aF121.456
aF717.434
aF717.434
aF717.434
aF717.434
aF717.434
aF717.434
aF134.901
aF134.901
aF134.901
aF615.321
aF615.321
aF615.321
aF615.321
aF615.321
aF615.321
asS'dv_200'
p453
(lp454
F-8013.0
aF-6959.0
aF-6798.0
aF-206.0
aF-147.0
aF-69.0
aF-8135.0
aF-7081.0
aF-6920.0
aF-328.0
aF-269.0
aF-191.0
asS'dv_l01'
p455
(lp456
F-8135.0
aF-7081.0
aF-6920.0
aF-328.0
aF-269.0
aF-191.0
asS'dv400_rvir2_non'
p457
I1
sS'dv_l05'
p458
(lp459
sS'dv400_all_det_likelihoods'
p460
(lp461
F2.111444536039802e-206
aF2.111444536039802e-206
aF2.111444536039802e-206
aF2.111444536039802e-206
aF2.111444536039802e-206
aF2.111444536039802e-206
aF1.212490058632885e-43
aF1.212490058632885e-43
aF1.212490058632885e-43
aF1.212490058632885e-43
aF1.212490058632885e-43
aF1.212490058632885e-43
aF1.299022831991444e-30
aF1.299022831991444e-30
aF1.299022831991444e-30
aF1.299022831991444e-30
aF1.299022831991444e-30
aF1.299022831991444e-30
aF0.8626443040768198
aF0.8626443040768198
aF0.8626443040768198
aF4.020712632592262e-62
aF4.020712632592262e-62
aF4.020712632592262e-62
aF4.020712632592262e-62
aF4.020712632592262e-62
aF4.020712632592262e-62
aF0.2649734694949291
aF0.2649734694949291
aF0.2649734694949291
aF1.329773094421263e-70
aF1.329773094421263e-70
aF1.329773094421263e-70
aF1.329773094421263e-70
aF1.329773094421263e-70
aF1.329773094421263e-70
aF0.027548191255582683
aF0.027548191255582683
aF0.027548191255582683
aF6.488610043227186e-24
aF6.488610043227186e-24
aF6.488610043227186e-24
aF6.488610043227186e-24
aF6.488610043227186e-24
aF6.488610043227186e-24
asS'dv400_l001_det_inc'
p462
(lp463
sS'dv400_imp25_det_lstar'
p464
(lp465
sS'dv400_l75_det_az'
p466
(lp467
F52.8
asS'dv400_l0005_det'
p468
I0
sS'dv_rvir05'
p469
(lp470
F-7885.0
aF-6831.0
aF-6670.0
aF-78.0
aF-19.0
aF59.0
asS'dv400_imp200_non_inc'
p471
(lp472
F81.0
aF34.0
asS'dv400_all_non_group_nums'
p473
(lp474
S'-99'
p475
ag475
ag475
ag475
ag475
ag475
aS'-99'
p476
ag476
ag476
ag476
ag476
ag476
aS'-99'
p477
ag477
ag477
ag477
ag477
ag477
aS'-99'
p478
ag478
ag478
ag478
ag478
ag478
aS'-99'
p479
ag479
ag479
ag479
ag479
ag479
aS'-99'
p480
ag480
ag480
ag480
ag480
ag480
ag433
ag433
ag433
ag435
ag435
ag435
aS'-99'
p481
ag481
ag481
ag481
ag481
ag481
aS'-99'
p482
ag482
ag482
ag482
ag482
ag482
aS'-99'
p483
ag483
ag483
ag483
ag483
ag483
aS'-99'
p484
ag484
ag484
ag484
ag484
ag484
aS'-99'
p485
ag485
ag485
ag485
ag485
ag485
aS'-99'
p486
ag486
ag486
ag486
ag486
ag486
aS'102705'
p487
ag487
ag487
ag487
ag487
ag487
aS'-99'
p488
ag488
ag488
ag488
ag488
ag488
aS'113054'
p489
ag489
ag489
ag489
ag489
ag489
aS'-99'
p490
ag490
ag490
ag490
ag490
ag490
ag437
ag437
ag437
aS'-99'
p491
ag491
ag491
ag491
ag491
ag491
aS'-99'
p492
ag492
ag492
ag492
ag492
ag492
aS'-99'
p493
ag493
ag493
ag493
ag493
ag493
aS'-99'
p494
ag494
ag494
ag494
ag494
ag494
asS'dv400_l1_det_inc'
p495
(lp496
sS'dv400_imp1000_det'
p497
I0
sS'dv400_imp400_det_az'
p498
(lp499
F13.6
asS'dv400_l001_non_inc'
p500
(lp501
sS'dv400_l0005_det_az'
p502
(lp503
sS'dv400_imp1000_non'
p504
I13
sS'dv400_l005_det_lstar'
p505
(lp506
sS'dv400_imp300_non_inc'
p507
(lp508
sS'dv400_imp300_non'
p509
I0
sS'dv400_imp100_det_lstar'
p510
(lp511
F3.2
asS'dv400_all_non_mtypes'
p512
(lp513
S'Sdm'
p514
ag514
ag514
ag514
ag514
ag514
aS'dSph'
p515
ag515
ag515
ag515
ag515
ag515
ag373
ag373
ag373
ag373
ag373
ag373
ag373
ag373
ag373
ag373
ag373
ag373
aS'BCD;Sbrst_HII'
p516
ag516
ag516
ag516
ag516
ag516
aS'ImIII'
p517
ag517
ag517
ag517
ag517
ag517
ag376
ag376
ag376
ag373
ag373
ag373
ag373
ag373
ag373
ag373
ag373
ag373
ag373
ag373
ag373
ag373
ag373
ag373
ag373
ag373
ag373
ag373
ag373
ag373
ag373
ag373
ag373
ag373
ag373
ag373
aS'Im/dSO'
p518
ag518
ag518
ag518
ag518
ag518
ag373
ag373
ag373
ag373
ag373
ag373
aS'SB(s)d_HII'
p519
ag519
ag519
ag519
ag519
ag519
aS'SB(s)m_IV'
p520
ag520
ag520
ag520
ag520
ag520
aS'SBd?_sp'
p521
ag521
ag521
ag521
ag521
ag521
aS'Candidate_QSO'
p522
ag522
ag522
ag522
ag522
ag522
ag378
ag378
ag378
ag373
ag373
ag373
ag373
ag373
ag373
ag373
ag373
ag373
ag373
ag373
ag373
aS'ImV'
p523
ag523
ag523
ag523
ag523
ag523
aS'Sd'
p524
ag524
ag524
ag524
ag524
ag524
asS'dv_l001'
p525
(lp526
sS'dv400_l05_det_az'
p527
(lp528
sS'dv400_all_non_lstars'
p529
(lp530
F0.048
aF0.048
aF0.048
aF0.048
aF0.048
aF0.048
aF-99.99
aF-99.99
aF-99.99
aF-99.99
aF-99.99
aF-99.99
aF-99.99
aF-99.99
aF-99.99
aF-99.99
aF-99.99
aF-99.99
aF-99.99
aF-99.99
aF-99.99
aF-99.99
aF-99.99
aF-99.99
aF0.004
aF0.004
aF0.004
aF0.004
aF0.004
aF0.004
aF-99.99
aF-99.99
aF-99.99
aF-99.99
aF-99.99
aF-99.99
aF3.2
aF3.2
aF3.2
aF0.2
aF0.2
aF0.2
aF-99.99
aF-99.99
aF-99.99
aF-99.99
aF-99.99
aF-99.99
aF-99.99
aF-99.99
aF-99.99
aF-99.99
aF-99.99
aF-99.99
aF-99.99
aF-99.99
aF-99.99
aF-99.99
aF-99.99
aF-99.99
aF-99.99
aF-99.99
aF-99.99
aF-99.99
aF-99.99
aF-99.99
aF0.0056
aF0.0056
aF0.0056
aF0.0056
aF0.0056
aF0.0056
aF0.0034
aF0.0034
aF0.0034
aF0.0034
aF0.0034
aF0.0034
aF0.95
aF0.95
aF0.95
aF0.95
aF0.95
aF0.95
aF0.0056
aF0.0056
aF0.0056
aF0.0056
aF0.0056
aF0.0056
aF0.2
aF0.2
aF0.2
aF0.2
aF0.2
aF0.2
aF0.00032
aF0.00032
aF0.00032
aF0.00032
aF0.00032
aF0.00032
aF0.19
aF0.19
aF0.19
aF0.0013
aF0.0013
aF0.0013
aF0.0013
aF0.0013
aF0.0013
aF-99.99
aF-99.99
aF-99.99
aF-99.99
aF-99.99
aF-99.99
aF0.004
aF0.004
aF0.004
aF0.004
aF0.004
aF0.004
aF0.0081
aF0.0081
aF0.0081
aF0.0081
aF0.0081
aF0.0081
asS'dv_rvir15'
p531
(lp532
F-8013.0
aF-6959.0
aF-6798.0
aF-206.0
aF-147.0
aF-69.0
as.