(dp0
S'dv400_imp300_det'
p1
I27
sS'dv400_l01_non_lstar'
p2
(lp3
F2.5e-05
aF0.98
aF0.034
aF0.15
aF0.5
aF0.45
aF0.61
aF0.034
aF0.14
asS'dv400_imp200_det'
p4
I21
sS'dv400_rvir025_det'
p5
I35
sS'dv400_l75_non_lstar'
p6
(lp7
F0.98
aF0.5
asS'dv400_l05_non_inc'
p8
(lp9
F12.0
aF58.0
aF74.0
aF72.0
aF90.0
asS'dv400_imp400_non_lstar'
p10
(lp11
F2.5e-05
aF0.2
aF0.98
aF0.036
aF0.034
aF0.15
aF1.1
aF0.077
aF0.23
aF0.5
aF0.034
aF0.17
aF3.1
aF0.45
aF0.46
aF0.61
aF0.034
aF0.14
asS'dv400_l05_det'
p12
I20
sS'dv400_l1_non'
p13
I3
sS'dv_300'
p14
(lp15
F-114.0
aF10.0
aF3638.0
aF3638.0
aF-1771.0
aF-1619.0
aF832.0
aF19.0
aF374.0
aF496.0
aF5107.0
aF8222.0
aF9238.0
aF-379.0
aF42.0
aF2359.0
aF-25.0
aF36.0
aF766.0
aF2451.0
aF4601.0
aF4734.0
aF5080.0
aF5176.0
aF6430.0
aF6566.0
aF7399.0
aF8645.0
aF8708.0
aF-809.0
aF-748.0
aF-18.0
aF1667.0
aF3817.0
aF3950.0
aF4296.0
aF4392.0
aF5646.0
aF5782.0
aF6615.0
aF7861.0
aF7924.0
aF-401.0
aF-18.0
aF3993.0
aF-1065.0
aF-673.0
aF-530.0
aF-29.0
aF2175.0
aF2978.0
aF-9.0
aF-68.0
aF34.0
aF165.0
aF3052.0
aF5681.0
aF-13.0
aF39.0
aF982.0
aF1116.0
aF2195.0
aF7195.0
aF4871.0
aF5781.0
aF8318.0
aF-268.0
aF150.0
aF569.0
aF2946.0
aF34.0
aF109.0
aF2678.0
aF3105.0
aF3363.0
aF3884.0
aF4764.0
aF4903.0
aF6327.0
aF978.0
aF4234.0
aF4641.0
aF-12.0
aF2371.0
aF-166.0
aF-45.0
aF12.0
aF2258.0
aF-198.0
aF5536.0
aF5917.0
aF1435.0
aF4611.0
aF1435.0
aF4611.0
aF4611.0
aF-140.0
aF-9.0
aF89.0
aF175.0
aF964.0
aF1095.0
aF1193.0
aF1279.0
aF15.0
aF173.0
aF-16.0
aF46.0
aF5042.0
aF7024.0
aF7158.0
aF-910.0
aF-830.0
aF4257.0
aF5747.0
aF5825.0
aF7694.0
aF185.0
aF376.0
aF2967.0
aF3969.0
aF4656.0
aF7971.0
aF-337.0
aF-146.0
aF2445.0
aF3447.0
aF4134.0
aF7449.0
aF-27.0
aF4494.0
aF7504.0
aF7621.0
aF-12.0
aF3187.0
aF3304.0
aF3470.0
aF3583.0
aF3635.0
aF3689.0
aF-222.0
aF33.0
aF204.0
aF2097.0
aF5273.0
aF6675.0
aF-61.0
aF104.0
aF252.0
aF1196.0
aF2023.0
aF-1065.0
aF-14.0
aF2269.0
aF2654.0
aF3581.0
aF963.0
aF1248.0
aF2186.0
aF4207.0
aF4823.0
aF-38.0
aF4.0
aF83.0
aF248.0
aF18.0
aF863.0
aF4525.0
aF4626.0
aF4851.0
aF-745.0
aF-38.0
aF632.0
aF4438.0
asS'dv_50'
p16
(lp17
F-114.0
aF10.0
aF3638.0
aF3638.0
aF-9.0
aF-68.0
aF34.0
aF165.0
aF3052.0
aF5681.0
aF34.0
aF109.0
aF2678.0
aF3105.0
aF3363.0
aF3884.0
aF4764.0
aF4903.0
aF6327.0
aF-198.0
aF5536.0
aF5917.0
aF1435.0
aF4611.0
aF1435.0
aF4611.0
aF4611.0
aF-16.0
aF46.0
aF5042.0
aF7024.0
aF7158.0
aF-61.0
aF104.0
aF252.0
aF1196.0
aF2023.0
aF-38.0
aF4.0
aF83.0
aF248.0
asS'dv400_imp750_det_inc'
p18
(lp19
F53.0
aF49.0
aF59.0
aF68.0
aF77.0
aF90.0
aF58.0
aF61.0
aF29.0
aF75.0
aF83.0
aF0.0
aF71.0
aF77.0
aF64.0
aF77.0
aF30.0
aF71.0
aF83.0
aF28.0
aF47.0
aF40.0
aF38.0
aF86.0
aF90.0
aF86.0
aF48.0
aF82.0
aF74.0
aF52.0
aF69.0
aF58.0
aF29.0
aF83.0
aF81.0
aF68.0
aF46.0
asS'dv400_l005_non_lstar'
p20
(lp21
F2.5e-05
aF0.98
aF0.034
aF0.15
aF0.5
aF3.1
aF0.45
aF0.61
aF0.034
aF0.14
asS'dv400_l0001_non_lstar'
p22
(lp23
F2.5e-05
aF0.98
aF0.036
aF0.034
aF0.15
aF1.1
aF0.23
aF0.5
aF0.034
aF3.1
aF0.45
aF0.61
aF0.034
aF0.14
asS'dv400_l75_det'
p24
I8
sS'dv400_l0001_det_lstar'
p25
(lp26
F0.057
aF0.15
aF0.055
aF0.31
aF0.087
aF0.58
aF0.15
aF0.5
aF0.61
aF1.4
aF0.95
aF0.49
aF0.15
aF0.69
aF0.48
aF1.4
aF0.42
aF0.068
aF0.59
aF0.035
aF0.73
aF0.034
aF1.3
aF0.15
aF0.62
aF0.46
aF0.24
asS'dv400_imp50_det_inc'
p27
(lp28
F53.0
aF71.0
aF77.0
aF47.0
aF90.0
aF29.0
aF81.0
asS'dv400_rvir25_non'
p29
I29
sS'dv400_imp50_det_lstar'
p30
(lp31
F0.057
aF0.5
aF0.95
aF0.69
aF0.42
aF1.3
aF0.62
asS'dv400_imp1000_non_inc'
p32
(lp33
F49.0
aF82.0
aF66.0
aF79.0
aF68.0
aF12.0
aF0.0
aF0.0
aF71.0
aF77.0
aF58.0
aF30.0
aF49.0
aF28.0
aF74.0
aF90.0
aF90.0
aF64.0
aF0.0
aF90.0
aF34.0
aF0.0
aF54.0
aF74.0
aF42.0
aF0.0
aF33.0
aF58.0
aF70.0
aF19.0
aF64.0
aF65.0
aF71.0
aF77.0
aF72.0
aF58.0
aF58.0
aF28.0
aF90.0
asS'dv400_l001_non_lstar'
p34
(lp35
F2.5e-05
aF0.98
aF0.036
aF0.034
aF0.15
aF1.1
aF0.5
aF3.1
aF0.45
aF0.61
aF0.034
aF0.14
asS'dv400_imp50_non'
p36
I2
sS'dv400_rvir025_non'
p37
I39
sS'dv400_rvir075_det'
p38
I29
sS'dv400_imp50_non_lstar'
p39
(lp40
F0.98
aF0.5
asS'dv400_imp25_non_lstar'
p41
(lp42
sS'dv_400'
p43
(lp44
F-114.0
aF10.0
aF3638.0
aF3638.0
aF-1771.0
aF-1619.0
aF832.0
aF19.0
aF374.0
aF496.0
aF5107.0
aF8222.0
aF9238.0
aF-379.0
aF42.0
aF2359.0
aF-866.0
aF5760.0
aF-25.0
aF36.0
aF766.0
aF2451.0
aF4601.0
aF4734.0
aF5080.0
aF5176.0
aF6430.0
aF6566.0
aF7399.0
aF8645.0
aF8708.0
aF-809.0
aF-748.0
aF-18.0
aF1667.0
aF3817.0
aF3950.0
aF4296.0
aF4392.0
aF5646.0
aF5782.0
aF6615.0
aF7861.0
aF7924.0
aF-401.0
aF-18.0
aF3993.0
aF-1065.0
aF-673.0
aF-530.0
aF-29.0
aF2175.0
aF2978.0
aF-9.0
aF-68.0
aF34.0
aF165.0
aF3052.0
aF5681.0
aF-13.0
aF39.0
aF982.0
aF1116.0
aF2195.0
aF7195.0
aF4871.0
aF5781.0
aF8318.0
aF-268.0
aF150.0
aF569.0
aF2946.0
aF34.0
aF109.0
aF2678.0
aF3105.0
aF3363.0
aF3884.0
aF4764.0
aF4903.0
aF6327.0
aF978.0
aF4234.0
aF4641.0
aF-12.0
aF2371.0
aF-159.0
aF-166.0
aF-45.0
aF12.0
aF2258.0
aF1501.0
aF2616.0
aF4764.0
aF7981.0
aF8450.0
aF9099.0
aF9235.0
aF-994.0
aF4740.0
aF5121.0
aF-198.0
aF5536.0
aF5917.0
aF1435.0
aF4611.0
aF1435.0
aF4611.0
aF4611.0
aF40.0
aF2129.0
aF2323.0
aF2656.0
aF-140.0
aF-9.0
aF89.0
aF175.0
aF964.0
aF1095.0
aF1193.0
aF1279.0
aF15.0
aF173.0
aF660.0
aF8249.0
aF3897.0
aF4381.0
aF4494.0
aF-16.0
aF46.0
aF5042.0
aF7024.0
aF7158.0
aF-910.0
aF-830.0
aF4257.0
aF5747.0
aF5825.0
aF7694.0
aF185.0
aF376.0
aF2967.0
aF3969.0
aF4656.0
aF7971.0
aF-337.0
aF-146.0
aF2445.0
aF3447.0
aF4134.0
aF7449.0
aF466.0
aF6579.0
aF6754.0
aF-27.0
aF4494.0
aF7504.0
aF7621.0
aF-12.0
aF3187.0
aF3304.0
aF3470.0
aF3583.0
aF3635.0
aF3689.0
aF-222.0
aF33.0
aF204.0
aF2097.0
aF5273.0
aF6675.0
aF-61.0
aF104.0
aF252.0
aF1196.0
aF2023.0
aF-1065.0
aF-14.0
aF2269.0
aF2654.0
aF3581.0
aF963.0
aF1248.0
aF2186.0
aF4207.0
aF4823.0
aF-38.0
aF4.0
aF83.0
aF248.0
aF18.0
aF863.0
aF4525.0
aF4626.0
aF4851.0
aF-745.0
aF-38.0
aF632.0
aF4438.0
asS'dv400_l05_det_lstar'
p45
(lp46
F0.057
aF0.15
aF0.055
aF0.31
aF0.087
aF0.58
aF0.15
aF0.5
aF0.61
aF1.4
aF0.95
aF0.49
aF0.15
aF0.69
aF1.4
aF0.42
aF0.034
aF1.3
aF0.15
aF0.62
asS'dv400_l01_non'
p47
I9
sS'dv400_l75_det_inc'
p48
(lp49
F71.0
aF77.0
aF30.0
aF47.0
aF86.0
aF90.0
aF29.0
aF81.0
asS'dv400_imp400_non'
p50
I18
sS'dv400_imp500_det'
p51
I34
sS'dv400_l75_non'
p52
I2
sS'dv400_imp500_det_lstar'
p53
(lp54
F0.057
aF0.15
aF0.18
aF0.055
aF0.058
aF0.024
aF0.082
aF0.31
aF0.087
aF0.58
aF0.15
aF0.5
aF0.61
aF1.4
aF0.95
aF0.49
aF0.38
aF0.15
aF0.043
aF0.69
aF0.9
aF0.48
aF1.4
aF0.42
aF0.068
aF0.59
aF0.035
aF0.73
aF0.034
aF1.3
aF0.15
aF0.62
aF0.46
aF0.24
asS'dv400_imp100_non_lstar'
p55
(lp56
F0.98
aF0.5
asS'dv400_l75_non_inc'
p57
(lp58
F12.0
aF74.0
asS'dv400_imp25_non'
p59
I0
sS'dv_rvir25'
p60
(lp61
F3914.0
aF4273.0
aF4384.0
aF-397.0
aF41.0
aF-731.0
aF-164.0
aF18.0
aF2263.0
aF3897.0
aF6698.0
aF6820.0
aF-1026.0
aF5040.0
aF6163.0
aF6294.0
aF-826.0
aF-565.0
aF101.0
aF5508.0
aF5888.0
aF7582.0
aF7694.0
aF7777.0
aF-43.0
aF629.0
aF825.0
aF1032.0
aF7228.0
aF241.0
aF3759.0
aF6473.0
aF7196.0
aF-866.0
aF5760.0
aF8080.0
aF-259.0
aF-29.0
aF5289.0
aF6988.0
aF4871.0
aF5781.0
aF8318.0
aF781.0
aF3443.0
aF-820.0
aF-178.0
aF3430.0
aF5578.0
aF3798.0
aF6592.0
aF689.0
aF4134.0
aF4362.0
aF7670.0
aF5644.0
aF6247.0
aF6402.0
aF6574.0
aF1094.0
aF4350.0
aF5067.0
aF5227.0
aF7918.0
aF-451.0
aF-159.0
aF1125.0
aF-1022.0
aF1318.0
aF1428.0
aF6464.0
aF7026.0
aF335.0
aF574.0
aF4444.0
aF1501.0
aF2616.0
aF4764.0
aF7981.0
aF8450.0
aF9099.0
aF9235.0
aF-994.0
aF4740.0
aF5121.0
aF813.0
aF6547.0
aF6928.0
aF5898.0
aF6833.0
aF40.0
aF2129.0
aF2323.0
aF2656.0
aF-1365.0
aF-564.0
aF117.0
aF825.0
aF4284.0
aF6351.0
aF7229.0
aF964.0
aF1095.0
aF1193.0
aF1279.0
aF660.0
aF8249.0
aF7402.0
aF298.0
aF-1025.0
aF-963.0
aF4033.0
aF6015.0
aF6149.0
aF185.0
aF376.0
aF2967.0
aF3969.0
aF4656.0
aF7971.0
aF466.0
aF6579.0
aF6754.0
aF305.0
aF3209.0
aF3919.0
aF4332.0
aF-27.0
aF4494.0
aF7504.0
aF7621.0
aF-6.0
aF790.0
aF934.0
aF6758.0
aF7464.0
aF7201.0
aF530.0
aF926.0
aF2286.0
aF5076.0
aF5278.0
aF7234.0
aF18.0
aF863.0
aF4525.0
aF4626.0
aF4851.0
asS'dv400_l0001_det'
p62
I27
sS'dv400_l001_det_lstar'
p63
(lp64
F0.057
aF0.15
aF0.055
aF0.31
aF0.087
aF0.58
aF0.15
aF0.5
aF0.61
aF1.4
aF0.95
aF0.49
aF0.15
aF0.69
aF0.48
aF1.4
aF0.42
aF0.59
aF0.73
aF0.034
aF1.3
aF0.15
aF0.62
aF0.24
asS'dv400_l1_det_lstar'
p65
(lp66
F0.057
aF0.15
aF0.055
aF0.31
aF0.087
aF0.58
aF0.15
aF0.5
aF0.61
aF1.4
aF0.95
aF0.49
aF0.69
aF1.4
aF0.42
aF0.034
aF1.3
aF0.15
aF0.62
asS'dv400_l005_non'
p67
I10
sS'dv_rvir1'
p68
(lp69
F-1771.0
aF-1619.0
aF832.0
aF3914.0
aF4273.0
aF4384.0
aF19.0
aF374.0
aF496.0
aF5107.0
aF8222.0
aF9238.0
aF-397.0
aF41.0
aF-731.0
aF-164.0
aF18.0
aF2263.0
aF3897.0
aF6698.0
aF6820.0
aF-1026.0
aF5040.0
aF6163.0
aF6294.0
aF-826.0
aF-565.0
aF101.0
aF5508.0
aF5888.0
aF7582.0
aF7694.0
aF7777.0
aF-43.0
aF629.0
aF825.0
aF1032.0
aF7228.0
aF241.0
aF3759.0
aF6473.0
aF7196.0
aF-866.0
aF5760.0
aF8080.0
aF-25.0
aF36.0
aF766.0
aF2451.0
aF4601.0
aF4734.0
aF5080.0
aF5176.0
aF6430.0
aF6566.0
aF7399.0
aF8645.0
aF8708.0
aF-401.0
aF-18.0
aF3993.0
aF-259.0
aF-29.0
aF5289.0
aF6988.0
aF4871.0
aF5781.0
aF8318.0
aF781.0
aF3443.0
aF-268.0
aF150.0
aF569.0
aF2946.0
aF-820.0
aF-178.0
aF3430.0
aF5578.0
aF3798.0
aF6592.0
aF689.0
aF4134.0
aF4362.0
aF7670.0
aF978.0
aF4234.0
aF4641.0
aF5644.0
aF6247.0
aF6402.0
aF6574.0
aF1094.0
aF4350.0
aF5067.0
aF5227.0
aF7918.0
aF-451.0
aF-159.0
aF-166.0
aF-45.0
aF12.0
aF2258.0
aF1125.0
aF-1022.0
aF1318.0
aF1428.0
aF6464.0
aF7026.0
aF335.0
aF574.0
aF4444.0
aF1501.0
aF2616.0
aF4764.0
aF7981.0
aF8450.0
aF9099.0
aF9235.0
aF-994.0
aF4740.0
aF5121.0
aF813.0
aF6547.0
aF6928.0
aF5898.0
aF6833.0
aF40.0
aF2129.0
aF2323.0
aF2656.0
aF-1365.0
aF-564.0
aF117.0
aF825.0
aF4284.0
aF6351.0
aF7229.0
aF-140.0
aF-9.0
aF89.0
aF175.0
aF964.0
aF1095.0
aF1193.0
aF1279.0
aF660.0
aF8249.0
aF7402.0
aF3897.0
aF4381.0
aF4494.0
aF298.0
aF-1025.0
aF-963.0
aF4033.0
aF6015.0
aF6149.0
aF-910.0
aF-830.0
aF4257.0
aF5747.0
aF5825.0
aF7694.0
aF185.0
aF376.0
aF2967.0
aF3969.0
aF4656.0
aF7971.0
aF-337.0
aF-146.0
aF2445.0
aF3447.0
aF4134.0
aF7449.0
aF466.0
aF6579.0
aF6754.0
aF305.0
aF3209.0
aF3919.0
aF4332.0
aF-27.0
aF4494.0
aF7504.0
aF7621.0
aF-12.0
aF3187.0
aF3304.0
aF3470.0
aF3583.0
aF3635.0
aF3689.0
aF-6.0
aF790.0
aF934.0
aF6758.0
aF7464.0
aF963.0
aF1248.0
aF2186.0
aF4207.0
aF4823.0
aF7201.0
aF530.0
aF926.0
aF2286.0
aF5076.0
aF5278.0
aF7234.0
aF18.0
aF863.0
aF4525.0
aF4626.0
aF4851.0
aF-745.0
aF-38.0
aF632.0
aF4438.0
asS'dv_rvir2'
p70
(lp71
F3914.0
aF4273.0
aF4384.0
aF-397.0
aF41.0
aF-731.0
aF-164.0
aF18.0
aF2263.0
aF3897.0
aF6698.0
aF6820.0
aF-1026.0
aF5040.0
aF6163.0
aF6294.0
aF-826.0
aF-565.0
aF101.0
aF5508.0
aF5888.0
aF7582.0
aF7694.0
aF7777.0
aF-43.0
aF629.0
aF825.0
aF1032.0
aF7228.0
aF241.0
aF3759.0
aF6473.0
aF7196.0
aF-866.0
aF5760.0
aF8080.0
aF-259.0
aF-29.0
aF5289.0
aF6988.0
aF4871.0
aF5781.0
aF8318.0
aF781.0
aF3443.0
aF-820.0
aF-178.0
aF3430.0
aF5578.0
aF3798.0
aF6592.0
aF689.0
aF4134.0
aF4362.0
aF7670.0
aF5644.0
aF6247.0
aF6402.0
aF6574.0
aF1094.0
aF4350.0
aF5067.0
aF5227.0
aF7918.0
aF-451.0
aF-159.0
aF1125.0
aF-1022.0
aF1318.0
aF1428.0
aF6464.0
aF7026.0
aF335.0
aF574.0
aF4444.0
aF1501.0
aF2616.0
aF4764.0
aF7981.0
aF8450.0
aF9099.0
aF9235.0
aF-994.0
aF4740.0
aF5121.0
aF813.0
aF6547.0
aF6928.0
aF5898.0
aF6833.0
aF40.0
aF2129.0
aF2323.0
aF2656.0
aF-1365.0
aF-564.0
aF117.0
aF825.0
aF4284.0
aF6351.0
aF7229.0
aF-140.0
aF-9.0
aF89.0
aF175.0
aF964.0
aF1095.0
aF1193.0
aF1279.0
aF660.0
aF8249.0
aF7402.0
aF3897.0
aF4381.0
aF4494.0
aF298.0
aF-1025.0
aF-963.0
aF4033.0
aF6015.0
aF6149.0
aF185.0
aF376.0
aF2967.0
aF3969.0
aF4656.0
aF7971.0
aF-337.0
aF-146.0
aF2445.0
aF3447.0
aF4134.0
aF7449.0
aF466.0
aF6579.0
aF6754.0
aF305.0
aF3209.0
aF3919.0
aF4332.0
aF-27.0
aF4494.0
aF7504.0
aF7621.0
aF-12.0
aF3187.0
aF3304.0
aF3470.0
aF3583.0
aF3635.0
aF3689.0
aF-6.0
aF790.0
aF934.0
aF6758.0
aF7464.0
aF7201.0
aF530.0
aF926.0
aF2286.0
aF5076.0
aF5278.0
aF7234.0
aF18.0
aF863.0
aF4525.0
aF4626.0
aF4851.0
aF-745.0
aF-38.0
aF632.0
asS'dv400_l005_det_lstar'
p72
(lp73
F0.057
aF0.15
aF0.055
aF0.31
aF0.087
aF0.58
aF0.15
aF0.5
aF0.61
aF1.4
aF0.95
aF0.49
aF0.15
aF0.69
aF0.48
aF1.4
aF0.42
aF0.59
aF0.73
aF0.034
aF1.3
aF0.15
aF0.62
asS'dv_l75'
p74
(lp75
F-9.0
aF-68.0
aF34.0
aF165.0
aF3052.0
aF5681.0
aF34.0
aF109.0
aF2678.0
aF3105.0
aF3363.0
aF3884.0
aF4764.0
aF4903.0
aF6327.0
aF-12.0
aF2371.0
aF-198.0
aF5536.0
aF5917.0
aF1435.0
aF4611.0
aF1435.0
aF4611.0
aF4611.0
aF15.0
aF173.0
aF-16.0
aF46.0
aF5042.0
aF7024.0
aF7158.0
aF-61.0
aF104.0
aF252.0
aF1196.0
aF2023.0
aF-38.0
aF4.0
aF83.0
aF248.0
asS'dv400_imp200_non'
p76
I5
sS'dv400_l005_det'
p77
I23
sS'dv400_imp400_det_lstar'
p78
(lp79
F0.057
aF0.15
aF0.055
aF0.31
aF0.087
aF0.58
aF0.15
aF0.5
aF0.61
aF1.4
aF0.95
aF0.49
aF0.38
aF0.15
aF0.69
aF0.9
aF0.48
aF1.4
aF0.42
aF0.068
aF0.59
aF0.035
aF0.73
aF0.034
aF1.3
aF0.15
aF0.62
aF0.46
aF0.24
asS'dv400_l0005_det_inc'
p80
(lp81
F53.0
aF49.0
aF68.0
aF61.0
aF29.0
aF75.0
aF83.0
aF71.0
aF77.0
aF64.0
aF77.0
aF30.0
aF83.0
aF47.0
aF38.0
aF86.0
aF90.0
aF48.0
aF52.0
aF69.0
aF29.0
aF83.0
aF81.0
aF46.0
asS'dv400_imp200_non_inc'
p82
(lp83
F12.0
aF58.0
aF74.0
aF65.0
aF72.0
asS'dv400_l0005_det_lstar'
p84
(lp85
F0.057
aF0.15
aF0.055
aF0.31
aF0.087
aF0.58
aF0.15
aF0.5
aF0.61
aF1.4
aF0.95
aF0.49
aF0.15
aF0.69
aF0.48
aF1.4
aF0.42
aF0.59
aF0.73
aF0.034
aF1.3
aF0.15
aF0.62
aF0.24
asS'dv400_imp25_non_inc'
p86
(lp87
sS'dv400_imp200_det_lstar'
p88
(lp89
F0.057
aF0.15
aF0.055
aF0.31
aF0.087
aF0.58
aF0.15
aF0.5
aF0.61
aF0.95
aF0.49
aF0.15
aF0.69
aF0.48
aF1.4
aF0.42
aF0.034
aF1.3
aF0.15
aF0.62
aF0.24
asS'dv400_rvir2_det'
p90
I21
sS'dv400_l5_non_inc'
p91
(lp92
F12.0
aF74.0
asS'dv400_l01_non_inc'
p93
(lp94
F49.0
aF12.0
aF58.0
aF49.0
aF74.0
aF65.0
aF72.0
aF58.0
aF90.0
asS'dv400_rvir05_non'
p95
I37
sS'dv400_l5_det_lstar'
p96
(lp97
F0.057
aF0.087
aF0.5
aF0.61
aF0.95
aF0.49
aF0.69
aF1.4
aF0.42
aF0.034
aF1.3
aF0.15
aF0.62
asS'dv400_imp200_det_inc'
p98
(lp99
F53.0
aF49.0
aF68.0
aF61.0
aF29.0
aF75.0
aF83.0
aF71.0
aF77.0
aF77.0
aF30.0
aF83.0
aF47.0
aF38.0
aF86.0
aF90.0
aF69.0
aF29.0
aF83.0
aF81.0
aF46.0
asS'dv400_imp400_det_inc'
p100
(lp101
F53.0
aF49.0
aF68.0
aF61.0
aF29.0
aF75.0
aF83.0
aF71.0
aF77.0
aF64.0
aF77.0
aF30.0
aF71.0
aF83.0
aF47.0
aF40.0
aF38.0
aF86.0
aF90.0
aF86.0
aF48.0
aF74.0
aF52.0
aF69.0
aF29.0
aF83.0
aF81.0
aF68.0
aF46.0
asS'dv400_imp300_det_inc'
p102
(lp103
F53.0
aF49.0
aF68.0
aF61.0
aF29.0
aF75.0
aF83.0
aF71.0
aF77.0
aF64.0
aF77.0
aF30.0
aF83.0
aF47.0
aF38.0
aF86.0
aF90.0
aF86.0
aF48.0
aF74.0
aF52.0
aF69.0
aF29.0
aF83.0
aF81.0
aF68.0
aF46.0
asS'dv_500'
p104
(lp105
F-114.0
aF10.0
aF3638.0
aF3638.0
aF-1771.0
aF-1619.0
aF832.0
aF19.0
aF374.0
aF496.0
aF5107.0
aF8222.0
aF9238.0
aF-397.0
aF41.0
aF-379.0
aF42.0
aF2359.0
aF-826.0
aF-565.0
aF101.0
aF5508.0
aF5888.0
aF7582.0
aF7694.0
aF7777.0
aF-43.0
aF629.0
aF825.0
aF1032.0
aF7228.0
aF241.0
aF3759.0
aF6473.0
aF7196.0
aF-866.0
aF5760.0
aF-25.0
aF36.0
aF766.0
aF2451.0
aF4601.0
aF4734.0
aF5080.0
aF5176.0
aF6430.0
aF6566.0
aF7399.0
aF8645.0
aF8708.0
aF-809.0
aF-748.0
aF-18.0
aF1667.0
aF3817.0
aF3950.0
aF4296.0
aF4392.0
aF5646.0
aF5782.0
aF6615.0
aF7861.0
aF7924.0
aF-401.0
aF-18.0
aF3993.0
aF-1065.0
aF-673.0
aF-530.0
aF-29.0
aF2175.0
aF2978.0
aF-9.0
aF-68.0
aF34.0
aF165.0
aF3052.0
aF5681.0
aF-13.0
aF39.0
aF982.0
aF1116.0
aF2195.0
aF7195.0
aF4871.0
aF5781.0
aF8318.0
aF-268.0
aF150.0
aF569.0
aF2946.0
aF34.0
aF109.0
aF2678.0
aF3105.0
aF3363.0
aF3884.0
aF4764.0
aF4903.0
aF6327.0
aF978.0
aF4234.0
aF4641.0
aF-12.0
aF2371.0
aF-159.0
aF-166.0
aF-45.0
aF12.0
aF2258.0
aF335.0
aF574.0
aF4444.0
aF1501.0
aF2616.0
aF4764.0
aF7981.0
aF8450.0
aF9099.0
aF9235.0
aF-994.0
aF4740.0
aF5121.0
aF-198.0
aF5536.0
aF5917.0
aF5898.0
aF6833.0
aF1435.0
aF4611.0
aF1435.0
aF4611.0
aF4611.0
aF40.0
aF2129.0
aF2323.0
aF2656.0
aF-140.0
aF-9.0
aF89.0
aF175.0
aF964.0
aF1095.0
aF1193.0
aF1279.0
aF15.0
aF173.0
aF660.0
aF8249.0
aF3897.0
aF4381.0
aF4494.0
aF-16.0
aF46.0
aF5042.0
aF7024.0
aF7158.0
aF-910.0
aF-830.0
aF4257.0
aF5747.0
aF5825.0
aF7694.0
aF185.0
aF376.0
aF2967.0
aF3969.0
aF4656.0
aF7971.0
aF-337.0
aF-146.0
aF2445.0
aF3447.0
aF4134.0
aF7449.0
aF466.0
aF6579.0
aF6754.0
aF-27.0
aF4494.0
aF7504.0
aF7621.0
aF-12.0
aF3187.0
aF3304.0
aF3470.0
aF3583.0
aF3635.0
aF3689.0
aF-222.0
aF33.0
aF204.0
aF2097.0
aF5273.0
aF6675.0
aF-61.0
aF104.0
aF252.0
aF1196.0
aF2023.0
aF-1065.0
aF-14.0
aF2269.0
aF2654.0
aF3581.0
aF963.0
aF1248.0
aF2186.0
aF4207.0
aF4823.0
aF-38.0
aF4.0
aF83.0
aF248.0
aF18.0
aF863.0
aF4525.0
aF4626.0
aF4851.0
aF-745.0
aF-38.0
aF632.0
aF4438.0
asS'dv_l001'
p106
(lp107
F-114.0
aF10.0
aF3638.0
aF3638.0
aF-1771.0
aF-1619.0
aF832.0
aF19.0
aF374.0
aF496.0
aF5107.0
aF8222.0
aF9238.0
aF-379.0
aF42.0
aF2359.0
aF-25.0
aF36.0
aF766.0
aF2451.0
aF4601.0
aF4734.0
aF5080.0
aF5176.0
aF6430.0
aF6566.0
aF7399.0
aF8645.0
aF8708.0
aF-809.0
aF-748.0
aF-18.0
aF1667.0
aF3817.0
aF3950.0
aF4296.0
aF4392.0
aF5646.0
aF5782.0
aF6615.0
aF7861.0
aF7924.0
aF-401.0
aF-18.0
aF3993.0
aF-1065.0
aF-673.0
aF-530.0
aF-29.0
aF2175.0
aF2978.0
aF-9.0
aF-68.0
aF34.0
aF165.0
aF3052.0
aF5681.0
aF-13.0
aF39.0
aF982.0
aF1116.0
aF2195.0
aF7195.0
aF4871.0
aF5781.0
aF8318.0
aF-268.0
aF150.0
aF569.0
aF2946.0
aF34.0
aF109.0
aF2678.0
aF3105.0
aF3363.0
aF3884.0
aF4764.0
aF4903.0
aF6327.0
aF978.0
aF4234.0
aF4641.0
aF-12.0
aF2371.0
aF-166.0
aF-45.0
aF12.0
aF2258.0
aF-198.0
aF5536.0
aF5917.0
aF1435.0
aF4611.0
aF1435.0
aF4611.0
aF4611.0
aF-140.0
aF-9.0
aF89.0
aF175.0
aF15.0
aF173.0
aF3897.0
aF4381.0
aF4494.0
aF-16.0
aF46.0
aF5042.0
aF7024.0
aF7158.0
aF-910.0
aF-830.0
aF4257.0
aF5747.0
aF5825.0
aF7694.0
aF-337.0
aF-146.0
aF2445.0
aF3447.0
aF4134.0
aF7449.0
aF-12.0
aF3187.0
aF3304.0
aF3470.0
aF3583.0
aF3635.0
aF3689.0
aF-222.0
aF33.0
aF204.0
aF2097.0
aF5273.0
aF6675.0
aF-61.0
aF104.0
aF252.0
aF1196.0
aF2023.0
aF-1065.0
aF-14.0
aF2269.0
aF2654.0
aF3581.0
aF963.0
aF1248.0
aF2186.0
aF4207.0
aF4823.0
aF-38.0
aF4.0
aF83.0
aF248.0
aF-745.0
aF-38.0
aF632.0
aF4438.0
asS'dv400_rvir1_det'
p108
I26
sS'dv_l005'
p109
(lp110
F-114.0
aF10.0
aF3638.0
aF3638.0
aF-1771.0
aF-1619.0
aF832.0
aF19.0
aF374.0
aF496.0
aF5107.0
aF8222.0
aF9238.0
aF-379.0
aF42.0
aF2359.0
aF-25.0
aF36.0
aF766.0
aF2451.0
aF4601.0
aF4734.0
aF5080.0
aF5176.0
aF6430.0
aF6566.0
aF7399.0
aF8645.0
aF8708.0
aF-809.0
aF-748.0
aF-18.0
aF1667.0
aF3817.0
aF3950.0
aF4296.0
aF4392.0
aF5646.0
aF5782.0
aF6615.0
aF7861.0
aF7924.0
aF-401.0
aF-18.0
aF3993.0
aF-1065.0
aF-673.0
aF-530.0
aF-29.0
aF2175.0
aF2978.0
aF-9.0
aF-68.0
aF34.0
aF165.0
aF3052.0
aF5681.0
aF-13.0
aF39.0
aF982.0
aF1116.0
aF2195.0
aF7195.0
aF-268.0
aF150.0
aF569.0
aF2946.0
aF34.0
aF109.0
aF2678.0
aF3105.0
aF3363.0
aF3884.0
aF4764.0
aF4903.0
aF6327.0
aF978.0
aF4234.0
aF4641.0
aF-12.0
aF2371.0
aF-166.0
aF-45.0
aF12.0
aF2258.0
aF-198.0
aF5536.0
aF5917.0
aF1435.0
aF4611.0
aF1435.0
aF4611.0
aF4611.0
aF-140.0
aF-9.0
aF89.0
aF175.0
aF15.0
aF173.0
aF3897.0
aF4381.0
aF4494.0
aF-16.0
aF46.0
aF5042.0
aF7024.0
aF7158.0
aF-910.0
aF-830.0
aF4257.0
aF5747.0
aF5825.0
aF7694.0
aF-337.0
aF-146.0
aF2445.0
aF3447.0
aF4134.0
aF7449.0
aF-12.0
aF3187.0
aF3304.0
aF3470.0
aF3583.0
aF3635.0
aF3689.0
aF-222.0
aF33.0
aF204.0
aF2097.0
aF5273.0
aF6675.0
aF-61.0
aF104.0
aF252.0
aF1196.0
aF2023.0
aF-1065.0
aF-14.0
aF2269.0
aF2654.0
aF3581.0
aF963.0
aF1248.0
aF2186.0
aF4207.0
aF4823.0
aF-38.0
aF4.0
aF83.0
aF248.0
aF4438.0
asS'dv400_imp200_non_lstar'
p111
(lp112
F0.98
aF0.034
aF0.5
aF0.45
aF0.61
asS'dv400_l05_non_lstar'
p113
(lp114
F0.98
aF0.034
aF0.5
aF0.61
aF0.14
asS'dv400_imp100_det_inc'
p115
(lp116
F53.0
aF29.0
aF83.0
aF71.0
aF77.0
aF77.0
aF30.0
aF47.0
aF86.0
aF90.0
aF69.0
aF29.0
aF83.0
aF81.0
asS'dv400_imp25_det_inc'
p117
(lp118
F71.0
aF77.0
aF47.0
aF90.0
aF81.0
asS'dv400_imp100_det'
p119
I14
sS'dv400_imp500_non_lstar'
p120
(lp121
F2.5e-05
aF0.2
aF0.98
aF0.036
aF0.034
aF0.15
aF1.1
aF0.077
aF0.23
aF0.099
aF0.5
aF0.034
aF0.17
aF3.1
aF0.45
aF0.46
aF0.61
aF0.034
aF0.14
asS'dv400_l01_det_lstar'
p122
(lp123
F0.057
aF0.15
aF0.055
aF0.31
aF0.087
aF0.58
aF0.15
aF0.5
aF0.61
aF1.4
aF0.95
aF0.49
aF0.15
aF0.69
aF1.4
aF0.42
aF0.73
aF0.034
aF1.3
aF0.15
aF0.62
asS'dv400_imp300_non_lstar'
p124
(lp125
F2.5e-05
aF0.98
aF0.036
aF0.034
aF0.15
aF0.5
aF0.034
aF0.45
aF0.61
aF0.034
aF0.14
asS'dv400_l5_non'
p126
I2
sS'dv400_l0005_non'
p127
I13
sS'dv_25'
p128
(lp129
F-9.0
aF-68.0
aF34.0
aF165.0
aF3052.0
aF34.0
aF109.0
aF2678.0
aF3105.0
aF3363.0
aF3884.0
aF4764.0
aF4903.0
aF6327.0
aF-198.0
aF5536.0
aF5917.0
aF-16.0
aF46.0
aF5042.0
aF7024.0
aF7158.0
aF-38.0
aF4.0
aF83.0
aF248.0
asS'dv400_l01_det_inc'
p130
(lp131
F53.0
aF49.0
aF68.0
aF61.0
aF29.0
aF75.0
aF83.0
aF71.0
aF77.0
aF64.0
aF77.0
aF30.0
aF83.0
aF47.0
aF86.0
aF90.0
aF52.0
aF69.0
aF29.0
aF83.0
aF81.0
asS'dv400_l1_non_lstar'
p132
(lp133
F0.98
aF0.5
aF0.61
asS'dv400_rvir075_non'
p134
I37
sS'dv400_imp1000_non_lstar'
p135
(lp136
F2.5e-05
aF0.088
aF0.11
aF0.2
aF0.51
aF0.98
aF0.036
aF0.037
aF0.056
aF0.074
aF0.034
aF0.1
aF0.15
aF0.043
aF0.088
aF0.5
aF0.5
aF1.1
aF0.037
aF0.077
aF0.23
aF0.11
aF0.099
aF0.5
aF1.0
aF0.037
aF0.034
aF0.17
aF0.2
aF3.1
aF0.38
aF0.45
aF0.46
aF0.17
aF0.61
aF0.034
aF0.1
aF0.043
aF0.14
asS'dv_100'
p137
(lp138
F-114.0
aF10.0
aF3638.0
aF3638.0
aF-809.0
aF-748.0
aF-18.0
aF1667.0
aF3817.0
aF3950.0
aF4296.0
aF4392.0
aF5646.0
aF5782.0
aF6615.0
aF7861.0
aF7924.0
aF-1065.0
aF-673.0
aF-530.0
aF-29.0
aF2175.0
aF2978.0
aF-9.0
aF-68.0
aF34.0
aF165.0
aF3052.0
aF5681.0
aF-13.0
aF39.0
aF982.0
aF1116.0
aF2195.0
aF7195.0
aF34.0
aF109.0
aF2678.0
aF3105.0
aF3363.0
aF3884.0
aF4764.0
aF4903.0
aF6327.0
aF-12.0
aF2371.0
aF-198.0
aF5536.0
aF5917.0
aF1435.0
aF4611.0
aF1435.0
aF4611.0
aF4611.0
aF15.0
aF173.0
aF-16.0
aF46.0
aF5042.0
aF7024.0
aF7158.0
aF-222.0
aF33.0
aF204.0
aF2097.0
aF5273.0
aF6675.0
aF-61.0
aF104.0
aF252.0
aF1196.0
aF2023.0
aF-1065.0
aF-14.0
aF2269.0
aF2654.0
aF3581.0
aF-38.0
aF4.0
aF83.0
aF248.0
asS'dv400_imp50_det'
p139
I7
sS'dv400_l0005_non_inc'
p140
(lp141
F49.0
aF12.0
aF0.0
aF58.0
aF49.0
aF64.0
aF34.0
aF74.0
aF19.0
aF65.0
aF72.0
aF58.0
aF90.0
asS'dv_rvir075'
p142
(lp143
F-1771.0
aF-1619.0
aF832.0
aF3914.0
aF4273.0
aF4384.0
aF19.0
aF374.0
aF496.0
aF5107.0
aF8222.0
aF9238.0
aF-397.0
aF41.0
aF-731.0
aF-164.0
aF18.0
aF2263.0
aF3897.0
aF6698.0
aF6820.0
aF-1026.0
aF5040.0
aF6163.0
aF6294.0
aF-379.0
aF42.0
aF2359.0
aF-826.0
aF-565.0
aF101.0
aF5508.0
aF5888.0
aF7582.0
aF7694.0
aF7777.0
aF-43.0
aF629.0
aF825.0
aF1032.0
aF7228.0
aF241.0
aF3759.0
aF6473.0
aF7196.0
aF-866.0
aF5760.0
aF8080.0
aF-25.0
aF36.0
aF766.0
aF2451.0
aF4601.0
aF4734.0
aF5080.0
aF5176.0
aF6430.0
aF6566.0
aF7399.0
aF8645.0
aF8708.0
aF-401.0
aF-18.0
aF3993.0
aF-1065.0
aF-673.0
aF-530.0
aF-29.0
aF2175.0
aF2978.0
aF-259.0
aF-29.0
aF5289.0
aF6988.0
aF4871.0
aF5781.0
aF8318.0
aF781.0
aF3443.0
aF-268.0
aF150.0
aF569.0
aF2946.0
aF-820.0
aF-178.0
aF3430.0
aF5578.0
aF3798.0
aF6592.0
aF689.0
aF4134.0
aF4362.0
aF7670.0
aF978.0
aF4234.0
aF4641.0
aF5644.0
aF6247.0
aF6402.0
aF6574.0
aF1094.0
aF4350.0
aF5067.0
aF5227.0
aF7918.0
aF-451.0
aF-159.0
aF-166.0
aF-45.0
aF12.0
aF2258.0
aF1125.0
aF-1022.0
aF1318.0
aF1428.0
aF6464.0
aF7026.0
aF335.0
aF574.0
aF4444.0
aF1501.0
aF2616.0
aF4764.0
aF7981.0
aF8450.0
aF9099.0
aF9235.0
aF-994.0
aF4740.0
aF5121.0
aF813.0
aF6547.0
aF6928.0
aF5898.0
aF6833.0
aF40.0
aF2129.0
aF2323.0
aF2656.0
aF-1365.0
aF-564.0
aF117.0
aF825.0
aF4284.0
aF6351.0
aF7229.0
aF-140.0
aF-9.0
aF89.0
aF175.0
aF964.0
aF1095.0
aF1193.0
aF1279.0
aF660.0
aF8249.0
aF7402.0
aF3897.0
aF4381.0
aF4494.0
aF298.0
aF-1025.0
aF-963.0
aF4033.0
aF6015.0
aF6149.0
aF-910.0
aF-830.0
aF4257.0
aF5747.0
aF5825.0
aF7694.0
aF185.0
aF376.0
aF2967.0
aF3969.0
aF4656.0
aF7971.0
aF-337.0
aF-146.0
aF2445.0
aF3447.0
aF4134.0
aF7449.0
aF466.0
aF6579.0
aF6754.0
aF305.0
aF3209.0
aF3919.0
aF4332.0
aF-27.0
aF4494.0
aF7504.0
aF7621.0
aF-12.0
aF3187.0
aF3304.0
aF3470.0
aF3583.0
aF3635.0
aF3689.0
aF-222.0
aF33.0
aF204.0
aF2097.0
aF5273.0
aF6675.0
aF-6.0
aF790.0
aF934.0
aF6758.0
aF7464.0
aF963.0
aF1248.0
aF2186.0
aF4207.0
aF4823.0
aF7201.0
aF530.0
aF926.0
aF2286.0
aF5076.0
aF5278.0
aF7234.0
aF18.0
aF863.0
aF4525.0
aF4626.0
aF4851.0
aF-745.0
aF-38.0
aF632.0
aF4438.0
asS'dv400_imp750_det_lstar'
p144
(lp145
F0.057
aF0.15
aF0.18
aF0.055
aF0.058
aF0.024
aF0.082
aF0.31
aF0.087
aF0.58
aF0.15
aF0.033
aF0.5
aF0.61
aF1.4
aF0.95
aF0.49
aF0.38
aF0.15
aF0.043
aF0.69
aF0.9
aF0.48
aF1.4
aF0.42
aF0.068
aF0.59
aF0.088
aF0.035
aF0.73
aF0.034
aF0.22
aF1.3
aF0.15
aF0.62
aF0.46
aF0.24
asS'dv400_l0001_non_inc'
p146
(lp147
F49.0
aF12.0
aF0.0
aF58.0
aF49.0
aF64.0
aF34.0
aF74.0
aF33.0
aF19.0
aF65.0
aF72.0
aF58.0
aF90.0
asS'dv400_imp500_non_inc'
p148
(lp149
F49.0
aF79.0
aF12.0
aF0.0
aF58.0
aF49.0
aF64.0
aF90.0
aF34.0
aF54.0
aF74.0
aF33.0
aF58.0
aF19.0
aF65.0
aF71.0
aF72.0
aF58.0
aF90.0
asS'dv400_imp500_det_inc'
p150
(lp151
F53.0
aF49.0
aF59.0
aF68.0
aF77.0
aF90.0
aF58.0
aF61.0
aF29.0
aF75.0
aF83.0
aF71.0
aF77.0
aF64.0
aF77.0
aF30.0
aF71.0
aF83.0
aF28.0
aF47.0
aF40.0
aF38.0
aF86.0
aF90.0
aF86.0
aF48.0
aF74.0
aF52.0
aF69.0
aF29.0
aF83.0
aF81.0
aF68.0
aF46.0
asS'dv400_l5_det'
p152
I13
sS'dv400_rvir1_non'
p153
I37
sS'dv400_l0001_det_inc'
p154
(lp155
F53.0
aF49.0
aF68.0
aF61.0
aF29.0
aF75.0
aF83.0
aF71.0
aF77.0
aF64.0
aF77.0
aF30.0
aF83.0
aF47.0
aF38.0
aF86.0
aF90.0
aF86.0
aF48.0
aF74.0
aF52.0
aF69.0
aF29.0
aF83.0
aF81.0
aF68.0
aF46.0
asS'dv400_imp300_non_inc'
p156
(lp157
F49.0
aF12.0
aF0.0
aF58.0
aF49.0
aF74.0
aF33.0
aF65.0
aF72.0
aF58.0
aF90.0
asS'dv400_l0005_non_lstar'
p158
(lp159
F2.5e-05
aF0.98
aF0.036
aF0.034
aF0.15
aF1.1
aF0.23
aF0.5
aF3.1
aF0.45
aF0.61
aF0.034
aF0.14
asS'dv400_imp100_non'
p160
I2
sS'dv400_imp50_non_inc'
p161
(lp162
F12.0
aF74.0
asS'dv400_rvir15_det'
p163
I22
sS'dv400_imp300_det_lstar'
p164
(lp165
F0.057
aF0.15
aF0.055
aF0.31
aF0.087
aF0.58
aF0.15
aF0.5
aF0.61
aF1.4
aF0.95
aF0.49
aF0.15
aF0.69
aF0.48
aF1.4
aF0.42
aF0.068
aF0.59
aF0.035
aF0.73
aF0.034
aF1.3
aF0.15
aF0.62
aF0.46
aF0.24
asS'dv400_l05_non'
p166
I5
sS'dv400_l1_det'
p167
I19
sS'dv400_imp1000_det_inc'
p168
(lp169
F53.0
aF49.0
aF59.0
aF59.0
aF68.0
aF77.0
aF90.0
aF58.0
aF61.0
aF29.0
aF75.0
aF83.0
aF0.0
aF71.0
aF77.0
aF64.0
aF58.0
aF77.0
aF30.0
aF71.0
aF83.0
aF28.0
aF47.0
aF40.0
aF77.0
aF38.0
aF86.0
aF90.0
aF90.0
aF86.0
aF48.0
aF82.0
aF74.0
aF52.0
aF69.0
aF58.0
aF29.0
aF83.0
aF81.0
aF68.0
aF46.0
asS'dv400_l75_det_lstar'
p170
(lp171
F0.5
aF0.95
aF0.49
aF0.69
aF1.4
aF0.42
aF1.3
aF0.62
asS'dv400_rvir05_det'
p172
I33
sS'dv400_imp100_non_inc'
p173
(lp174
F12.0
aF74.0
asS'dv_750'
p175
(lp176
F-114.0
aF10.0
aF3638.0
aF3638.0
aF-1771.0
aF-1619.0
aF832.0
aF3914.0
aF4273.0
aF4384.0
aF19.0
aF374.0
aF496.0
aF5107.0
aF8222.0
aF9238.0
aF-397.0
aF41.0
aF-1026.0
aF5040.0
aF6163.0
aF6294.0
aF-379.0
aF42.0
aF2359.0
aF-826.0
aF-565.0
aF101.0
aF5508.0
aF5888.0
aF7582.0
aF7694.0
aF7777.0
aF-43.0
aF629.0
aF825.0
aF1032.0
aF7228.0
aF241.0
aF3759.0
aF6473.0
aF7196.0
aF-866.0
aF5760.0
aF-25.0
aF36.0
aF766.0
aF2451.0
aF4601.0
aF4734.0
aF5080.0
aF5176.0
aF6430.0
aF6566.0
aF7399.0
aF8645.0
aF8708.0
aF-809.0
aF-748.0
aF-18.0
aF1667.0
aF3817.0
aF3950.0
aF4296.0
aF4392.0
aF5646.0
aF5782.0
aF6615.0
aF7861.0
aF7924.0
aF-401.0
aF-18.0
aF3993.0
aF-1065.0
aF-673.0
aF-530.0
aF-29.0
aF2175.0
aF2978.0
aF-259.0
aF-29.0
aF5289.0
aF6988.0
aF-9.0
aF-68.0
aF34.0
aF165.0
aF3052.0
aF5681.0
aF-13.0
aF39.0
aF982.0
aF1116.0
aF2195.0
aF7195.0
aF4871.0
aF5781.0
aF8318.0
aF-268.0
aF150.0
aF569.0
aF2946.0
aF3798.0
aF6592.0
aF34.0
aF109.0
aF2678.0
aF3105.0
aF3363.0
aF3884.0
aF4764.0
aF4903.0
aF6327.0
aF689.0
aF4134.0
aF4362.0
aF7670.0
aF978.0
aF4234.0
aF4641.0
aF1094.0
aF4350.0
aF5067.0
aF5227.0
aF7918.0
aF-451.0
aF-12.0
aF2371.0
aF-159.0
aF-166.0
aF-45.0
aF12.0
aF2258.0
aF1125.0
aF6464.0
aF7026.0
aF335.0
aF574.0
aF4444.0
aF1501.0
aF2616.0
aF4764.0
aF7981.0
aF8450.0
aF9099.0
aF9235.0
aF-994.0
aF4740.0
aF5121.0
aF-198.0
aF5536.0
aF5917.0
aF5898.0
aF6833.0
aF1435.0
aF4611.0
aF1435.0
aF4611.0
aF4611.0
aF40.0
aF2129.0
aF2323.0
aF2656.0
aF-140.0
aF-9.0
aF89.0
aF175.0
aF964.0
aF1095.0
aF1193.0
aF1279.0
aF15.0
aF173.0
aF660.0
aF8249.0
aF7402.0
aF3897.0
aF4381.0
aF4494.0
aF-16.0
aF46.0
aF5042.0
aF7024.0
aF7158.0
aF-910.0
aF-830.0
aF4257.0
aF5747.0
aF5825.0
aF7694.0
aF185.0
aF376.0
aF2967.0
aF3969.0
aF4656.0
aF7971.0
aF-337.0
aF-146.0
aF2445.0
aF3447.0
aF4134.0
aF7449.0
aF466.0
aF6579.0
aF6754.0
aF305.0
aF3209.0
aF3919.0
aF4332.0
aF-27.0
aF4494.0
aF7504.0
aF7621.0
aF-12.0
aF3187.0
aF3304.0
aF3470.0
aF3583.0
aF3635.0
aF3689.0
aF-222.0
aF33.0
aF204.0
aF2097.0
aF5273.0
aF6675.0
aF-6.0
aF790.0
aF934.0
aF6758.0
aF7464.0
aF-61.0
aF104.0
aF252.0
aF1196.0
aF2023.0
aF-1065.0
aF-14.0
aF2269.0
aF2654.0
aF3581.0
aF963.0
aF1248.0
aF2186.0
aF4207.0
aF4823.0
aF7201.0
aF-38.0
aF4.0
aF83.0
aF248.0
aF530.0
aF926.0
aF2286.0
aF5076.0
aF5278.0
aF7234.0
aF18.0
aF863.0
aF4525.0
aF4626.0
aF4851.0
aF-745.0
aF-38.0
aF632.0
aF4438.0
asS'dv400_l001_non'
p177
I12
sS'dv400_l5_det_inc'
p178
(lp179
F53.0
aF29.0
aF71.0
aF77.0
aF77.0
aF30.0
aF47.0
aF86.0
aF90.0
aF69.0
aF29.0
aF83.0
aF81.0
asS'dv400_imp750_det'
p180
I37
sS'dv400_rvir25_det'
p181
I17
sS'dv400_l0001_non'
p182
I14
sS'dv400_imp25_det'
p183
I5
sS'dv_l1'
p184
(lp185
F-114.0
aF10.0
aF3638.0
aF3638.0
aF19.0
aF374.0
aF496.0
aF5107.0
aF8222.0
aF9238.0
aF-379.0
aF42.0
aF2359.0
aF-25.0
aF36.0
aF766.0
aF2451.0
aF4601.0
aF4734.0
aF5080.0
aF5176.0
aF6430.0
aF6566.0
aF7399.0
aF8645.0
aF8708.0
aF-809.0
aF-748.0
aF-18.0
aF1667.0
aF3817.0
aF3950.0
aF4296.0
aF4392.0
aF5646.0
aF5782.0
aF6615.0
aF7861.0
aF7924.0
aF-401.0
aF-18.0
aF3993.0
aF-1065.0
aF-673.0
aF-530.0
aF-29.0
aF2175.0
aF2978.0
aF-9.0
aF-68.0
aF34.0
aF165.0
aF3052.0
aF5681.0
aF-13.0
aF39.0
aF982.0
aF1116.0
aF2195.0
aF7195.0
aF-268.0
aF150.0
aF569.0
aF2946.0
aF34.0
aF109.0
aF2678.0
aF3105.0
aF3363.0
aF3884.0
aF4764.0
aF4903.0
aF6327.0
aF-12.0
aF2371.0
aF-198.0
aF5536.0
aF5917.0
aF1435.0
aF4611.0
aF1435.0
aF4611.0
aF4611.0
aF15.0
aF173.0
aF-16.0
aF46.0
aF5042.0
aF7024.0
aF7158.0
aF-222.0
aF33.0
aF204.0
aF2097.0
aF5273.0
aF6675.0
aF-61.0
aF104.0
aF252.0
aF1196.0
aF2023.0
aF-1065.0
aF-14.0
aF2269.0
aF2654.0
aF3581.0
aF-38.0
aF4.0
aF83.0
aF248.0
asS'dv400_imp400_non_inc'
p186
(lp187
F49.0
aF79.0
aF12.0
aF0.0
aF58.0
aF49.0
aF64.0
aF90.0
aF34.0
aF74.0
aF33.0
aF58.0
aF19.0
aF65.0
aF71.0
aF72.0
aF58.0
aF90.0
asS'dv_l5'
p188
(lp189
F-114.0
aF10.0
aF3638.0
aF3638.0
aF-809.0
aF-748.0
aF-18.0
aF1667.0
aF3817.0
aF3950.0
aF4296.0
aF4392.0
aF5646.0
aF5782.0
aF6615.0
aF7861.0
aF7924.0
aF-9.0
aF-68.0
aF34.0
aF165.0
aF3052.0
aF5681.0
aF-13.0
aF39.0
aF982.0
aF1116.0
aF2195.0
aF7195.0
aF34.0
aF109.0
aF2678.0
aF3105.0
aF3363.0
aF3884.0
aF4764.0
aF4903.0
aF6327.0
aF-12.0
aF2371.0
aF-198.0
aF5536.0
aF5917.0
aF1435.0
aF4611.0
aF1435.0
aF4611.0
aF4611.0
aF15.0
aF173.0
aF-16.0
aF46.0
aF5042.0
aF7024.0
aF7158.0
aF-222.0
aF33.0
aF204.0
aF2097.0
aF5273.0
aF6675.0
aF-61.0
aF104.0
aF252.0
aF1196.0
aF2023.0
aF-1065.0
aF-14.0
aF2269.0
aF2654.0
aF3581.0
aF-38.0
aF4.0
aF83.0
aF248.0
asS'dv400_imp750_non_inc'
p190
(lp191
F49.0
aF82.0
aF66.0
aF79.0
aF12.0
aF0.0
aF71.0
aF77.0
aF58.0
aF49.0
aF28.0
aF74.0
aF90.0
aF64.0
aF0.0
aF90.0
aF34.0
aF54.0
aF74.0
aF0.0
aF33.0
aF58.0
aF70.0
aF19.0
aF65.0
aF71.0
aF72.0
aF58.0
aF58.0
aF28.0
aF90.0
asS'dv400_l5_non_lstar'
p192
(lp193
F0.98
aF0.5
asS'dv400_imp500_non'
p194
I19
sS'dv400_imp750_non'
p195
I31
sS'dv_1000'
p196
(lp197
F-114.0
aF10.0
aF3638.0
aF3638.0
aF-1771.0
aF-1619.0
aF832.0
aF3914.0
aF4273.0
aF4384.0
aF19.0
aF374.0
aF496.0
aF5107.0
aF8222.0
aF9238.0
aF-397.0
aF41.0
aF-731.0
aF-164.0
aF18.0
aF2263.0
aF3897.0
aF6698.0
aF6820.0
aF-1026.0
aF5040.0
aF6163.0
aF6294.0
aF-379.0
aF42.0
aF2359.0
aF-826.0
aF-565.0
aF101.0
aF5508.0
aF5888.0
aF7582.0
aF7694.0
aF7777.0
aF-43.0
aF629.0
aF825.0
aF1032.0
aF7228.0
aF241.0
aF3759.0
aF6473.0
aF7196.0
aF-866.0
aF5760.0
aF8080.0
aF-25.0
aF36.0
aF766.0
aF2451.0
aF4601.0
aF4734.0
aF5080.0
aF5176.0
aF6430.0
aF6566.0
aF7399.0
aF8645.0
aF8708.0
aF-809.0
aF-748.0
aF-18.0
aF1667.0
aF3817.0
aF3950.0
aF4296.0
aF4392.0
aF5646.0
aF5782.0
aF6615.0
aF7861.0
aF7924.0
aF-401.0
aF-18.0
aF3993.0
aF-1065.0
aF-673.0
aF-530.0
aF-29.0
aF2175.0
aF2978.0
aF-259.0
aF-29.0
aF5289.0
aF6988.0
aF-9.0
aF-68.0
aF34.0
aF165.0
aF3052.0
aF5681.0
aF-13.0
aF39.0
aF982.0
aF1116.0
aF2195.0
aF7195.0
aF4871.0
aF5781.0
aF8318.0
aF781.0
aF3443.0
aF-268.0
aF150.0
aF569.0
aF2946.0
aF-820.0
aF-178.0
aF3430.0
aF5578.0
aF3798.0
aF6592.0
aF34.0
aF109.0
aF2678.0
aF3105.0
aF3363.0
aF3884.0
aF4764.0
aF4903.0
aF6327.0
aF689.0
aF4134.0
aF4362.0
aF7670.0
aF978.0
aF4234.0
aF4641.0
aF5644.0
aF6247.0
aF6402.0
aF6574.0
aF1094.0
aF4350.0
aF5067.0
aF5227.0
aF7918.0
aF-451.0
aF-12.0
aF2371.0
aF-159.0
aF-166.0
aF-45.0
aF12.0
aF2258.0
aF1125.0
aF-1022.0
aF1318.0
aF1428.0
aF6464.0
aF7026.0
aF335.0
aF574.0
aF4444.0
aF1501.0
aF2616.0
aF4764.0
aF7981.0
aF8450.0
aF9099.0
aF9235.0
aF-994.0
aF4740.0
aF5121.0
aF-198.0
aF5536.0
aF5917.0
aF813.0
aF6547.0
aF6928.0
aF5898.0
aF6833.0
aF1435.0
aF4611.0
aF1435.0
aF4611.0
aF4611.0
aF40.0
aF2129.0
aF2323.0
aF2656.0
aF-1365.0
aF-564.0
aF117.0
aF825.0
aF4284.0
aF6351.0
aF7229.0
aF-140.0
aF-9.0
aF89.0
aF175.0
aF964.0
aF1095.0
aF1193.0
aF1279.0
aF15.0
aF173.0
aF660.0
aF8249.0
aF7402.0
aF3897.0
aF4381.0
aF4494.0
aF298.0
aF-1025.0
aF-963.0
aF4033.0
aF6015.0
aF6149.0
aF-16.0
aF46.0
aF5042.0
aF7024.0
aF7158.0
aF-910.0
aF-830.0
aF4257.0
aF5747.0
aF5825.0
aF7694.0
aF185.0
aF376.0
aF2967.0
aF3969.0
aF4656.0
aF7971.0
aF-337.0
aF-146.0
aF2445.0
aF3447.0
aF4134.0
aF7449.0
aF466.0
aF6579.0
aF6754.0
aF305.0
aF3209.0
aF3919.0
aF4332.0
aF-27.0
aF4494.0
aF7504.0
aF7621.0
aF-12.0
aF3187.0
aF3304.0
aF3470.0
aF3583.0
aF3635.0
aF3689.0
aF-222.0
aF33.0
aF204.0
aF2097.0
aF5273.0
aF6675.0
aF-6.0
aF790.0
aF934.0
aF6758.0
aF7464.0
aF-61.0
aF104.0
aF252.0
aF1196.0
aF2023.0
aF-1065.0
aF-14.0
aF2269.0
aF2654.0
aF3581.0
aF963.0
aF1248.0
aF2186.0
aF4207.0
aF4823.0
aF7201.0
aF-38.0
aF4.0
aF83.0
aF248.0
aF530.0
aF926.0
aF2286.0
aF5076.0
aF5278.0
aF7234.0
aF18.0
aF863.0
aF4525.0
aF4626.0
aF4851.0
aF-745.0
aF-38.0
aF632.0
aF4438.0
asS'dv_l0005'
p198
(lp199
F-114.0
aF10.0
aF3638.0
aF3638.0
aF-1771.0
aF-1619.0
aF832.0
aF19.0
aF374.0
aF496.0
aF5107.0
aF8222.0
aF9238.0
aF-379.0
aF42.0
aF2359.0
aF-25.0
aF36.0
aF766.0
aF2451.0
aF4601.0
aF4734.0
aF5080.0
aF5176.0
aF6430.0
aF6566.0
aF7399.0
aF8645.0
aF8708.0
aF-809.0
aF-748.0
aF-18.0
aF1667.0
aF3817.0
aF3950.0
aF4296.0
aF4392.0
aF5646.0
aF5782.0
aF6615.0
aF7861.0
aF7924.0
aF-401.0
aF-18.0
aF3993.0
aF-1065.0
aF-673.0
aF-530.0
aF-29.0
aF2175.0
aF2978.0
aF-9.0
aF-68.0
aF34.0
aF165.0
aF3052.0
aF5681.0
aF-13.0
aF39.0
aF982.0
aF1116.0
aF2195.0
aF7195.0
aF4871.0
aF5781.0
aF8318.0
aF-268.0
aF150.0
aF569.0
aF2946.0
aF34.0
aF109.0
aF2678.0
aF3105.0
aF3363.0
aF3884.0
aF4764.0
aF4903.0
aF6327.0
aF978.0
aF4234.0
aF4641.0
aF-12.0
aF2371.0
aF-166.0
aF-45.0
aF12.0
aF2258.0
aF-994.0
aF4740.0
aF5121.0
aF-198.0
aF5536.0
aF5917.0
aF1435.0
aF4611.0
aF1435.0
aF4611.0
aF4611.0
aF-140.0
aF-9.0
aF89.0
aF175.0
aF15.0
aF173.0
aF3897.0
aF4381.0
aF4494.0
aF-16.0
aF46.0
aF5042.0
aF7024.0
aF7158.0
aF-910.0
aF-830.0
aF4257.0
aF5747.0
aF5825.0
aF7694.0
aF-337.0
aF-146.0
aF2445.0
aF3447.0
aF4134.0
aF7449.0
aF-12.0
aF3187.0
aF3304.0
aF3470.0
aF3583.0
aF3635.0
aF3689.0
aF-222.0
aF33.0
aF204.0
aF2097.0
aF5273.0
aF6675.0
aF-61.0
aF104.0
aF252.0
aF1196.0
aF2023.0
aF-1065.0
aF-14.0
aF2269.0
aF2654.0
aF3581.0
aF963.0
aF1248.0
aF2186.0
aF4207.0
aF4823.0
aF-38.0
aF4.0
aF83.0
aF248.0
aF-745.0
aF-38.0
aF632.0
aF4438.0
asS'dv_l0001'
p200
(lp201
F-114.0
aF10.0
aF3638.0
aF3638.0
aF-1771.0
aF-1619.0
aF832.0
aF19.0
aF374.0
aF496.0
aF5107.0
aF8222.0
aF9238.0
aF-379.0
aF42.0
aF2359.0
aF-25.0
aF36.0
aF766.0
aF2451.0
aF4601.0
aF4734.0
aF5080.0
aF5176.0
aF6430.0
aF6566.0
aF7399.0
aF8645.0
aF8708.0
aF-809.0
aF-748.0
aF-18.0
aF1667.0
aF3817.0
aF3950.0
aF4296.0
aF4392.0
aF5646.0
aF5782.0
aF6615.0
aF7861.0
aF7924.0
aF-401.0
aF-18.0
aF3993.0
aF-1065.0
aF-673.0
aF-530.0
aF-29.0
aF2175.0
aF2978.0
aF-9.0
aF-68.0
aF34.0
aF165.0
aF3052.0
aF5681.0
aF-13.0
aF39.0
aF982.0
aF1116.0
aF2195.0
aF7195.0
aF4871.0
aF5781.0
aF8318.0
aF-268.0
aF150.0
aF569.0
aF2946.0
aF34.0
aF109.0
aF2678.0
aF3105.0
aF3363.0
aF3884.0
aF4764.0
aF4903.0
aF6327.0
aF978.0
aF4234.0
aF4641.0
aF-12.0
aF2371.0
aF-166.0
aF-45.0
aF12.0
aF2258.0
aF-994.0
aF4740.0
aF5121.0
aF-198.0
aF5536.0
aF5917.0
aF1435.0
aF4611.0
aF1435.0
aF4611.0
aF4611.0
aF-140.0
aF-9.0
aF89.0
aF175.0
aF964.0
aF1095.0
aF1193.0
aF1279.0
aF15.0
aF173.0
aF3897.0
aF4381.0
aF4494.0
aF-16.0
aF46.0
aF5042.0
aF7024.0
aF7158.0
aF-910.0
aF-830.0
aF4257.0
aF5747.0
aF5825.0
aF7694.0
aF185.0
aF376.0
aF2967.0
aF3969.0
aF4656.0
aF7971.0
aF-337.0
aF-146.0
aF2445.0
aF3447.0
aF4134.0
aF7449.0
aF-27.0
aF4494.0
aF7504.0
aF7621.0
aF-12.0
aF3187.0
aF3304.0
aF3470.0
aF3583.0
aF3635.0
aF3689.0
aF-222.0
aF33.0
aF204.0
aF2097.0
aF5273.0
aF6675.0
aF-61.0
aF104.0
aF252.0
aF1196.0
aF2023.0
aF-1065.0
aF-14.0
aF2269.0
aF2654.0
aF3581.0
aF963.0
aF1248.0
aF2186.0
aF4207.0
aF4823.0
aF-38.0
aF4.0
aF83.0
aF248.0
aF18.0
aF863.0
aF4525.0
aF4626.0
aF4851.0
aF-745.0
aF-38.0
aF632.0
aF4438.0
asS'dv400_imp400_det'
p202
I29
sS'dv400_imp1000_det_lstar'
p203
(lp204
F0.057
aF0.15
aF0.18
aF2.4
aF0.055
aF0.058
aF0.024
aF0.082
aF0.31
aF0.087
aF0.58
aF0.15
aF0.033
aF0.5
aF0.61
aF1.4
aF0.36
aF0.95
aF0.49
aF0.38
aF0.15
aF0.043
aF0.69
aF0.9
aF0.27
aF0.48
aF1.4
aF0.18
aF0.42
aF0.068
aF0.59
aF0.088
aF0.035
aF0.73
aF0.034
aF0.22
aF1.3
aF0.15
aF0.62
aF0.46
aF0.24
asS'dv400_l005_non_inc'
p205
(lp206
F49.0
aF12.0
aF58.0
aF49.0
aF74.0
aF19.0
aF65.0
aF72.0
aF58.0
aF90.0
asS'dv400_imp750_non_lstar'
p207
(lp208
F2.5e-05
aF0.088
aF0.11
aF0.2
aF0.98
aF0.036
aF0.056
aF0.074
aF0.034
aF0.15
aF0.043
aF0.088
aF0.5
aF1.1
aF0.037
aF0.077
aF0.23
aF0.099
aF0.5
aF0.037
aF0.034
aF0.17
aF0.2
aF3.1
aF0.45
aF0.46
aF0.61
aF0.034
aF0.1
aF0.043
aF0.14
asS'dv400_l1_non_inc'
p209
(lp210
F12.0
aF74.0
aF72.0
asS'dv400_l05_det_inc'
p211
(lp212
F53.0
aF49.0
aF68.0
aF61.0
aF29.0
aF75.0
aF83.0
aF71.0
aF77.0
aF64.0
aF77.0
aF30.0
aF83.0
aF47.0
aF86.0
aF90.0
aF69.0
aF29.0
aF83.0
aF81.0
asS'dv400_l005_det_inc'
p213
(lp214
F53.0
aF49.0
aF68.0
aF61.0
aF29.0
aF75.0
aF83.0
aF71.0
aF77.0
aF64.0
aF77.0
aF30.0
aF83.0
aF47.0
aF38.0
aF86.0
aF90.0
aF48.0
aF52.0
aF69.0
aF29.0
aF83.0
aF81.0
asS'dv_rvir025'
p215
(lp216
F-114.0
aF10.0
aF3638.0
aF3638.0
aF-1771.0
aF-1619.0
aF832.0
aF3914.0
aF4273.0
aF4384.0
aF19.0
aF374.0
aF496.0
aF5107.0
aF8222.0
aF9238.0
aF-397.0
aF41.0
aF-731.0
aF-164.0
aF18.0
aF2263.0
aF3897.0
aF6698.0
aF6820.0
aF-1026.0
aF5040.0
aF6163.0
aF6294.0
aF-379.0
aF42.0
aF2359.0
aF-826.0
aF-565.0
aF101.0
aF5508.0
aF5888.0
aF7582.0
aF7694.0
aF7777.0
aF-43.0
aF629.0
aF825.0
aF1032.0
aF7228.0
aF241.0
aF3759.0
aF6473.0
aF7196.0
aF-866.0
aF5760.0
aF8080.0
aF-25.0
aF36.0
aF766.0
aF2451.0
aF4601.0
aF4734.0
aF5080.0
aF5176.0
aF6430.0
aF6566.0
aF7399.0
aF8645.0
aF8708.0
aF-809.0
aF-748.0
aF-18.0
aF1667.0
aF3817.0
aF3950.0
aF4296.0
aF4392.0
aF5646.0
aF5782.0
aF6615.0
aF7861.0
aF7924.0
aF-401.0
aF-18.0
aF3993.0
aF-1065.0
aF-673.0
aF-530.0
aF-29.0
aF2175.0
aF2978.0
aF-259.0
aF-29.0
aF5289.0
aF6988.0
aF5681.0
aF-13.0
aF39.0
aF982.0
aF1116.0
aF2195.0
aF7195.0
aF4871.0
aF5781.0
aF8318.0
aF781.0
aF3443.0
aF-268.0
aF150.0
aF569.0
aF2946.0
aF-820.0
aF-178.0
aF3430.0
aF5578.0
aF3798.0
aF6592.0
aF689.0
aF4134.0
aF4362.0
aF7670.0
aF978.0
aF4234.0
aF4641.0
aF5644.0
aF6247.0
aF6402.0
aF6574.0
aF1094.0
aF4350.0
aF5067.0
aF5227.0
aF7918.0
aF-451.0
aF-12.0
aF2371.0
aF-159.0
aF-166.0
aF-45.0
aF12.0
aF2258.0
aF1125.0
aF-1022.0
aF1318.0
aF1428.0
aF6464.0
aF7026.0
aF335.0
aF574.0
aF4444.0
aF1501.0
aF2616.0
aF4764.0
aF7981.0
aF8450.0
aF9099.0
aF9235.0
aF-994.0
aF4740.0
aF5121.0
aF813.0
aF6547.0
aF6928.0
aF5898.0
aF6833.0
aF1435.0
aF4611.0
aF1435.0
aF4611.0
aF4611.0
aF40.0
aF2129.0
aF2323.0
aF2656.0
aF-1365.0
aF-564.0
aF117.0
aF825.0
aF4284.0
aF6351.0
aF7229.0
aF-140.0
aF-9.0
aF89.0
aF175.0
aF964.0
aF1095.0
aF1193.0
aF1279.0
aF15.0
aF173.0
aF660.0
aF8249.0
aF7402.0
aF3897.0
aF4381.0
aF4494.0
aF298.0
aF-1025.0
aF-963.0
aF4033.0
aF6015.0
aF6149.0
aF-910.0
aF-830.0
aF4257.0
aF5747.0
aF5825.0
aF7694.0
aF185.0
aF376.0
aF2967.0
aF3969.0
aF4656.0
aF7971.0
aF-337.0
aF-146.0
aF2445.0
aF3447.0
aF4134.0
aF7449.0
aF466.0
aF6579.0
aF6754.0
aF305.0
aF3209.0
aF3919.0
aF4332.0
aF-27.0
aF4494.0
aF7504.0
aF7621.0
aF-12.0
aF3187.0
aF3304.0
aF3470.0
aF3583.0
aF3635.0
aF3689.0
aF-222.0
aF33.0
aF204.0
aF2097.0
aF5273.0
aF6675.0
aF-6.0
aF790.0
aF934.0
aF6758.0
aF7464.0
aF-1065.0
aF-14.0
aF2269.0
aF2654.0
aF3581.0
aF963.0
aF1248.0
aF2186.0
aF4207.0
aF4823.0
aF7201.0
aF530.0
aF926.0
aF2286.0
aF5076.0
aF5278.0
aF7234.0
aF18.0
aF863.0
aF4525.0
aF4626.0
aF4851.0
aF-745.0
aF-38.0
aF632.0
aF4438.0
asS'dv400_l001_det'
p217
I24
sS'dv_200'
p218
(lp219
F-114.0
aF10.0
aF3638.0
aF3638.0
aF19.0
aF374.0
aF496.0
aF5107.0
aF8222.0
aF9238.0
aF-379.0
aF42.0
aF2359.0
aF-25.0
aF36.0
aF766.0
aF2451.0
aF4601.0
aF4734.0
aF5080.0
aF5176.0
aF6430.0
aF6566.0
aF7399.0
aF8645.0
aF8708.0
aF-809.0
aF-748.0
aF-18.0
aF1667.0
aF3817.0
aF3950.0
aF4296.0
aF4392.0
aF5646.0
aF5782.0
aF6615.0
aF7861.0
aF7924.0
aF-401.0
aF-18.0
aF3993.0
aF-1065.0
aF-673.0
aF-530.0
aF-29.0
aF2175.0
aF2978.0
aF-9.0
aF-68.0
aF34.0
aF165.0
aF3052.0
aF5681.0
aF-13.0
aF39.0
aF982.0
aF1116.0
aF2195.0
aF7195.0
aF34.0
aF109.0
aF2678.0
aF3105.0
aF3363.0
aF3884.0
aF4764.0
aF4903.0
aF6327.0
aF978.0
aF4234.0
aF4641.0
aF-12.0
aF2371.0
aF-166.0
aF-45.0
aF12.0
aF2258.0
aF-198.0
aF5536.0
aF5917.0
aF1435.0
aF4611.0
aF1435.0
aF4611.0
aF4611.0
aF-140.0
aF-9.0
aF89.0
aF175.0
aF15.0
aF173.0
aF-16.0
aF46.0
aF5042.0
aF7024.0
aF7158.0
aF-910.0
aF-830.0
aF4257.0
aF5747.0
aF5825.0
aF7694.0
aF-222.0
aF33.0
aF204.0
aF2097.0
aF5273.0
aF6675.0
aF-61.0
aF104.0
aF252.0
aF1196.0
aF2023.0
aF-1065.0
aF-14.0
aF2269.0
aF2654.0
aF3581.0
aF-38.0
aF4.0
aF83.0
aF248.0
aF-745.0
aF-38.0
aF632.0
asS'dv_l01'
p220
(lp221
F-114.0
aF10.0
aF3638.0
aF3638.0
aF-1771.0
aF-1619.0
aF832.0
aF19.0
aF374.0
aF496.0
aF5107.0
aF8222.0
aF9238.0
aF-379.0
aF42.0
aF2359.0
aF-25.0
aF36.0
aF766.0
aF2451.0
aF4601.0
aF4734.0
aF5080.0
aF5176.0
aF6430.0
aF6566.0
aF7399.0
aF8645.0
aF8708.0
aF-809.0
aF-748.0
aF-18.0
aF1667.0
aF3817.0
aF3950.0
aF4296.0
aF4392.0
aF5646.0
aF5782.0
aF6615.0
aF7861.0
aF7924.0
aF-401.0
aF-18.0
aF3993.0
aF-1065.0
aF-673.0
aF-530.0
aF-29.0
aF2175.0
aF2978.0
aF-9.0
aF-68.0
aF34.0
aF165.0
aF3052.0
aF5681.0
aF-13.0
aF39.0
aF982.0
aF1116.0
aF2195.0
aF7195.0
aF-268.0
aF150.0
aF569.0
aF2946.0
aF34.0
aF109.0
aF2678.0
aF3105.0
aF3363.0
aF3884.0
aF4764.0
aF4903.0
aF6327.0
aF978.0
aF4234.0
aF4641.0
aF-12.0
aF2371.0
aF-166.0
aF-45.0
aF12.0
aF2258.0
aF-198.0
aF5536.0
aF5917.0
aF1435.0
aF4611.0
aF1435.0
aF4611.0
aF4611.0
aF15.0
aF173.0
aF-16.0
aF46.0
aF5042.0
aF7024.0
aF7158.0
aF-910.0
aF-830.0
aF4257.0
aF5747.0
aF5825.0
aF7694.0
aF-12.0
aF3187.0
aF3304.0
aF3470.0
aF3583.0
aF3635.0
aF3689.0
aF-222.0
aF33.0
aF204.0
aF2097.0
aF5273.0
aF6675.0
aF-61.0
aF104.0
aF252.0
aF1196.0
aF2023.0
aF-1065.0
aF-14.0
aF2269.0
aF2654.0
aF3581.0
aF963.0
aF1248.0
aF2186.0
aF4207.0
aF4823.0
aF-38.0
aF4.0
aF83.0
aF248.0
aF4438.0
asS'dv400_rvir2_non'
p222
I30
sS'dv_l05'
p223
(lp224
F-114.0
aF10.0
aF3638.0
aF3638.0
aF19.0
aF374.0
aF496.0
aF5107.0
aF8222.0
aF9238.0
aF-379.0
aF42.0
aF2359.0
aF-25.0
aF36.0
aF766.0
aF2451.0
aF4601.0
aF4734.0
aF5080.0
aF5176.0
aF6430.0
aF6566.0
aF7399.0
aF8645.0
aF8708.0
aF-809.0
aF-748.0
aF-18.0
aF1667.0
aF3817.0
aF3950.0
aF4296.0
aF4392.0
aF5646.0
aF5782.0
aF6615.0
aF7861.0
aF7924.0
aF-401.0
aF-18.0
aF3993.0
aF-1065.0
aF-673.0
aF-530.0
aF-29.0
aF2175.0
aF2978.0
aF-9.0
aF-68.0
aF34.0
aF165.0
aF3052.0
aF5681.0
aF-13.0
aF39.0
aF982.0
aF1116.0
aF2195.0
aF7195.0
aF-268.0
aF150.0
aF569.0
aF2946.0
aF34.0
aF109.0
aF2678.0
aF3105.0
aF3363.0
aF3884.0
aF4764.0
aF4903.0
aF6327.0
aF978.0
aF4234.0
aF4641.0
aF-12.0
aF2371.0
aF-166.0
aF-45.0
aF12.0
aF2258.0
aF-198.0
aF5536.0
aF5917.0
aF1435.0
aF4611.0
aF1435.0
aF4611.0
aF4611.0
aF15.0
aF173.0
aF-16.0
aF46.0
aF5042.0
aF7024.0
aF7158.0
aF-222.0
aF33.0
aF204.0
aF2097.0
aF5273.0
aF6675.0
aF-61.0
aF104.0
aF252.0
aF1196.0
aF2023.0
aF-1065.0
aF-14.0
aF2269.0
aF2654.0
aF3581.0
aF-38.0
aF4.0
aF83.0
aF248.0
aF4438.0
asS'dv400_l001_det_inc'
p225
(lp226
F53.0
aF49.0
aF68.0
aF61.0
aF29.0
aF75.0
aF83.0
aF71.0
aF77.0
aF64.0
aF77.0
aF30.0
aF83.0
aF47.0
aF38.0
aF86.0
aF90.0
aF48.0
aF52.0
aF69.0
aF29.0
aF83.0
aF81.0
aF46.0
asS'dv400_imp25_det_lstar'
p227
(lp228
F0.5
aF0.95
aF0.69
aF0.42
aF0.62
asS'dv400_l0005_det'
p229
I24
sS'dv_rvir05'
p230
(lp231
F-114.0
aF10.0
aF3638.0
aF3638.0
aF-1771.0
aF-1619.0
aF832.0
aF3914.0
aF4273.0
aF4384.0
aF19.0
aF374.0
aF496.0
aF5107.0
aF8222.0
aF9238.0
aF-397.0
aF41.0
aF-731.0
aF-164.0
aF18.0
aF2263.0
aF3897.0
aF6698.0
aF6820.0
aF-1026.0
aF5040.0
aF6163.0
aF6294.0
aF-379.0
aF42.0
aF2359.0
aF-826.0
aF-565.0
aF101.0
aF5508.0
aF5888.0
aF7582.0
aF7694.0
aF7777.0
aF-43.0
aF629.0
aF825.0
aF1032.0
aF7228.0
aF241.0
aF3759.0
aF6473.0
aF7196.0
aF-866.0
aF5760.0
aF8080.0
aF-25.0
aF36.0
aF766.0
aF2451.0
aF4601.0
aF4734.0
aF5080.0
aF5176.0
aF6430.0
aF6566.0
aF7399.0
aF8645.0
aF8708.0
aF-809.0
aF-748.0
aF-18.0
aF1667.0
aF3817.0
aF3950.0
aF4296.0
aF4392.0
aF5646.0
aF5782.0
aF6615.0
aF7861.0
aF7924.0
aF-401.0
aF-18.0
aF3993.0
aF-1065.0
aF-673.0
aF-530.0
aF-29.0
aF2175.0
aF2978.0
aF-259.0
aF-29.0
aF5289.0
aF6988.0
aF-13.0
aF39.0
aF982.0
aF1116.0
aF2195.0
aF7195.0
aF4871.0
aF5781.0
aF8318.0
aF781.0
aF3443.0
aF-268.0
aF150.0
aF569.0
aF2946.0
aF-820.0
aF-178.0
aF3430.0
aF5578.0
aF3798.0
aF6592.0
aF689.0
aF4134.0
aF4362.0
aF7670.0
aF978.0
aF4234.0
aF4641.0
aF5644.0
aF6247.0
aF6402.0
aF6574.0
aF1094.0
aF4350.0
aF5067.0
aF5227.0
aF7918.0
aF-451.0
aF-159.0
aF-166.0
aF-45.0
aF12.0
aF2258.0
aF1125.0
aF-1022.0
aF1318.0
aF1428.0
aF6464.0
aF7026.0
aF335.0
aF574.0
aF4444.0
aF1501.0
aF2616.0
aF4764.0
aF7981.0
aF8450.0
aF9099.0
aF9235.0
aF-994.0
aF4740.0
aF5121.0
aF813.0
aF6547.0
aF6928.0
aF5898.0
aF6833.0
aF40.0
aF2129.0
aF2323.0
aF2656.0
aF-1365.0
aF-564.0
aF117.0
aF825.0
aF4284.0
aF6351.0
aF7229.0
aF-140.0
aF-9.0
aF89.0
aF175.0
aF964.0
aF1095.0
aF1193.0
aF1279.0
aF660.0
aF8249.0
aF7402.0
aF3897.0
aF4381.0
aF4494.0
aF298.0
aF-1025.0
aF-963.0
aF4033.0
aF6015.0
aF6149.0
aF-910.0
aF-830.0
aF4257.0
aF5747.0
aF5825.0
aF7694.0
aF185.0
aF376.0
aF2967.0
aF3969.0
aF4656.0
aF7971.0
aF-337.0
aF-146.0
aF2445.0
aF3447.0
aF4134.0
aF7449.0
aF466.0
aF6579.0
aF6754.0
aF305.0
aF3209.0
aF3919.0
aF4332.0
aF-27.0
aF4494.0
aF7504.0
aF7621.0
aF-12.0
aF3187.0
aF3304.0
aF3470.0
aF3583.0
aF3635.0
aF3689.0
aF-222.0
aF33.0
aF204.0
aF2097.0
aF5273.0
aF6675.0
aF-6.0
aF790.0
aF934.0
aF6758.0
aF7464.0
aF-1065.0
aF-14.0
aF2269.0
aF2654.0
aF3581.0
aF963.0
aF1248.0
aF2186.0
aF4207.0
aF4823.0
aF7201.0
aF530.0
aF926.0
aF2286.0
aF5076.0
aF5278.0
aF7234.0
aF18.0
aF863.0
aF4525.0
aF4626.0
aF4851.0
aF-745.0
aF-38.0
aF632.0
aF4438.0
asS'dv400_rvir15_non'
p232
I36
sS'dv400_l1_det_inc'
p233
(lp234
F53.0
aF49.0
aF68.0
aF61.0
aF29.0
aF75.0
aF83.0
aF71.0
aF77.0
aF64.0
aF77.0
aF30.0
aF47.0
aF86.0
aF90.0
aF69.0
aF29.0
aF83.0
aF81.0
asS'dv400_imp1000_det'
p235
I41
sS'dv400_l001_non_inc'
p236
(lp237
F49.0
aF12.0
aF0.0
aF58.0
aF49.0
aF64.0
aF74.0
aF19.0
aF65.0
aF72.0
aF58.0
aF90.0
asS'dv400_imp1000_non'
p238
I39
sS'dv400_l01_det'
p239
I21
sS'dv400_imp300_non'
p240
I11
sS'dv400_imp100_det_lstar'
p241
(lp242
F0.057
aF0.087
aF0.15
aF0.5
aF0.61
aF0.95
aF0.49
aF0.69
aF1.4
aF0.42
aF0.034
aF1.3
aF0.15
aF0.62
asS'dv_rvir15'
p243
(lp244
F-1771.0
aF-1619.0
aF832.0
aF3914.0
aF4273.0
aF4384.0
aF-397.0
aF41.0
aF-731.0
aF-164.0
aF18.0
aF2263.0
aF3897.0
aF6698.0
aF6820.0
aF-1026.0
aF5040.0
aF6163.0
aF6294.0
aF-826.0
aF-565.0
aF101.0
aF5508.0
aF5888.0
aF7582.0
aF7694.0
aF7777.0
aF-43.0
aF629.0
aF825.0
aF1032.0
aF7228.0
aF241.0
aF3759.0
aF6473.0
aF7196.0
aF-866.0
aF5760.0
aF8080.0
aF-259.0
aF-29.0
aF5289.0
aF6988.0
aF4871.0
aF5781.0
aF8318.0
aF781.0
aF3443.0
aF-820.0
aF-178.0
aF3430.0
aF5578.0
aF3798.0
aF6592.0
aF689.0
aF4134.0
aF4362.0
aF7670.0
aF978.0
aF4234.0
aF4641.0
aF5644.0
aF6247.0
aF6402.0
aF6574.0
aF1094.0
aF4350.0
aF5067.0
aF5227.0
aF7918.0
aF-451.0
aF-159.0
aF-166.0
aF-45.0
aF12.0
aF2258.0
aF1125.0
aF-1022.0
aF1318.0
aF1428.0
aF6464.0
aF7026.0
aF335.0
aF574.0
aF4444.0
aF1501.0
aF2616.0
aF4764.0
aF7981.0
aF8450.0
aF9099.0
aF9235.0
aF-994.0
aF4740.0
aF5121.0
aF813.0
aF6547.0
aF6928.0
aF5898.0
aF6833.0
aF40.0
aF2129.0
aF2323.0
aF2656.0
aF-1365.0
aF-564.0
aF117.0
aF825.0
aF4284.0
aF6351.0
aF7229.0
aF-140.0
aF-9.0
aF89.0
aF175.0
aF964.0
aF1095.0
aF1193.0
aF1279.0
aF660.0
aF8249.0
aF7402.0
aF3897.0
aF4381.0
aF4494.0
aF298.0
aF-1025.0
aF-963.0
aF4033.0
aF6015.0
aF6149.0
aF-910.0
aF-830.0
aF4257.0
aF5747.0
aF5825.0
aF7694.0
aF185.0
aF376.0
aF2967.0
aF3969.0
aF4656.0
aF7971.0
aF-337.0
aF-146.0
aF2445.0
aF3447.0
aF4134.0
aF7449.0
aF466.0
aF6579.0
aF6754.0
aF305.0
aF3209.0
aF3919.0
aF4332.0
aF-27.0
aF4494.0
aF7504.0
aF7621.0
aF-12.0
aF3187.0
aF3304.0
aF3470.0
aF3583.0
aF3635.0
aF3689.0
aF-6.0
aF790.0
aF934.0
aF6758.0
aF7464.0
aF963.0
aF1248.0
aF2186.0
aF4207.0
aF4823.0
aF7201.0
aF530.0
aF926.0
aF2286.0
aF5076.0
aF5278.0
aF7234.0
aF18.0
aF863.0
aF4525.0
aF4626.0
aF4851.0
aF-745.0
aF-38.0
aF632.0
aF4438.0
as.