(dp0
S'e_bs'
p1
(lp2
F1.8
aF0.7
aF3.1
aF2.1
aF1.9
aF1.4
aF2.7
aF2.3
aF2.6
aF1.9
aF1.1
aF1.7
aF1.7
aF1.9
aF3.6
aF2.8
aF4.0
aF2.6
aF1.2
aF5.6
aF2.0
aF2.4
aF2.7
aF1.8
aF2.6
aF1.6
aF1.8
aF3.5
aF4.1
aF2.6
aF3.6
aF2.7
aF2.3
aF2.6
aF3.4
aF2.5
aF2.6
aF2.4
aF3.0
aF2.9
aF2.8
aF2.3
aF1.9
aF2.9
aF4.1
aF2.3
aF2.7
aF5.6
aF6.0
aF2.2
aF3.2
aF3.0
aF5.7
aF1.7
aF2.3
aF3.0
aF2.9
aF2.9
aF3.3
aF2.2
aF3.1
aF2.0
aF2.2
aF2.9
aF3.9
aF2.2
aF3.5
aF2.9
aF3.0
aF3.2
aF2.3
aF2.7
aF3.3
aF3.1
aF2.5
aF2.0
aF1.6
aF2.2
aF2.7
aF2.3
aF4.7
aF1.4
aF2.0
aF2.3
aF3.9
aF4.6
aF3.0
aF2.5
aF2.6
aF2.0
aF3.0
aF1.8
aF4.0
aF4.9
aF3.7
aF2.8
aF2.5
aF2.8
aF3.7
aF3.9
aF3.8
aF2.8
aF2.1
aF4.3
aF5.9
aF2.7
aF3.8
aF3.7
aF3.3
aF2.4
aF2.9
aF5.5
aF3.9
aF2.6
aF3.5
aF3.4
aF2.8
aF5.0
aF1.7
aF3.3
aF2.7
aF2.6
aF2.1
aF4.3
aF2.4
aF4.2
aF3.0
aF4.2
aF2.4
aF2.4
aF2.3
aF3.6
aF2.9
aF3.0
aF1.9
aF2.3
aF2.2
aF2.9
aF2.1
aF2.7
aF2.5
aF2.5
aF2.7
aF2.9
aF2.8
aF4.9
aF1.8
aF2.6
aF2.5
aF2.7
aF2.7
aF3.5
aF3.0
aF4.5
aF2.5
aF2.0
aF3.5
aF2.5
aF2.9
aF3.5
aF3.5
aF3.6
aF2.1
aF2.3
aF1.7
aF3.8
aF3.9
aF6.5
aF1.7
aF3.7
aF3.5
aF2.2
aF3.0
aF2.2
aF3.5
aF2.0
aF5.5
aF2.4
aF3.5
aF2.4
aF3.4
aF1.4
aF0.9
aF3.0
aF1.6
aF2.9
aF3.0
aF2.5
aF3.0
aF1.7
aF3.4
aF2.5
aF6.5
aF2.3
aF2.4
aF2.7
aF2.6
aF2.7
aF2.8
aF1.7
aF2.6
aF3.9
aF2.3
aF3.0
aF4.9
aF2.7
aF3.5
aF7.2
aF5.7
aF3.1
aF2.0
aF2.4
aF3.5
aF3.6
aF2.9
aF2.9
aF3.3
aF3.0
aF3.3
aF2.1
aF4.9
aF3.3
aF3.0
aF3.6
aF2.4
aF4.7
aF4.4
aF3.5
aF3.2
aF3.2
aF3.7
aF2.2
aF3.6
aF2.8
aF2.2
aF4.8
aF5.3
aF2.7
aF3.2
aF2.2
aF2.6
aF1.9
aF2.8
aF2.3
aF2.0
aF3.5
aF1.2
aF2.8
aF2.6
aF1.9
aF2.6
aF2.6
aF2.5
aF1.3
aF2.5
aF2.2
aF2.2
aF2.6
aF2.2
aF1.9
aF2.1
aF1.9
aF3.0
aF1.8
aF2.3
aF2.4
aF2.8
aF3.2
aF2.8
aF2.3
aF2.2
aF2.8
aF2.7
aF3.2
aF4.0
aF2.5
aF3.4
aF7.0
aF3.5
aF1.7
aF2.5
aF2.4
aF2.3
aF1.9
aF1.8
aF2.7
aF1.9
aF3.3
aF2.5
aF3.9
aF2.0
aF2.8
aF4.5
aF2.6
aF2.5
aF4.5
aF1.9
aF2.5
aF1.9
aF1.9
aF2.7
aF1.8
aF2.6
aF3.0
aF5.0
aF3.9
aF2.2
aF1.9
aF3.2
aF3.1
aF3.7
aF2.5
aF2.7
aF3.4
aF2.1
aF2.2
aF2.9
aF2.8
aF1.5
aF2.4
aF2.8
aF2.9
aF2.1
aF2.8
aF1.3
aF3.2
aF2.0
aF1.8
aF3.9
aF3.6
aF2.3
aF2.6
aF2.3
aF2.3
aF2.5
aF2.9
aF5.8
aF1.9
aF3.0
aF2.4
aF2.4
aF2.8
aF4.1
aF3.8
aF2.1
aF1.6
aF2.1
aF2.8
aF2.8
aF2.4
aF1.7
aF2.6
aF6.5
aF2.2
aF2.0
aF3.5
aF4.4
aF3.0
aF2.6
aF2.4
aF1.7
aF1.6
aF3.2
aF2.9
aF2.4
aF2.5
aF3.6
aF1.9
aF1.7
aF2.5
aF2.5
aF2.0
aF3.2
aF2.1
aF2.6
aF2.2
aF2.9
aF3.7
aF2.5
aF3.5
aF2.7
aF5.1
aF2.2
aF1.9
aF3.0
aF2.6
aF5.2
aF4.4
aF2.3
aF2.8
aF3.0
aF2.4
aF2.4
aF3.5
aF5.3
aF1.9
aF2.1
aF2.6
aF4.2
aF2.3
aF3.4
aF2.9
aF2.2
aF2.2
aF1.8
aF2.9
aF2.6
aF5.1
aF2.8
aF3.4
aF4.6
aF2.6
aF3.2
aF2.8
aF1.9
aF2.4
aF3.7
aF1.7
aF4.4
aF3.0
aF3.2
aF2.7
aF3.5
aF1.5
aF1.8
aF3.5
aF3.7
aF3.8
aF5.6
aF2.6
aF4.1
aF2.7
aF2.9
aF2.4
aF1.8
aF1.8
aF1.4
aF3.4
aF3.3
aF3.6
aF3.9
aF2.7
aF5.6
asS'e_Ws'
p3
(lp4
F2.9
aF1.1
aF5.1
aF3.5
aF3.2
aF2.3
aF4.5
aF3.8
aF4.3
aF3.2
aF1.8
aF2.9
aF2.8
aF3.2
aF6.0
aF4.7
aF6.7
aF4.3
aF1.9
aF9.2
aF3.3
aF4.0
aF4.5
aF3.1
aF4.3
aF2.7
aF2.6
aF5.8
aF6.8
aF4.4
aF6.1
aF4.5
aF3.8
aF4.4
aF5.7
aF4.2
aF4.3
aF3.9
aF5.0
aF4.8
aF4.6
aF3.8
aF3.1
aF4.9
aF6.8
aF3.9
aF4.4
aF9.3
aF9.9
aF3.7
aF5.4
aF5.0
aF9.5
aF2.9
aF3.8
aF5.1
aF4.8
aF4.9
aF5.4
aF3.6
aF5.2
aF3.3
aF3.6
aF4.8
aF6.5
aF3.7
aF5.9
aF4.8
aF5.0
aF5.3
aF3.9
aF4.5
aF5.5
aF5.1
aF4.2
aF3.4
aF2.7
aF3.7
aF4.5
aF3.8
aF7.9
aF2.4
aF3.3
aF3.8
aF6.5
aF7.7
aF4.9
aF4.1
aF4.3
aF3.3
aF4.9
aF3.0
aF6.6
aF8.1
aF6.1
aF4.6
aF4.1
aF4.7
aF6.1
aF6.4
aF6.3
aF4.6
aF2.1
aF7.2
aF9.9
aF4.4
aF6.4
aF6.1
aF5.5
aF4.1
aF4.9
aF9.2
aF6.5
aF4.4
aF5.8
aF5.7
aF4.6
aF8.4
aF2.9
aF5.5
aF4.5
aF4.4
aF3.4
aF7.1
aF3.9
aF7.0
aF5.1
aF7.1
aF4.0
aF3.9
aF3.8
aF6.0
aF4.7
aF5.0
aF3.2
aF3.8
aF3.7
aF4.8
aF3.5
aF4.4
aF4.2
aF4.2
aF4.4
aF4.9
aF4.7
aF8.0
aF3.0
aF4.3
aF4.2
aF4.5
aF4.5
aF5.8
aF5.0
aF7.5
aF4.2
aF3.4
aF5.8
aF4.2
aF4.8
aF5.9
aF5.8
aF6.0
aF3.6
aF3.8
aF2.9
aF6.4
aF6.5
aF10.8
aF2.8
aF6.2
aF5.9
aF3.7
aF5.0
aF3.7
aF5.9
aF3.3
aF9.2
aF4.0
aF5.8
aF4.0
aF5.7
aF2.4
aF1.6
aF5.0
aF2.7
aF4.8
aF5.0
aF4.2
aF5.0
aF2.8
aF5.6
aF4.2
aF10.9
aF3.9
aF4.0
aF4.6
aF4.3
aF4.4
aF4.7
aF2.8
aF4.3
aF6.5
aF3.9
aF5.1
aF8.2
aF4.6
aF5.9
aF7.2
aF9.6
aF5.1
aF3.4
aF4.1
aF5.8
aF6.0
aF4.8
aF4.8
aF5.6
aF5.0
aF5.4
aF3.5
aF8.2
aF5.5
aF4.9
aF6.0
aF4.0
aF7.7
aF7.3
aF5.9
aF5.4
aF5.4
aF6.2
aF3.7
aF5.9
aF4.7
aF3.6
aF8.0
aF8.8
aF4.6
aF5.2
aF3.6
aF4.4
aF3.2
aF4.7
aF3.9
aF3.3
aF5.0
aF2.0
aF4.6
aF4.4
aF3.1
aF4.3
aF4.4
aF4.2
aF2.2
aF4.1
aF3.6
aF3.6
aF4.3
aF3.6
aF3.1
aF3.6
aF3.2
aF5.1
aF3.1
aF3.8
aF4.0
aF4.7
aF5.3
aF4.7
aF3.9
aF3.7
aF4.7
aF4.5
aF5.4
aF6.6
aF4.1
aF5.7
aF11.7
aF5.7
aF2.8
aF4.1
aF3.8
aF3.8
aF3.2
aF2.9
aF4.4
aF3.1
aF5.5
aF4.2
aF6.5
aF3.3
aF4.7
aF7.5
aF4.3
aF4.1
aF7.6
aF3.2
aF4.2
aF3.2
aF3.2
aF4.5
aF3.0
aF4.4
aF5.0
aF8.4
aF6.6
aF3.7
aF3.2
aF5.3
aF5.1
aF6.1
aF4.2
aF4.5
aF5.7
aF3.5
aF3.6
aF4.9
aF4.7
aF2.7
aF4.1
aF4.7
aF4.9
aF3.5
aF4.7
aF2.2
aF5.3
aF3.4
aF3.1
aF6.4
aF6.0
aF3.8
aF4.3
aF3.8
aF3.9
aF4.1
aF4.9
aF9.7
aF3.1
aF5.0
aF4.0
aF4.0
aF4.6
aF6.9
aF6.3
aF3.4
aF2.6
aF3.4
aF4.7
aF4.6
aF4.0
aF2.8
aF4.3
aF10.9
aF3.7
aF3.4
aF5.9
aF7.4
aF5.0
aF4.3
aF4.0
aF2.8
aF2.6
aF5.3
aF4.9
aF4.0
aF4.2
aF6.0
aF3.1
aF2.9
aF4.2
aF4.2
aF3.4
aF5.4
aF3.5
aF4.3
aF3.6
aF4.8
aF6.2
aF4.1
aF5.8
aF4.5
aF8.4
aF3.6
aF3.2
aF5.0
aF4.3
aF8.7
aF7.3
aF3.8
aF4.6
aF5.0
aF4.0
aF4.0
aF5.8
aF8.8
aF3.2
aF3.5
aF4.4
aF6.9
aF3.8
aF5.7
aF4.9
aF3.7
aF3.7
aF2.9
aF4.9
aF4.3
aF8.5
aF4.7
aF5.6
aF7.7
aF4.3
aF5.3
aF4.7
aF3.2
aF4.0
aF6.1
aF2.9
aF7.4
aF5.0
aF5.4
aF4.5
aF5.8
aF2.5
aF3.0
aF5.8
aF6.1
aF6.3
aF9.4
aF4.4
aF6.8
aF4.6
aF4.9
aF4.0
aF2.9
aF3.0
aF2.4
aF5.6
aF5.5
aF6.0
aF6.4
aF4.5
aF9.4
asS'RA_targets'
p5
(lp6
F243.48833333333334
aF243.48833333333334
aF243.48833333333334
aF243.48833333333334
aF243.48833333333334
aF66.50333333333333
aF66.50333333333333
aF66.50333333333333
aF187.70833333333334
aF343.52458333333334
aF343.52458333333334
aF343.52458333333334
aF343.52458333333334
aF343.52458333333334
aF277.59708333333333
aF277.59708333333333
aF277.59708333333333
aF70.05
aF70.05
aF70.05
aF70.05
aF131.18875
aF131.18875
aF196.3875
aF196.3875
aF196.3875
aF196.3875
aF208.64874999999998
aF208.64874999999998
aF208.64874999999998
aF208.64874999999998
aF208.64874999999998
aF208.64874999999998
aF208.64874999999998
aF110.47291666666666
aF110.47291666666666
aF110.47291666666666
aF110.47291666666666
aF110.47291666666666
aF151.08375
aF151.08375
aF69.91125
aF69.91125
aF69.91125
aF69.91125
aF69.91125
aF217.24625
aF141.47791666666666
aF152.50291666666666
aF152.50291666666666
aF152.50291666666666
aF152.50291666666666
aF108.65083333333334
aF108.65083333333334
aF40.90708333333333
aF40.90708333333333
aF40.90708333333333
aF40.90708333333333
aF40.90708333333333
aF40.90708333333333
aF165.90708333333333
aF165.90708333333333
aF324.93416666666667
aF213.92874999999998
aF205.63
aF205.63
aF353.71833333333336
aF225.12833333333333
aF188.26708333333335
aF188.26708333333335
aF38.343333333333334
aF38.343333333333334
aF38.343333333333334
aF170.60041666666666
aF151.85916666666665
aF151.85916666666665
aF151.85916666666665
aF225.81875
aF225.81875
aF225.81875
aF187.80458333333334
aF187.80458333333334
aF187.80458333333334
aF169.41875000000002
aF169.41875000000002
aF169.41875000000002
aF164.93875
aF164.93875
aF164.93875
aF164.93875
aF164.93875
aF164.93875
aF353.685
aF205.6954166666667
aF205.6954166666667
aF208.60375000000002
aF208.60375000000002
aF208.60375000000002
aF147.16708333333335
aF137.1616666666667
aF344.40916666666664
aF344.40916666666664
aF162.75291666666666
aF234.54166666666666
aF234.54166666666666
aF234.54166666666666
aF234.54166666666666
aF137.86374999999998
aF137.86374999999998
aF195.94166666666666
aF160.67208333333332
aF146.58833333333334
aF170.30916666666667
aF35.665
aF35.665
aF157.82708333333335
aF157.82708333333335
aF195.25333333333333
aF195.25333333333333
aF195.25333333333333
aF198.07375000000002
aF198.07375000000002
aF141.47708333333333
aF141.47708333333333
aF208.35833333333335
aF208.35833333333335
aF208.35833333333335
aF208.35833333333335
aF130.49666666666667
aF130.49666666666667
aF130.49666666666667
aF137.27541666666667
aF137.27541666666667
aF150.26083333333332
aF28.875
aF28.875
aF179.34333333333333
aF184.16916666666665
aF171.20125
aF171.20125
aF184.31375
aF184.31375
aF183.57375000000002
aF183.57375000000002
aF183.57375000000002
aF183.57375000000002
aF95.78208333333333
aF95.78208333333333
aF202.72166666666666
aF202.72166666666666
aF209.10666666666668
aF209.10666666666668
aF209.35916666666665
aF209.35916666666665
aF209.35916666666665
aF209.35916666666665
aF165.21833333333333
aF165.21833333333333
aF165.21833333333333
aF165.21833333333333
aF185.38208333333333
aF185.38208333333333
aF185.38208333333333
aF184.46708333333333
aF184.46708333333333
aF171.16458333333333
aF171.16458333333333
aF171.16458333333333
aF184.87875
aF184.87875
aF173.74
aF41.25333333333334
aF41.25333333333334
aF41.25333333333334
aF175.55125
aF175.55125
aF185.26041666666666
aF185.26041666666666
aF185.26041666666666
aF160.89958333333334
aF160.89958333333334
aF160.89958333333334
aF160.89958333333334
aF208.42083333333335
aF208.42083333333335
aF208.42083333333335
aF171.47375000000002
aF171.47375000000002
aF171.47375000000002
aF171.47375000000002
aF175.2
aF7.044583333333334
aF185.80041666666665
aF163.83125
aF163.83125
aF211.11791666666667
aF211.11791666666667
aF211.11791666666667
aF128.89958333333334
aF128.89958333333334
aF128.89958333333334
aF128.89958333333334
aF128.89958333333334
aF190.54291666666668
aF190.54291666666668
aF190.54291666666668
aF190.54291666666668
aF55.58583333333333
aF5.254166666666666
aF5.254166666666666
aF5.254166666666666
aF205.52708333333334
aF205.52708333333334
aF205.52708333333334
aF184.16916666666665
aF184.16916666666665
aF25.43
aF122.16166666666668
aF122.16166666666668
aF122.16166666666668
aF122.16166666666668
aF122.16166666666668
aF122.16166666666668
aF185.43375
aF185.43375
aF169.74125
aF169.74125
aF163.02291666666667
aF163.02291666666667
aF163.02291666666667
aF185.34125
aF311.04041666666666
aF61.95166666666666
aF187.27791666666667
aF38.6575
aF213.45125
aF213.45125
aF166.11374999999998
aF166.11374999999998
aF219.09208333333333
aF329.71708333333333
aF329.71708333333333
aF329.71708333333333
aF172.31958333333333
aF172.31958333333333
aF172.31958333333333
aF172.31958333333333
aF122.74375
aF122.74375
aF20.940833333333334
aF275.48833333333334
aF275.48833333333334
aF169.78625
aF169.78625
aF169.78625
aF290.3095833333333
aF290.3095833333333
aF20.465
aF174.9875
aF174.9875
aF174.9875
aF174.9875
aF174.9875
aF324.0966666666667
aF324.0966666666667
aF238.93
aF238.93
aF238.93
aF238.93
aF238.93
aF238.93
aF153.58625
aF153.58625
aF14.333333333333334
aF14.333333333333334
aF14.333333333333334
aF14.333333333333334
aF14.333333333333334
aF328.7129166666667
aF328.7129166666667
aF328.7129166666667
aF328.7129166666667
aF117.80125000000001
aF117.80125000000001
aF117.80125000000001
aF117.80125000000001
aF117.80125000000001
aF117.80125000000001
aF13.7175
aF13.7175
aF323.11583333333334
aF323.11583333333334
aF157.97666666666666
aF157.97666666666666
aF341.325
aF341.325
aF14.655833333333334
aF14.655833333333334
aF357.97
aF37.06333333333334
aF37.06333333333334
aF37.06333333333334
aF37.06333333333334
aF37.06333333333334
aF12.079166666666667
aF12.079166666666667
aF12.079166666666667
aF12.079166666666667
aF226.005
aF226.005
aF226.005
aF195.30375
aF246.98416666666668
aF246.98416666666668
aF334.30083333333334
aF19.89875
aF19.89875
aF236.93166666666664
aF324.7079166666667
aF324.7079166666667
aF324.7079166666667
aF324.7079166666667
aF162.9325
aF151.01083333333332
aF151.01083333333332
aF231.10208333333333
aF231.10208333333333
aF231.10208333333333
aF231.10208333333333
aF169.62666666666667
aF169.62666666666667
aF169.62666666666667
aF139.98041666666668
aF139.98041666666668
aF139.98041666666668
aF139.98041666666668
aF139.98041666666668
aF357.98375
aF0.10166666666666666
aF0.10166666666666666
aF0.10166666666666666
aF0.10166666666666666
aF0.10166666666666666
aF0.10166666666666666
aF0.10166666666666666
aF184.83708333333334
aF184.83708333333334
aF184.83708333333334
aF171.16333333333336
aF171.16333333333336
aF171.16333333333336
aF171.16333333333336
aF171.16333333333336
aF30.487916666666667
aF30.487916666666667
aF30.487916666666667
aF30.487916666666667
aF154.12166666666667
aF154.12166666666667
aF154.12166666666667
aF154.12166666666667
aF154.12166666666667
aF154.12166666666667
aF142.29125
aF142.29125
aF142.29125
aF142.29125
aF29.959166666666665
aF351.18625
aF176.125
aF176.125
aF176.125
aF176.125
aF217.85750000000002
aF217.85750000000002
aF217.85750000000002
aF241.33208333333334
aF209.3025
aF209.3025
aF209.3025
aF209.3025
aF175.63208333333333
aF175.63208333333333
aF67.66666666666667
aF67.66666666666667
aF67.66666666666667
aF310.7758333333333
aF310.7758333333333
aF310.7758333333333
aF310.7758333333333
aF310.7758333333333
aF310.7758333333333
aF169.95
aF169.95
aF169.95
aF232.28125
aF149.815
aF122.28375000000001
aF226.23166666666665
aF226.23166666666665
aF69.62166666666667
aF69.62166666666667
aF69.62166666666667
aF69.62166666666667
aF163.56708333333336
aF69.21166666666666
aF236.12708333333333
aF29.970833333333335
aF29.970833333333335
aF176.69166666666666
aF139.36916666666667
aF139.36916666666667
aF139.36916666666667
aF139.36916666666667
aF125.10083333333333
aF125.10083333333333
aF179.12541666666667
aF179.12541666666667
aF175.67208333333332
aF225.89125
aF225.89125
aF225.89125
aF225.89125
aF225.89125
aF225.89125
aF170.03083333333333
aF170.03083333333333
aF170.03083333333333
aF137.72
aF28.277916666666666
aF28.277916666666666
aF256.17333333333335
aF256.17333333333335
aF256.17333333333335
aF170.02083333333334
aF170.02083333333334
aF170.02083333333334
aF166.05749999999998
aF166.05749999999998
aF166.05749999999998
aF194.69458333333333
aF168.68208333333334
aF168.68208333333334
asS'e_Nas'
p7
(lp8
F350000000000.0
aF261000000000.0
aF549000000000.0
aF464000000000.0
aF309000000000.0
aF266000000000.0
aF394000000000.0
aF335000000000.0
aF529000000000.0
aF1160000000000.0
aF1100000000000.0
aF644000000000.0
aF665000000000.0
aF889000000000.0
aF2450000000000.0
aF1660000000000.0
aF1800000000000.0
aF1660000000000.0
aF1710000000000.0
aF1580000000000.0
aF1330000000000.0
aF1530000000000.0
aF1100000000000.0
aF985000000000.0
aF1210000000000.0
aF684000000000.0
aF836000000000.0
aF1490000000000.0
aF1130000000000.0
aF2770000000000.0
aF2110000000000.0
aF800000000000.0
aF2890000000000.0
aF1180000000000.0
aF921000000000.0
aF1020000000000.0
aF1360000000000.0
aF1040000000000.0
aF851000000000.0
aF6200000000000.0
aF2730000000000.0
aF1760000000000.0
aF2330000000000.0
aF1390000000000.0
aF973000000000.0
aF1460000000000.0
aF1830000000000.0
aF3690000000000.0
aF1750000000000.0
aF1700000000000.0
aF2360000000000.0
aF1900000000000.0
aF2070000000000.0
aF1290000000000.0
aF1790000000000.0
aF2200000000000.0
aF1600000000000.0
aF2080000000000.0
aF2370000000000.0
aF2070000000000.0
aF1880000000000.0
aF1540000000000.0
aF2570000000000.0
aF2610000000000.0
aF2850000000000.0
aF5990000000000.0
aF2560000000000.0
aF3180000000000.0
aF1960000000000.0
aF1460000000000.0
aF2300000000000.0
aF2770000000000.0
aF2580000000000.0
aF3500000000000.0
aF1810000000000.0
aF1910000000000.0
aF3510000000000.0
aF4330000000000.0
aF5680000000000.0
aF3120000000000.0
aF2410000000000.0
aF30300000000000.0
aF2920000000000.0
aF5350000000000.0
aF5970000000000.0
aF3700000000000.0
aF3220000000000.0
aF7490000000000.0
aF4340000000000.0
aF16700000000000.0
aF3150000000000.0
aF3700000000000.0
aF3570000000000.0
aF4320000000000.0
aF3340000000000.0
aF15900000000000.0
aF5870000000000.0
aF5290000000000.0
aF4330000000000.0
aF4780000000000.0
aF4910000000000.0
aF31900000000000.0
aF5850000000000.0
aF4200000000000.0
aF3990000000000.0
aF4060000000000.0
aF4080000000000.0
aF4920000000000.0
aF4930000000000.0
aF7220000000000.0
aF28200000000000.0
aF16700000000000.0
aF20200000000000.0
aF974000000000.0
aF1500000000000.0
aF1870000000000.0
aF2060000000000.0
aF2960000000000.0
aF2710000000000.0
aF2460000000000.0
aF2510000000000.0
aF3630000000000.0
aF1790000000000.0
aF3060000000000.0
aF2670000000000.0
aF3000000000000.0
aF2960000000000.0
aF6420000000000.0
aF8580000000000.0
aF2530000000000.0
aF3160000000000.0
aF3600000000000.0
aF3370000000000.0
aF2480000000000.0
aF5710000000000.0
aF3510000000000.0
aF4410000000000.0
aF10000000000000.0
aF3930000000000.0
aF7190000000000.0
aF5220000000000.0
aF7540000000000.0
aF2020000000000.0
aF2390000000000.0
aF1040000000000.0
aF713000000000.0
aF1590000000000.0
aF2420000000000.0
aF12800000000000.0
aF2980000000000.0
aF5150000000000.0
aF4350000000000.0
aF2110000000000.0
aF2450000000000.0
aF1580000000000.0
aF2080000000000.0
aF3320000000000.0
aF3010000000000.0
aF3210000000000.0
aF3070000000000.0
aF5850000000000.0
aF5120000000000.0
aF6610000000000.0
aF1500000000000.0
aF1280000000000.0
aF5470000000000.0
aF4570000000000.0
aF6240000000000.0
aF2470000000000.0
aF2770000000000.0
aF4450000000000.0
aF3010000000000.0
aF3780000000000.0
aF2730000000000.0
aF8520000000000.0
aF4080000000000.0
aF8910000000000.0
aF6470000000000.0
aF27400000000000.0
aF4110000000000.0
aF2560000000000.0
aF1820000000000.0
aF1680000000000.0
aF3320000000000.0
aF10600000000000.0
aF3550000000000.0
aF1930000000000.0
aF2740000000000.0
aF2080000000000.0
aF1600000000000.0
aF8710000000000.0
aF2390000000000.0
aF9820000000000.0
aF3720000000000.0
aF3490000000000.0
aF7260000000000.0
aF5340000000000.0
aF22400000000000.0
aF3880000000000.0
aF2220000000000.0
aF2370000000000.0
aF1810000000000.0
aF5480000000000.0
aF5210000000000.0
aF3310000000000.0
aF3120000000000.0
aF4480000000000.0
aF7890000000000.0
aF10100000000000.0
aF6670000000000.0
aF7610000000000.0
aF2750000000000.0
aF3480000000000.0
aF2610000000000.0
aF10000000000000.0
aF10000000000000.0
aF34000000000000.0
aF6180000000000.0
aF12000000000000.0
aF5110000000000.0
aF6910000000000.0
aF5930000000000.0
aF3540000000000.0
aF2320000000000.0
aF1840000000000.0
aF2090000000000.0
aF2540000000000.0
aF4060000000000.0
aF6640000000000.0
aF4290000000000.0
aF2200000000000.0
aF486000000000.0
aF346000000000.0
aF292000000000.0
aF541000000000.0
aF3050000000000.0
aF2180000000000.0
aF395000000000.0
aF285000000000.0
aF602000000000.0
aF812000000000.0
aF671000000000.0
aF458000000000.0
aF1640000000000.0
aF1410000000000.0
aF1510000000000.0
aF746000000000.0
aF372000000000.0
aF1070000000000.0
aF514000000000.0
aF653000000000.0
aF1340000000000.0
aF1130000000000.0
aF603000000000.0
aF990000000000.0
aF832000000000.0
aF573000000000.0
aF627000000000.0
aF813000000000.0
aF535000000000.0
aF652000000000.0
aF466000000000.0
aF1080000000000.0
aF771000000000.0
aF591000000000.0
aF1160000000000.0
aF584000000000.0
aF860000000000.0
aF945000000000.0
aF870000000000.0
aF809000000000.0
aF1050000000000.0
aF1310000000000.0
aF2050000000000.0
aF2040000000000.0
aF1590000000000.0
aF2660000000000.0
aF1740000000000.0
aF1230000000000.0
aF1020000000000.0
aF1360000000000.0
aF672000000000.0
aF725000000000.0
aF852000000000.0
aF861000000000.0
aF894000000000.0
aF793000000000.0
aF2000000000000.0
aF1480000000000.0
aF1540000000000.0
aF1080000000000.0
aF1430000000000.0
aF2750000000000.0
aF1980000000000.0
aF1440000000000.0
aF1000000000000.0
aF1190000000000.0
aF1320000000000.0
aF853000000000.0
aF814000000000.0
aF904000000000.0
aF815000000000.0
aF1050000000000.0
aF614000000000.0
aF819000000000.0
aF1040000000000.0
aF925000000000.0
aF798000000000.0
aF1220000000000.0
aF1730000000000.0
aF1420000000000.0
aF1250000000000.0
aF1300000000000.0
aF1060000000000.0
aF1330000000000.0
aF1690000000000.0
aF1110000000000.0
aF1170000000000.0
aF1220000000000.0
aF3520000000000.0
aF1520000000000.0
aF907000000000.0
aF1280000000000.0
aF1230000000000.0
aF1280000000000.0
aF2040000000000.0
aF1370000000000.0
aF1190000000000.0
aF905000000000.0
aF978000000000.0
aF4810000000000.0
aF1570000000000.0
aF2790000000000.0
aF1310000000000.0
aF966000000000.0
aF1350000000000.0
aF1400000000000.0
aF2160000000000.0
aF1900000000000.0
aF1180000000000.0
aF2440000000000.0
aF1650000000000.0
aF1750000000000.0
aF1740000000000.0
aF1710000000000.0
aF832000000000.0
aF1950000000000.0
aF1980000000000.0
aF1790000000000.0
aF1790000000000.0
aF1370000000000.0
aF1870000000000.0
aF1070000000000.0
aF1010000000000.0
aF1080000000000.0
aF906000000000.0
aF793000000000.0
aF2540000000000.0
aF1690000000000.0
aF2460000000000.0
aF1290000000000.0
aF1140000000000.0
aF3830000000000.0
aF2050000000000.0
aF3880000000000.0
aF2720000000000.0
aF2550000000000.0
aF2920000000000.0
aF1520000000000.0
aF3330000000000.0
aF2350000000000.0
aF2020000000000.0
aF2050000000000.0
aF1880000000000.0
aF1570000000000.0
aF2590000000000.0
aF4170000000000.0
aF2220000000000.0
aF2360000000000.0
aF1920000000000.0
aF1740000000000.0
aF1970000000000.0
aF25200000000000.0
aF4150000000000.0
aF3720000000000.0
aF14200000000000.0
aF3360000000000.0
aF3030000000000.0
aF2070000000000.0
aF1690000000000.0
aF2370000000000.0
aF3060000000000.0
aF2500000000000.0
aF3930000000000.0
aF1590000000000.0
aF2310000000000.0
aF2940000000000.0
aF3740000000000.0
aF3430000000000.0
aF17300000000000.0
aF2870000000000.0
aF3480000000000.0
aF12200000000000.0
aF2320000000000.0
aF3400000000000.0
aF3020000000000.0
aF3800000000000.0
aF3290000000000.0
aF3230000000000.0
aF2630000000000.0
aF4760000000000.0
aF4420000000000.0
aF2880000000000.0
aF4180000000000.0
aF3850000000000.0
aF3570000000000.0
aF4630000000000.0
aF2930000000000.0
aF3890000000000.0
aF6520000000000.0
aF11500000000000.0
aF4510000000000.0
aF3810000000000.0
aF7380000000000.0
aF10800000000000.0
aF4400000000000.0
aF6330000000000.0
aF7200000000000.0
aF4370000000000.0
aF9200000000000.0
aF3310000000000.0
aF2290000000000.0
aF3350000000000.0
aF1680000000000.0
aF6190000000000.0
aF4720000000000.0
aF7330000000000.0
aF4280000000000.0
aF4310000000000.0
aF12200000000000.0
aF4890000000000.0
aF13600000000000.0
aF5590000000000.0
asS'e_Lya_vs'
p9
(lp10
F1.0
aF6.0
aF2.0
aF6.0
aF1.0
aF1.0
aF6.0
aF1.0
aF1.0
aF1.0
aF1.0
aF1.0
aF1.0
aF1.0
aF1.0
aF1.0
aF5.0
aF3.0
aF1.0
aF1.0
aF1.0
aF4.0
aF1.0
aF1.0
aF7.0
aF1.0
aF1.0
aF1.0
aF8.0
aF1.0
aF1.0
aF1.0
aF1.0
aF9.0
aF1.0
aF4.0
aF1.0
aF6.0
aF1.0
aF1.0
aF1.0
aF1.0
aF1.0
aF1.0
aF10.0
aF1.0
aF1.0
aF1.0
aF1.0
aF1.0
aF1.0
aF1.0
aF1.0
aF1.0
aF1.0
aF1.0
aF6.0
aF1.0
aF7.0
aF9.0
aF1.0
aF6.0
aF1.0
aF1.0
aF1.0
aF1.0
aF1.0
aF4.0
aF1.0
aF5.0
aF1.0
aF1.0
aF8.0
aF1.0
aF1.0
aF4.0
aF1.0
aF1.0
aF1.0
aF11.0
aF1.0
aF8.0
aF1.0
aF2.0
aF1.0
aF1.0
aF1.0
aF1.0
aF8.0
aF1.0
aF1.0
aF1.0
aF7.0
aF5.0
aF1.0
aF1.0
aF1.0
aF1.0
aF1.0
aF6.0
aF1.0
aF1.0
aF1.0
aF1.0
aF1.0
aF1.0
aF1.0
aF1.0
aF7.0
aF1.0
aF1.0
aF1.0
aF1.0
aF1.0
aF1.0
aF1.0
aF1.0
aF3.0
aF3.0
aF1.0
aF1.0
aF1.0
aF1.0
aF1.0
aF3.0
aF1.0
aF1.0
aF1.0
aF4.0
aF1.0
aF1.0
aF1.0
aF8.0
aF1.0
aF1.0
aF1.0
aF1.0
aF1.0
aF1.0
aF1.0
aF1.0
aF1.0
aF1.0
aF1.0
aF1.0
aF1.0
aF1.0
aF1.0
aF1.0
aF1.0
aF4.0
aF1.0
aF1.0
aF1.0
aF1.0
aF1.0
aF1.0
aF1.0
aF1.0
aF1.0
aF1.0
aF5.0
aF4.0
aF1.0
aF1.0
aF1.0
aF1.0
aF1.0
aF1.0
aF8.0
aF1.0
aF1.0
aF1.0
aF3.0
aF1.0
aF3.0
aF1.0
aF1.0
aF1.0
aF4.0
aF1.0
aF3.0
aF1.0
aF5.0
aF1.0
aF1.0
aF1.0
aF10.0
aF8.0
aF11.0
aF1.0
aF3.0
aF1.0
aF1.0
aF1.0
aF2.0
aF1.0
aF1.0
aF1.0
aF1.0
aF1.0
aF12.0
aF1.0
aF1.0
aF1.0
aF6.0
aF1.0
aF1.0
aF1.0
aF1.0
aF1.0
aF1.0
aF1.0
aF1.0
aF1.0
aF1.0
aF1.0
aF1.0
aF1.0
aF1.0
aF1.0
aF1.0
aF10.0
aF1.0
aF1.0
aF3.0
aF6.0
aF1.0
aF1.0
aF1.0
aF1.0
aF1.0
aF6.0
aF5.0
aF11.0
aF5.0
aF1.0
aF4.0
aF1.0
aF7.0
aF1.0
aF4.0
aF1.0
aF1.0
aF1.0
aF7.0
aF1.0
aF1.0
aF4.0
aF11.0
aF5.0
aF1.0
aF1.0
aF1.0
aF1.0
aF1.0
aF1.0
aF1.0
aF3.0
aF1.0
aF1.0
aF1.0
aF1.0
aF1.0
aF1.0
aF2.0
aF1.0
aF8.0
aF1.0
aF1.0
aF1.0
aF1.0
aF1.0
aF1.0
aF5.0
aF4.0
aF5.0
aF10.0
aF5.0
aF1.0
aF1.0
aF1.0
aF1.0
aF1.0
aF1.0
aF1.0
aF1.0
aF1.0
aF2.0
aF1.0
aF9.0
aF6.0
aF4.0
aF4.0
aF1.0
aF1.0
aF1.0
aF1.0
aF7.0
aF1.0
aF1.0
aF1.0
aF1.0
aF1.0
aF1.0
aF1.0
aF1.0
aF1.0
aF4.0
aF1.0
aF1.0
aF1.0
aF1.0
aF1.0
aF1.0
aF1.0
aF5.0
aF1.0
aF1.0
aF1.0
aF1.0
aF1.0
aF6.0
aF7.0
aF6.0
aF1.0
aF1.0
aF7.0
aF1.0
aF3.0
aF1.0
aF1.0
aF1.0
aF1.0
aF1.0
aF1.0
aF1.0
aF1.0
aF4.0
aF1.0
aF1.0
aF1.0
aF1.0
aF1.0
aF5.0
aF4.0
aF5.0
aF1.0
aF3.0
aF1.0
aF1.0
aF1.0
aF12.0
aF4.0
aF5.0
aF8.0
aF6.0
aF1.0
aF5.0
aF1.0
aF1.0
aF6.0
aF1.0
aF1.0
aF1.0
aF8.0
aF1.0
aF7.0
aF1.0
aF1.0
aF1.0
aF1.0
aF1.0
aF1.0
aF1.0
aF2.0
aF6.0
aF1.0
aF1.0
aF4.0
aF1.0
aF1.0
aF8.0
aF1.0
aF4.0
aF7.0
aF1.0
aF4.0
aF1.0
aF1.0
aF6.0
aF1.0
aF1.0
aF4.0
aF1.0
aF1.0
aF1.0
aF1.0
aF1.0
aF1.0
aF7.0
aF1.0
aF1.0
aF1.0
aF1.0
aF4.0
aF1.0
aF1.0
aF1.0
aF1.0
aF3.0
aF7.0
aF1.0
aF10.0
aF6.0
aF1.0
aF1.0
aF5.0
aF6.0
aF4.0
aF1.0
aF1.0
aF1.0
aF1.0
aF1.0
aF1.0
aF1.0
aF1.0
aF6.0
aF1.0
aF1.0
aF6.0
aF1.0
aF1.0
aF4.0
aF10.0
aF1.0
aF1.0
aF1.0
aF1.0
aF1.0
aF5.0
aF9.0
asS'e_Lya_Ws'
p11
(lp12
F2.0
aF1.0
aF2.0
aF2.0
aF2.0
aF1.0
aF2.0
aF2.0
aF3.0
aF5.0
aF5.0
aF3.0
aF3.0
aF3.0
aF12.0
aF8.0
aF9.0
aF8.0
aF7.0
aF7.0
aF6.0
aF7.0
aF5.0
aF4.0
aF6.0
aF3.0
aF4.0
aF7.0
aF5.0
aF6.0
aF9.0
aF4.0
aF7.0
aF6.0
aF5.0
aF5.0
aF5.0
aF5.0
aF4.0
aF12.0
aF10.0
aF8.0
aF9.0
aF6.0
aF5.0
aF7.0
aF8.0
aF14.0
aF8.0
aF8.0
aF7.0
aF9.0
aF10.0
aF6.0
aF8.0
aF11.0
aF7.0
aF9.0
aF11.0
aF10.0
aF9.0
aF7.0
aF10.0
aF11.0
aF14.0
aF14.0
aF10.0
aF11.0
aF9.0
aF7.0
aF11.0
aF13.0
aF7.0
aF17.0
aF8.0
aF9.0
aF15.0
aF15.0
aF14.0
aF12.0
aF11.0
aF12.0
aF13.0
aF16.0
aF19.0
aF16.0
aF12.0
aF19.0
aF12.0
aF8.0
aF11.0
aF6.0
aF15.0
aF18.0
aF13.0
aF20.0
aF21.0
aF23.0
aF11.0
aF20.0
aF21.0
aF23.0
aF22.0
aF20.0
aF17.0
aF16.0
aF19.0
aF22.0
aF22.0
aF29.0
aF39.0
aF46.0
aF57.0
aF5.0
aF6.0
aF8.0
aF10.0
aF13.0
aF12.0
aF10.0
aF12.0
aF14.0
aF8.0
aF14.0
aF13.0
aF14.0
aF12.0
aF17.0
aF11.0
aF8.0
aF10.0
aF16.0
aF14.0
aF11.0
aF19.0
aF14.0
aF19.0
aF20.0
aF17.0
aF22.0
aF17.0
aF24.0
aF7.0
aF7.0
aF5.0
aF4.0
aF7.0
aF6.0
aF17.0
aF13.0
aF23.0
aF19.0
aF9.0
aF8.0
aF7.0
aF8.0
aF14.0
aF14.0
aF12.0
aF14.0
aF25.0
aF20.0
aF23.0
aF6.0
aF6.0
aF24.0
aF21.0
aF27.0
aF10.0
aF13.0
aF19.0
aF13.0
aF18.0
aF12.0
aF25.0
aF16.0
aF33.0
aF27.0
aF33.0
aF15.0
aF11.0
aF8.0
aF7.0
aF11.0
aF9.0
aF7.0
aF9.0
aF10.0
aF9.0
aF7.0
aF27.0
aF10.0
aF32.0
aF15.0
aF15.0
aF22.0
aF19.0
aF21.0
aF18.0
aF10.0
aF11.0
aF8.0
aF9.0
aF20.0
aF14.0
aF13.0
aF15.0
aF22.0
aF41.0
aF25.0
aF32.0
aF12.0
aF13.0
aF13.0
aF20.0
aF20.0
aF73.0
aF25.0
aF22.0
aF20.0
aF25.0
aF22.0
aF15.0
aF10.0
aF7.0
aF10.0
aF13.0
aF16.0
aF20.0
aF14.0
aF10.0
aF2.0
aF2.0
aF1.0
aF3.0
aF14.0
aF10.0
aF2.0
aF1.0
aF3.0
aF4.0
aF3.0
aF2.0
aF6.0
aF7.0
aF7.0
aF4.0
aF2.0
aF3.0
aF2.0
aF3.0
aF3.0
aF5.0
aF3.0
aF3.0
aF4.0
aF3.0
aF3.0
aF4.0
aF3.0
aF3.0
aF2.0
aF5.0
aF3.0
aF3.0
aF5.0
aF3.0
aF4.0
aF5.0
aF4.0
aF4.0
aF5.0
aF5.0
aF10.0
aF10.0
aF8.0
aF9.0
aF8.0
aF6.0
aF5.0
aF6.0
aF3.0
aF3.0
aF4.0
aF4.0
aF4.0
aF4.0
aF4.0
aF6.0
aF7.0
aF5.0
aF4.0
aF13.0
aF9.0
aF7.0
aF5.0
aF5.0
aF5.0
aF4.0
aF4.0
aF4.0
aF4.0
aF5.0
aF3.0
aF4.0
aF5.0
aF4.0
aF4.0
aF6.0
aF7.0
aF6.0
aF5.0
aF6.0
aF5.0
aF6.0
aF8.0
aF5.0
aF6.0
aF6.0
aF6.0
aF6.0
aF5.0
aF6.0
aF6.0
aF6.0
aF8.0
aF6.0
aF5.0
aF4.0
aF5.0
aF7.0
aF7.0
aF7.0
aF6.0
aF4.0
aF7.0
aF7.0
aF7.0
aF9.0
aF5.0
aF7.0
aF7.0
aF8.0
aF9.0
aF8.0
aF4.0
aF8.0
aF8.0
aF8.0
aF8.0
aF6.0
aF8.0
aF4.0
aF5.0
aF5.0
aF4.0
aF4.0
aF10.0
aF8.0
aF7.0
aF6.0
aF5.0
aF9.0
aF10.0
aF10.0
aF7.0
aF9.0
aF11.0
aF7.0
aF13.0
aF11.0
aF8.0
aF8.0
aF9.0
aF7.0
aF12.0
aF14.0
aF10.0
aF10.0
aF9.0
aF8.0
aF9.0
aF14.0
aF13.0
aF14.0
aF13.0
aF16.0
aF14.0
aF9.0
aF8.0
aF9.0
aF12.0
aF11.0
aF14.0
aF8.0
aF10.0
aF11.0
aF11.0
aF16.0
aF17.0
aF11.0
aF14.0
aF11.0
aF10.0
aF14.0
aF14.0
aF15.0
aF15.0
aF15.0
aF12.0
aF18.0
aF18.0
aF13.0
aF18.0
aF13.0
aF13.0
aF17.0
aF13.0
aF17.0
aF23.0
aF21.0
aF15.0
aF18.0
aF15.0
aF17.0
aF20.0
aF24.0
aF28.0
aF19.0
aF23.0
aF16.0
aF10.0
aF11.0
aF8.0
aF17.0
aF16.0
aF21.0
aF14.0
aF11.0
aF14.0
aF22.0
aF27.0
aF24.0
asS'z_targets'
p13
(lp14
F0.129
aF0.129
aF0.129
aF0.129
aF0.129
aF0.104
aF0.104
aF0.104
aF0.117
aF0.06609
aF0.06609
aF0.06609
aF0.06609
aF0.06609
aF0.123
aF0.123
aF0.123
aF1.053
aF1.053
aF1.053
aF1.053
aF0.131
aF0.131
aF0.2784
aF0.2784
aF0.2784
aF0.2784
aF0.152
aF0.152
aF0.152
aF0.152
aF0.152
aF0.152
aF0.152
aF0.23149
aF0.23149
aF0.23149
aF0.23149
aF0.23149
aF0.161
aF0.161
aF0.243
aF0.243
aF0.243
aF0.243
aF0.243
aF0.62717
aF0.19
aF0.25643
aF0.25643
aF0.25643
aF0.25643
aF0.371
aF0.371
aF0.66929
aF0.66929
aF0.66929
aF0.66929
aF0.66929
aF0.66929
aF0.186
aF0.186
aF0.26
aF0.7435
aF0.1719
aF0.1719
aF0.098
aF0.40481
aF0.47095
aF0.47095
aF0.0376
aF0.0376
aF0.0376
aF0.47528
aF0.24
aF0.24
aF0.24
aF0.114
aF0.114
aF0.114
aF0.11612
aF0.11612
aF0.11612
aF0.15871
aF0.15871
aF0.15871
aF0.63171
aF0.63171
aF0.63171
aF0.63171
aF0.63171
aF0.63171
aF0.11
aF0.3832
aF0.3832
aF1.89283
aF1.89283
aF1.89283
aF0.49179
aF0.25989
aF0.59455
aF0.59455
aF0.03251
aF0.07342
aF0.07342
aF0.07342
aF0.07342
aF0.29038
aF0.29038
aF0.437
aF0.34157
aF0.23022
aF0.152
aF0.444
aF0.444
aF0.3604
aF0.3604
aF1.36
aF1.36
aF1.36
aF0.184
aF0.184
aF0.32989
aF0.32989
aF0.28504
aF0.28504
aF0.28504
aF0.28504
aF1.25567
aF1.25567
aF1.25567
aF0.81028
aF0.81028
aF0.74749
aF0.16443
aF0.16443
aF0.29091
aF0.58756
aF0.53151
aF0.53151
aF0.39566
aF0.39566
aF0.0809
aF0.0809
aF0.0809
aF0.0809
aF0.12889
aF0.12889
aF0.24232
aF0.24232
aF0.16404
aF0.16404
aF1.23453
aF1.23453
aF1.23453
aF1.23453
aF0.24298
aF0.24298
aF0.24298
aF0.24298
aF0.102
aF0.102
aF0.102
aF0.13
aF0.13
aF0.14285
aF0.14285
aF0.14285
aF0.08058
aF0.08058
aF0.70994
aF0.33921
aF0.33921
aF0.33921
aF0.4819
aF0.4819
aF0.22945
aF0.22945
aF0.22945
aF0.794
aF0.794
aF0.794
aF0.794
aF0.14659
aF0.14659
aF0.14659
aF0.85142
aF0.85142
aF0.85142
aF0.85142
aF0.11439
aF0.5
aF0.27692
aF0.12003
aF0.12003
aF0.54996
aF0.54996
aF0.54996
aF0.331
aF0.331
aF0.331
aF0.331
aF0.331
aF1.49257
aF1.49257
aF1.49257
aF1.49257
aF0.283
aF0.0983
aF0.0983
aF0.0983
aF0.26608
aF0.26608
aF0.26608
aF0.58756
aF0.58756
aF0.04541
aF0.36061
aF0.36061
aF0.36061
aF0.36061
aF0.36061
aF0.36061
aF0.07085
aF0.07085
aF0.0271
aF0.0271
aF0.60999
aF0.60999
aF0.60999
aF0.182
aF0.0344
aF0.57259
aF0.15834
aF0.04354
aF0.0896
aF0.0896
aF0.03002
aF0.03002
aF0.03146
aF0.116
aF0.116
aF0.116
aF0.06
aF0.06
aF0.06
aF0.06
aF0.102
aF0.102
aF0.04702
aF0.297
aF0.297
aF0.1765
aF0.1765
aF0.1765
aF0.036
aF0.036
aF0.116
aF0.646
aF0.646
aF0.646
aF0.646
aF0.646
aF0.0588
aF0.0588
aF0.46699
aF0.46699
aF0.46699
aF0.46699
aF0.46699
aF0.46699
aF0.058
aF0.058
aF0.06198
aF0.06198
aF0.06198
aF0.06198
aF0.06198
aF0.344
aF0.344
aF0.344
aF0.344
aF0.9224
aF0.9224
aF0.9224
aF0.9224
aF0.9224
aF0.9224
aF0.155
aF0.155
aF0.06298
aF0.06298
aF0.086
aF0.086
aF0.201
aF0.201
aF0.16414
aF0.16414
aF0.038
aF0.495
aF0.495
aF0.495
aF0.495
aF0.495
aF0.134
aF0.134
aF0.134
aF0.134
aF0.03642
aF0.03642
aF0.03642
aF0.4778
aF0.133
aF0.133
aF0.06576
aF0.347
aF0.347
aF0.2643
aF0.18299
aF0.18299
aF0.18299
aF0.18299
aF0.167
aF0.3272
aF0.3272
aF1.32801
aF1.32801
aF1.32801
aF1.32801
aF0.154
aF0.154
aF0.154
aF0.12337
aF0.12337
aF0.12337
aF0.12337
aF0.12337
aF0.174
aF0.2
aF0.2
aF0.2
aF0.2
aF0.2
aF0.2
aF0.2
aF0.3313
aF0.3313
aF0.3313
aF0.225
aF0.225
aF0.225
aF0.225
aF0.225
aF0.669
aF0.669
aF0.669
aF0.669
aF0.24141
aF0.24141
aF0.24141
aF0.24141
aF0.24141
aF0.24141
aF0.23998
aF0.23998
aF0.23998
aF0.23998
aF0.16308
aF0.17359
aF0.03806
aF0.03806
aF0.03806
aF0.03806
aF0.40691
aF0.40691
aF0.40691
aF0.3721
aF0.1505
aF0.1505
aF0.1505
aF0.1505
aF0.18417
aF0.18417
aF0.04001
aF0.04001
aF0.04001
aF0.271
aF0.271
aF0.271
aF0.271
aF0.271
aF0.271
aF0.35568
aF0.35568
aF0.35568
aF0.099
aF0.16263
aF0.65873
aF0.35894
aF0.35894
aF0.069
aF0.069
aF0.069
aF0.069
aF0.20466
aF0.42616
aF0.23137
aF0.50378
aF0.50378
aF0.29586
aF0.07564
aF0.07564
aF0.07564
aF0.07564
aF0.47056
aF0.47056
aF1.01545
aF1.01545
aF0.11522
aF0.335
aF0.335
aF0.335
aF0.335
aF0.335
aF0.335
aF0.22706
aF0.22706
aF0.22706
aF0.11631
aF0.2119
aF0.2119
aF0.37194
aF0.37194
aF0.37194
aF0.54689
aF0.54689
aF0.54689
aF0.3115
aF0.3115
aF0.3115
aF0.3711
aF0.07921
aF0.07921
asS'Dec_targets'
p15
(lp16
F65.71944444444445
aF65.71944444444445
aF65.71944444444445
aF65.71944444444445
aF65.71944444444445
aF-57.20027777777778
aF-57.20027777777778
aF-57.20027777777778
aF1.256388888888889
aF-17.581944444444446
aF-17.581944444444446
aF-17.581944444444446
aF-17.581944444444446
aF-17.581944444444446
aF73.21944444444445
aF73.21944444444445
aF73.21944444444445
aF-52.805
aF-52.805
aF-52.805
aF-52.805
aF76.8861111111111
aF76.8861111111111
aF-10.555555555555555
aF-10.555555555555555
aF-10.555555555555555
aF-10.555555555555555
aF18.088055555555556
aF18.088055555555556
aF18.088055555555556
aF18.088055555555556
aF18.088055555555556
aF18.088055555555556
aF18.088055555555556
aF71.34333333333333
aF71.34333333333333
aF71.34333333333333
aF71.34333333333333
aF71.34333333333333
aF5.216944444444445
aF5.216944444444445
aF-53.191944444444445
aF-53.191944444444445
aF-53.191944444444445
aF-53.191944444444445
aF-53.191944444444445
aF32.41861111111111
aF19.90111111111111
aF30.055833333333332
aF30.055833333333332
aF30.055833333333332
aF30.055833333333332
aF74.13638888888889
aF74.13638888888889
aF-30.513333333333332
aF-30.513333333333332
aF-30.513333333333332
aF-30.513333333333332
aF-30.513333333333332
aF-30.513333333333332
aF-23.491944444444446
aF-23.491944444444446
aF2.7680555555555557
aF16.570555555555554
aF38.484722222222224
aF38.484722222222224
aF-35.645
aF55.285833333333336
aF-0.5261111111111111
aF-0.5261111111111111
aF27.936944444444446
aF27.936944444444446
aF27.936944444444446
aF3.3005555555555555
aF12.815555555555555
aF12.815555555555555
aF12.815555555555555
aF68.16833333333334
aF68.16833333333334
aF68.16833333333334
aF12.051944444444445
aF12.051944444444445
aF12.051944444444445
aF53.03055555555556
aF53.03055555555556
aF53.03055555555556
aF14.695
aF14.695
aF14.695
aF14.695
aF14.695
aF14.695
aF-35.66305555555556
aF18.745277777777776
aF18.745277777777776
aF24.501666666666665
aF24.501666666666665
aF24.501666666666665
aF58.010555555555555
aF32.772222222222226
aF13.679166666666667
aF13.679166666666667
aF65.99444444444444
aF57.603611111111114
aF57.603611111111114
aF57.603611111111114
aF57.603611111111114
aF32.89361111111111
aF32.89361111111111
aF26.55361111111111
aF25.023055555555555
aF47.191944444444445
aF3.4294444444444445
aF43.035555555555554
aF43.035555555555554
aF50.89333333333333
aF50.89333333333333
aF28.32888888888889
aF28.32888888888889
aF28.32888888888889
aF35.25555555555555
aF35.25555555555555
aF45.595555555555556
aF45.595555555555556
aF36.346944444444446
aF36.346944444444446
aF36.346944444444446
aF36.346944444444446
aF14.111666666666666
aF14.111666666666666
aF14.111666666666666
aF32.60861111111111
aF32.60861111111111
aF59.7375
aF-8.95111111111111
aF-8.95111111111111
aF11.677777777777777
aF7.206666666666667
aF53.305
aF53.305
aF27.830833333333334
aF27.830833333333334
aF14.053611111111111
aF14.053611111111111
aF14.053611111111111
aF14.053611111111111
aF-64.60527777777777
aF-64.60527777777777
aF31.325555555555557
aF31.325555555555557
aF25.25638888888889
aF25.25638888888889
aF4.594722222222222
aF4.594722222222222
aF4.594722222222222
aF4.594722222222222
aF28.63361111111111
aF28.63361111111111
aF28.63361111111111
aF28.63361111111111
aF28.232777777777777
aF28.232777777777777
aF28.232777777777777
aF30.116944444444446
aF30.116944444444446
aF11.52138888888889
aF11.52138888888889
aF11.52138888888889
aF6.726388888888889
aF6.726388888888889
aF25.924444444444443
aF-30.123055555555556
aF-30.123055555555556
aF-30.123055555555556
aF30.27027777777778
aF30.27027777777778
aF15.913055555555555
aF15.913055555555555
aF15.913055555555555
aF11.858055555555556
aF11.858055555555556
aF11.858055555555556
aF11.858055555555556
aF36.33
aF36.33
aF36.33
aF59.172777777777775
aF59.172777777777775
aF59.172777777777775
aF59.172777777777775
aF46.36805555555556
aF31.063333333333333
aF9.838611111111112
aF40.45444444444445
aF40.45444444444445
aF33.895
aF33.895
aF33.895
aF24.994722222222222
aF24.994722222222222
aF24.994722222222222
aF24.994722222222222
aF24.994722222222222
aF32.240833333333335
aF32.240833333333335
aF32.240833333333335
aF32.240833333333335
aF-26.899722222222223
aF0.8797222222222222
aF0.8797222222222222
aF0.8797222222222222
aF5.09
aF5.09
aF5.09
aF7.206666666666667
aF7.206666666666667
aF13.675555555555556
aF5.2444444444444445
aF5.2444444444444445
aF5.2444444444444445
aF5.2444444444444445
aF5.2444444444444445
aF5.2444444444444445
aF75.31055555555555
aF75.31055555555555
aF58.05638888888889
aF58.05638888888889
aF36.67777777777778
aF36.67777777777778
aF36.67777777777778
aF30.176944444444445
aF-10.723333333333333
aF-12.19361111111111
aF2.0525
aF-8.788055555555555
aF44.00388888888889
aF44.00388888888889
aF38.208888888888886
aF38.208888888888886
aF58.794444444444444
aF-30.225555555555555
aF-30.225555555555555
aF-30.225555555555555
aF-4.401944444444444
aF-4.401944444444444
aF-4.401944444444444
aF-4.401944444444444
aF76.04527777777778
aF76.04527777777778
aF-58.80583333333333
aF64.34333333333333
aF64.34333333333333
aF21.321666666666665
aF21.321666666666665
aF21.321666666666665
aF-58.67027777777778
aF-58.67027777777778
aF-28.349166666666665
aF65.7975
aF65.7975
aF65.7975
aF65.7975
aF65.7975
aF-62.4
aF-62.4
aF11.190277777777778
aF11.190277777777778
aF11.190277777777778
aF11.190277777777778
aF11.190277777777778
aF11.190277777777778
aF-4.310833333333333
aF-4.310833333333333
aF-22.38222222222222
aF-22.38222222222222
aF-22.38222222222222
aF-22.38222222222222
aF-22.38222222222222
aF-44.235
aF-44.235
aF-44.235
aF-44.235
aF29.327222222222222
aF29.327222222222222
aF29.327222222222222
aF29.327222222222222
aF29.327222222222222
aF29.327222222222222
aF25.4275
aF25.4275
aF10.13861111111111
aF10.13861111111111
aF-14.28111111111111
aF-14.28111111111111
aF-46.86638888888889
aF-46.86638888888889
aF-36.10138888888889
aF-36.10138888888889
aF26.325555555555557
aF-40.95444444444445
aF-40.95444444444445
aF-40.95444444444445
aF-40.95444444444445
aF-40.95444444444445
aF39.68638888888889
aF39.68638888888889
aF39.68638888888889
aF39.68638888888889
aF10.437777777777777
aF10.437777777777777
aF10.437777777777777
aF59.03527777777778
aF55.37555555555556
aF55.37555555555556
aF14.239166666666666
aF-28.35861111111111
aF-28.35861111111111
aF20.871111111111112
aF-38.477777777777774
aF-38.477777777777774
aF-38.477777777777774
aF-38.477777777777774
aF33.99055555555555
aF28.926666666666666
aF28.926666666666666
aF9.975
aF9.975
aF9.975
aF9.975
aF40.43194444444445
aF40.43194444444445
aF40.43194444444445
aF55.360277777777775
aF55.360277777777775
aF55.360277777777775
aF55.360277777777775
aF55.360277777777775
aF-1.1536111111111111
aF-12.763333333333334
aF-12.763333333333334
aF-12.763333333333334
aF-12.763333333333334
aF-12.763333333333334
aF-12.763333333333334
aF-12.763333333333334
aF6.643888888888889
aF6.643888888888889
aF6.643888888888889
aF42.02916666666667
aF42.02916666666667
aF42.02916666666667
aF42.02916666666667
aF42.02916666666667
aF-11.542777777777777
aF-11.542777777777777
aF-11.542777777777777
aF-11.542777777777777
aF-31.84
aF-31.84
aF-31.84
aF-31.84
aF-31.84
aF-31.84
aF46.74
aF46.74
aF46.74
aF46.74
aF0.39472222222222225
aF-40.680277777777775
aF36.88583333333333
aF36.88583333333333
aF36.88583333333333
aF36.88583333333333
aF24.705555555555556
aF24.705555555555556
aF24.705555555555556
aF14.814444444444444
aF17.07888888888889
aF17.07888888888889
aF17.07888888888889
aF17.07888888888889
aF25.06
aF25.06
aF-53.61555555555555
aF-53.61555555555555
aF-53.61555555555555
aF3.4138888888888888
aF3.4138888888888888
aF3.4138888888888888
aF3.4138888888888888
aF3.4138888888888888
aF3.4138888888888888
aF52.098333333333336
aF52.098333333333336
aF52.098333333333336
aF56.26833333333333
aF5.065277777777778
aF46.32388888888889
aF56.82222222222222
aF56.82222222222222
aF-61.8
aF-61.8
aF-61.8
aF-61.8
aF35.19
aF-52.98027777777778
aF28.465555555555557
aF13.765
aF13.765
aF37.253055555555555
aF27.330833333333334
aF27.330833333333334
aF27.330833333333334
aF27.330833333333334
aF23.580555555555556
aF23.580555555555556
aF42.88166666666667
aF42.88166666666667
aF46.41027777777778
aF-41.873333333333335
aF-41.873333333333335
aF-41.873333333333335
aF-41.873333333333335
aF-41.873333333333335
aF-41.873333333333335
aF42.5975
aF42.5975
aF42.5975
aF33.50222222222222
aF39.92916666666667
aF39.92916666666667
aF60.74138888888889
aF60.74138888888889
aF60.74138888888889
aF4.223055555555556
aF4.223055555555556
aF4.223055555555556
aF76.98277777777778
aF76.98277777777778
aF76.98277777777778
aF24.460833333333333
aF52.97611111111111
aF52.97611111111111
asS'Nas'
p17
(lp18
F3060000000000.0
aF1890000000000.0
aF20600000000000.0
aF5280000000000.0
aF2430000000000.0
aF1670000000000.0
aF7570000000000.0
aF6780000000000.0
aF12200000000000.0
aF6840000000000.0
aF15500000000000.0
aF3880000000000.0
aF7740000000000.0
aF45200000000000.0
aF16000000000000.0
aF8700000000000.0
aF10400000000000.0
aF9780000000000.0
aF13300000000000.0
aF8040000000000.0
aF6580000000000.0
aF13900000000000.0
aF6950000000000.0
aF10600000000000.0
aF13200000000000.0
aF4140000000000.0
aF6980000000000.0
aF9390000000000.0
aF10800000000000.0
aF91500000000000.0
aF33700000000000.0
aF3900000000000.0
aF101000000000000.0
aF7760000000000.0
aF7550000000000.0
aF9900000000000.0
aF38400000000000.0
aF12800000000000.0
aF10500000000000.0
aF119000000000000.0
aF48000000000000.0
aF10200000000000.0
aF30000000000000.0
aF7160000000000.0
aF2680000000000.0
aF6440000000000.0
aF14600000000000.0
aF68900000000000.0
aF7710000000000.0
aF7810000000000.0
aF34900000000000.0
aF7600000000000.0
aF10800000000000.0
aF4770000000000.0
aF5580000000000.0
aF6640000000000.0
aF5970000000000.0
aF11200000000000.0
aF11300000000000.0
aF9470000000000.0
aF7580000000000.0
aF7430000000000.0
aF23500000000000.0
aF30800000000000.0
aF10300000000000.0
aF95000000000000.0
aF18900000000000.0
aF32200000000000.0
aF5480000000000.0
aF2990000000000.0
aF10300000000000.0
aF18500000000000.0
aF46300000000000.0
aF10100000000000.0
aF6830000000000.0
aF8390000000000.0
aF17400000000000.0
aF41500000000000.0
aF75000000000000.0
aF20600000000000.0
aF7750000000000.0
aF332000000000000.0
aF13200000000000.0
aF48600000000000.0
aF59800000000000.0
aF19500000000000.0
aF23800000000000.0
aF143000000000000.0
aF61900000000000.0
aF189000000000000.0
aF32400000000000.0
aF44900000000000.0
aF13900000000000.0
aF19700000000000.0
aF14000000000000.0
aF109000000000000.0
aF31400000000000.0
aF19700000000000.0
aF56300000000000.0
aF20600000000000.0
aF20600000000000.0
aF225000000000000.0
aF32800000000000.0
aF9600000000000.0
aF12000000000000.0
aF14500000000000.0
aF9290000000000.0
aF14200000000000.0
aF15100000000000.0
aF20500000000000.0
aF94600000000000.0
aF48600000000000.0
aF47000000000000.0
aF4830000000000.0
aF26400000000000.0
aF16600000000000.0
aF16400000000000.0
aF20400000000000.0
aF19300000000000.0
aF17600000000000.0
aF10800000000000.0
aF36100000000000.0
aF6400000000000.0
aF17100000000000.0
aF10100000000000.0
aF17900000000000.0
aF25000000000000.0
aF118000000000000.0
aF134000000000000.0
aF30000000000000.0
aF43600000000000.0
aF14900000000000.0
aF15200000000000.0
aF10100000000000.0
aF55300000000000.0
aF17600000000000.0
aF19100000000000.0
aF104000000000000.0
aF14000000000000.0
aF59400000000000.0
aF32800000000000.0
aF72500000000000.0
aF36500000000000.0
aF58000000000000.0
aF3080000000000.0
aF1760000000000.0
aF13000000000000.0
aF89500000000000.0
aF167000000000000.0
aF15200000000000.0
aF27100000000000.0
aF21100000000000.0
aF12100000000000.0
aF32400000000000.0
aF7930000000000.0
aF19400000000000.0
aF17900000000000.0
aF12200000000000.0
aF20800000000000.0
aF14100000000000.0
aF12100000000000.0
aF14400000000000.0
aF28500000000000.0
aF27700000000000.0
aF15400000000000.0
aF16500000000000.0
aF10100000000000.0
aF22800000000000.0
aF16500000000000.0
aF11900000000000.0
aF18700000000000.0
aF10100000000000.0
aF11600000000000.0
aF7320000000000.0
aF72500000000000.0
aF16100000000000.0
aF32200000000000.0
aF14400000000000.0
aF128000000000000.0
aF46800000000000.0
aF15100000000000.0
aF9010000000000.0
aF8310000000000.0
aF70100000000000.0
aF215000000000000.0
aF71900000000000.0
aF8890000000000.0
aF34100000000000.0
aF15600000000000.0
aF6560000000000.0
aF32600000000000.0
aF7550000000000.0
aF41700000000000.0
aF22400000000000.0
aF19400000000000.0
aF46300000000000.0
aF26500000000000.0
aF120000000000000.0
aF24800000000000.0
aF13300000000000.0
aF14300000000000.0
aF11200000000000.0
aF108000000000000.0
aF41200000000000.0
aF13100000000000.0
aF13200000000000.0
aF32500000000000.0
aF53200000000000.0
aF27700000000000.0
aF17900000000000.0
aF25700000000000.0
aF8860000000000.0
aF25500000000000.0
aF8680000000000.0
aF104000000000000.0
aF104000000000000.0
aF158000000000000.0
aF27400000000000.0
aF82300000000000.0
aF23500000000000.0
aF44100000000000.0
aF35000000000000.0
aF11000000000000.0
aF16200000000000.0
aF12500000000000.0
aF14300000000000.0
aF16800000000000.0
aF25900000000000.0
aF89900000000000.0
aF37000000000000.0
aF11800000000000.0
aF50000000000000.0
aF6430000000000.0
aF8280000000000.0
aF9380000000000.0
aF39700000000000.0
aF25600000000000.0
aF15700000000000.0
aF2360000000000.0
aF9680000000000.0
aF9780000000000.0
aF13400000000000.0
aF4090000000000.0
aF38300000000000.0
aF12100000000000.0
aF17900000000000.0
aF4990000000000.0
aF2310000000000.0
aF108000000000000.0
aF15100000000000.0
aF7600000000000.0
aF116000000000000.0
aF26400000000000.0
aF7740000000000.0
aF55600000000000.0
aF10000000000000.0
aF5030000000000.0
aF6910000000000.0
aF10500000000000.0
aF2200000000000.0
aF8420000000000.0
aF2530000000000.0
aF29500000000000.0
aF14700000000000.0
aF5290000000000.0
aF20600000000000.0
aF3310000000000.0
aF9790000000000.0
aF9590000000000.0
aF6790000000000.0
aF5710000000000.0
aF10600000000000.0
aF31300000000000.0
aF14000000000000.0
aF12000000000000.0
aF8940000000000.0
aF69800000000000.0
aF11700000000000.0
aF8190000000000.0
aF10700000000000.0
aF22200000000000.0
aF3630000000000.0
aF5100000000000.0
aF8300000000000.0
aF11600000000000.0
aF8940000000000.0
aF4520000000000.0
aF94300000000000.0
aF22100000000000.0
aF15900000000000.0
aF8860000000000.0
aF56100000000000.0
aF19100000000000.0
aF13500000000000.0
aF12500000000000.0
aF4450000000000.0
aF20600000000000.0
aF27000000000000.0
aF6340000000000.0
aF4750000000000.0
aF14800000000000.0
aF6770000000000.0
aF21300000000000.0
aF2520000000000.0
aF3260000000000.0
aF6830000000000.0
aF9080000000000.0
aF4040000000000.0
aF4750000000000.0
aF21800000000000.0
aF20000000000000.0
aF40800000000000.0
aF15800000000000.0
aF6710000000000.0
aF10400000000000.0
aF13200000000000.0
aF7420000000000.0
aF7580000000000.0
aF7790000000000.0
aF129000000000000.0
aF23100000000000.0
aF3010000000000.0
aF9960000000000.0
aF6520000000000.0
aF12400000000000.0
aF32000000000000.0
aF8800000000000.0
aF10000000000000.0
aF3820000000000.0
aF4380000000000.0
aF165000000000000.0
aF19100000000000.0
aF97100000000000.0
aF14000000000000.0
aF9240000000000.0
aF10100000000000.0
aF8920000000000.0
aF49300000000000.0
aF13200000000000.0
aF9230000000000.0
aF70900000000000.0
aF26200000000000.0
aF13300000000000.0
aF7370000000000.0
aF11400000000000.0
aF3060000000000.0
aF32200000000000.0
aF36500000000000.0
aF13000000000000.0
aF11600000000000.0
aF7880000000000.0
aF21200000000000.0
aF15500000000000.0
aF7060000000000.0
aF5580000000000.0
aF6410000000000.0
aF2570000000000.0
aF26000000000000.0
aF7340000000000.0
aF46300000000000.0
aF7490000000000.0
aF6300000000000.0
aF100000000000000.0
aF12300000000000.0
aF94700000000000.0
aF54600000000000.0
aF37000000000000.0
aF36100000000000.0
aF9310000000000.0
aF38900000000000.0
aF13400000000000.0
aF23200000000000.0
aF36400000000000.0
aF5530000000000.0
aF5720000000000.0
aF19100000000000.0
aF61700000000000.0
aF10900000000000.0
aF13500000000000.0
aF6760000000000.0
aF5360000000000.0
aF12400000000000.0
aF327000000000000.0
aF39600000000000.0
aF31000000000000.0
aF237000000000000.0
aF6340000000000.0
aF18500000000000.0
aF12400000000000.0
aF7810000000000.0
aF22300000000000.0
aF38100000000000.0
aF2700000000000.0
aF48100000000000.0
aF4280000000000.0
aF9120000000000.0
aF24800000000000.0
aF53300000000000.0
aF10900000000000.0
aF226000000000000.0
aF26000000000000.0
aF37400000000000.0
aF195000000000000.0
aF17000000000000.0
aF20200000000000.0
aF18200000000000.0
aF22600000000000.0
aF10100000000000.0
aF11700000000000.0
aF8180000000000.0
aF22900000000000.0
aF22200000000000.0
aF8370000000000.0
aF22100000000000.0
aF26600000000000.0
aF21700000000000.0
aF23300000000000.0
aF6900000000000.0
aF13300000000000.0
aF21800000000000.0
aF128000000000000.0
aF37700000000000.0
aF12900000000000.0
aF88500000000000.0
aF164000000000000.0
aF14300000000000.0
aF42000000000000.0
aF51400000000000.0
aF12500000000000.0
aF81200000000000.0
aF14900000000000.0
aF17200000000000.0
aF51400000000000.0
aF5720000000000.0
aF45400000000000.0
aF37000000000000.0
aF65400000000000.0
aF62000000000000.0
aF81600000000000.0
aF107000000000000.0
aF13200000000000.0
aF82800000000000.0
aF13400000000000.0
asS'Ws'
p19
(lp20
F37.2
aF23.3
aF58.9
aF69.3
aF31.9
aF29.2
aF50.7
aF38.9
aF58.1
aF35.7
aF65.6
aF26.0
aF59.6
aF67.9
aF112.2
aF75.4
aF82.5
aF42.3
aF49.6
aF39.1
aF30.6
aF77.9
aF51.6
aF39.2
aF53.2
aF26.8
aF36.0
aF59.0
aF40.1
aF63.8
aF111.6
aF21.9
aF80.7
aF40.2
aF63.6
aF83.1
aF73.9
aF64.3
aF46.4
aF74.4
aF89.3
aF55.2
aF66.7
aF29.8
aF13.5
aF46.3
aF39.7
aF125.2
aF48.7
aF50.6
aF42.6
aF61.6
aF90.2
aF44.6
aF34.6
aF55.5
aF23.1
aF51.2
aF66.7
aF50.7
aF49.0
aF36.1
aF56.6
aF75.5
aF58.0
aF86.3
aF51.8
aF53.3
aF41.2
aF17.5
aF70.0
aF87.6
aF43.9
aF81.1
aF31.0
aF36.0
aF59.6
aF72.5
aF70.5
aF51.7
aF35.9
aF111.0
aF55.8
aF61.6
aF72.3
aF61.8
aF54.7
aF149.6
aF79.8
aF71.8
aF57.2
aF34.2
aF41.4
aF59.9
aF27.4
aF60.2
aF60.8
aF71.0
aF50.6
aF66.8
aF66.5
aF90.9
aF74.0
aF53.7
aF30.1
aF37.0
aF48.1
aF57.1
aF53.4
aF57.0
aF66.5
aF59.8
aF65.6
aF27.7
aF49.1
aF57.2
aF87.9
aF53.9
aF66.7
aF43.8
aF51.1
aF80.2
aF29.2
aF90.6
aF63.5
aF72.0
aF71.7
aF112.1
aF70.0
aF42.6
aF67.3
aF53.5
aF45.1
aF42.8
aF90.5
aF51.2
aF66.0
aF71.8
aF48.9
aF76.1
aF51.2
aF108.9
aF61.6
aF71.9
aF31.3
aF14.5
aF50.9
aF64.9
aF91.4
aF636.0
aF111.4
aF71.3
aF43.2
aF43.3
aF25.5
aF47.6
aF45.1
aF53.2
aF43.2
aF56.4
aF40.8
aF27.2
aF55.5
aF60.1
aF56.5
aF67.6
aF63.0
aF83.4
aF46.5
aF72.3
aF51.7
aF32.0
aF67.0
aF29.8
aF82.7
aF36.4
aF63.4
aF52.0
aF70.4
aF84.7
aF53.3
aF32.2
aF30.4
aF82.5
aF91.4
aF49.9
aF36.7
aF65.5
aF39.0
aF30.5
aF42.5
aF22.6
aF75.3
aF69.0
aF52.3
aF57.6
aF48.5
aF62.5
aF145.3
aF60.3
aF62.3
aF34.5
aF66.0
aF81.2
aF48.3
aF37.3
aF43.0
aF36.6
aF95.9
aF45.3
aF93.8
aF36.3
aF50.3
aF53.3
aF71.8
aF71.8
aF158.0
aF68.2
aF59.4
aF56.9
aF68.0
aF67.6
aF37.6
aF44.7
aF29.3
aF81.6
aF141.6
aF63.3
aF113.7
aF52.2
aF66.3
aF71.7
aF44.9
aF51.0
aF81.8
aF173.7
aF114.0
aF41.2
aF33.1
aF102.8
aF104.3
aF74.0
aF38.0
aF65.9
aF89.3
aF105.0
aF31.2
aF30.9
aF83.2
aF56.5
aF82.4
aF70.9
aF85.9
aF49.0
aF62.9
aF55.0
aF59.0
aF38.1
aF48.8
aF28.4
aF39.2
aF24.6
aF74.2
aF56.3
aF39.8
aF54.1
aF24.0
aF48.1
aF52.9
aF58.7
aF52.7
aF43.1
aF54.9
aF71.4
aF78.3
aF49.2
aF86.7
aF63.8
aF69.2
aF41.7
aF59.1
aF22.1
aF29.3
aF39.7
aF34.7
aF39.7
aF34.7
aF65.8
aF43.5
aF59.2
aF69.2
aF55.8
aF85.1
aF87.6
aF68.2
aF42.0
aF51.7
aF63.5
aF45.5
aF57.5
aF55.1
aF64.2
aF72.3
aF40.3
aF34.3
aF60.0
aF53.0
aF48.0
aF35.6
aF46.3
aF58.8
aF70.3
aF57.7
aF52.9
aF69.7
aF51.2
aF25.8
aF60.4
aF48.9
aF76.3
aF53.4
aF24.4
aF47.1
aF45.5
aF41.0
aF58.9
aF54.2
aF42.2
aF27.6
aF28.7
aF79.2
aF58.9
aF75.7
aF50.3
aF29.8
aF75.8
aF84.0
aF63.8
aF59.0
aF40.8
aF72.0
aF57.2
aF56.2
aF69.4
aF61.2
aF20.9
aF90.5
aF70.6
aF40.9
aF43.0
aF35.7
aF58.5
aF37.7
aF34.8
aF44.2
aF33.7
aF23.0
aF55.9
aF39.2
aF45.7
aF36.2
aF30.1
aF71.3
aF60.5
aF88.1
aF58.3
aF59.4
aF63.8
aF36.4
aF73.4
aF58.9
aF59.4
aF56.8
aF48.5
aF30.4
aF84.1
aF87.1
aF40.4
aF45.1
aF44.8
aF31.2
aF58.1
aF112.0
aF51.7
aF56.9
aF101.7
aF33.9
aF84.6
aF50.0
aF28.1
aF46.6
aF78.0
aF48.7
aF76.7
aF23.1
aF32.8
aF46.0
aF56.4
aF64.6
aF115.3
aF61.3
aF94.4
aF85.6
aF50.3
aF71.6
aF70.5
aF50.6
aF30.8
aF62.4
aF42.1
aF48.6
aF64.3
aF35.7
aF72.2
aF40.7
aF44.7
aF47.5
aF29.8
aF45.1
aF46.9
aF90.8
aF56.6
aF62.1
aF75.6
aF110.9
aF67.3
aF91.6
aF130.7
aF39.4
aF72.6
aF81.6
aF56.1
aF74.5
aF30.4
aF49.8
aF64.3
aF80.2
aF89.7
aF73.9
aF65.6
aF47.6
aF65.0
aF41.9
asS'Lya_Ws'
p21
(lp22
F16.0
aF10.0
aF96.0
aF28.0
aF13.0
aF9.0
aF39.0
aF34.0
aF61.0
aF34.0
aF76.0
aF20.0
aF40.0
aF188.0
aF81.0
aF45.0
aF53.0
aF48.0
aF64.0
aF40.0
aF33.0
aF70.0
aF36.0
aF52.0
aF64.0
aF21.0
aF35.0
aF47.0
aF52.0
aF288.0
aF161.0
aF20.0
aF336.0
aF39.0
aF39.0
aF51.0
aF167.0
aF64.0
aF52.0
aF350.0
aF205.0
aF50.0
aF134.0
aF35.0
aF13.0
aF32.0
aF67.0
aF289.0
aF39.0
aF39.0
aF128.0
aF39.0
aF55.0
aF25.0
aF28.0
aF34.0
aF29.0
aF55.0
aF57.0
aF47.0
aF38.0
aF37.0
aF106.0
aF140.0
aF52.0
aF327.0
aF85.0
aF136.0
aF28.0
aF15.0
aF52.0
aF91.0
aF161.0
aF51.0
aF33.0
aF41.0
aF82.0
aF176.0
aF264.0
aF94.0
aF37.0
aF648.0
aF64.0
aF190.0
aF220.0
aF91.0
aF107.0
aF517.0
aF243.0
aF410.0
aF137.0
aF144.0
aF64.0
aF91.0
aF62.0
aF302.0
aF136.0
aF93.0
aF198.0
aF95.0
aF97.0
aF500.0
aF146.0
aF48.0
aF53.0
aF66.0
aF46.0
aF68.0
aF71.0
aF93.0
aF279.0
aF181.0
aF182.0
aF24.0
aF113.0
aF79.0
aF82.0
aF93.0
aF93.0
aF80.0
aF53.0
aF162.0
aF32.0
aF84.0
aF50.0
aF86.0
aF117.0
aF395.0
aF360.0
aF122.0
aF178.0
aF72.0
aF69.0
aF49.0
aF230.0
aF81.0
aF90.0
aF324.0
aF66.0
aF229.0
aF135.0
aF295.0
aF153.0
aF228.0
aF16.0
aF9.0
aF63.0
aF283.0
aF451.0
aF73.0
aF128.0
aF99.0
aF59.0
aF129.0
aF38.0
aF89.0
aF80.0
aF60.0
aF93.0
aF68.0
aF58.0
aF61.0
aF123.0
aF124.0
aF74.0
aF80.0
aF51.0
aF108.0
aF76.0
aF60.0
aF86.0
aF48.0
aF58.0
aF36.0
aF269.0
aF72.0
aF138.0
aF66.0
aF340.0
aF202.0
aF72.0
aF43.0
aF40.0
aF266.0
aF493.0
aF223.0
aF43.0
aF148.0
aF71.0
aF32.0
aF129.0
aF35.0
aF170.0
aF104.0
aF90.0
aF178.0
aF111.0
aF314.0
aF124.0
aF65.0
aF70.0
aF53.0
aF317.0
aF180.0
aF61.0
aF62.0
aF125.0
aF194.0
aF126.0
aF77.0
aF121.0
aF42.0
aF110.0
aF44.0
aF324.0
aF324.0
aF555.0
aF124.0
aF253.0
aF106.0
aF179.0
aF150.0
aF52.0
aF75.0
aF57.0
aF72.0
aF86.0
aF117.0
aF352.0
aF150.0
aF57.0
aF203.0
aF33.0
aF42.0
aF49.0
aF196.0
aF127.0
aF73.0
aF12.0
aF50.0
aF51.0
aF67.0
aF21.0
aF161.0
aF61.0
aF91.0
aF25.0
aF12.0
aF349.0
aF73.0
aF40.0
aF338.0
aF126.0
aF39.0
aF212.0
aF50.0
aF26.0
aF35.0
aF52.0
aF12.0
aF42.0
aF13.0
aF134.0
aF71.0
aF27.0
aF95.0
aF17.0
aF48.0
aF48.0
aF35.0
aF29.0
aF52.0
aF134.0
aF70.0
aF61.0
aF45.0
aF274.0
aF59.0
aF42.0
aF52.0
aF102.0
aF18.0
aF26.0
aF41.0
aF55.0
aF44.0
aF23.0
aF300.0
aF97.0
aF76.0
aF45.0
aF204.0
aF94.0
aF68.0
aF63.0
aF23.0
aF95.0
aF120.0
aF32.0
aF25.0
aF72.0
aF35.0
aF102.0
aF13.0
aF17.0
aF35.0
aF46.0
aF21.0
aF24.0
aF96.0
aF94.0
aF172.0
aF76.0
aF35.0
aF53.0
aF64.0
aF35.0
aF39.0
aF39.0
aF378.0
aF102.0
aF15.0
aF49.0
aF33.0
aF59.0
aF138.0
aF44.0
aF49.0
aF20.0
aF22.0
aF422.0
aF89.0
aF323.0
aF68.0
aF44.0
aF51.0
aF46.0
aF196.0
aF64.0
aF45.0
aF257.0
aF117.0
aF65.0
aF38.0
aF57.0
aF16.0
aF150.0
aF158.0
aF61.0
aF56.0
aF39.0
aF98.0
aF69.0
aF35.0
aF29.0
aF32.0
aF13.0
aF116.0
aF37.0
aF168.0
aF37.0
aF31.0
aF305.0
aF61.0
aF339.0
aF204.0
aF155.0
aF155.0
aF45.0
aF169.0
aF65.0
aF107.0
aF150.0
aF28.0
aF29.0
aF94.0
aF249.0
aF53.0
aF64.0
aF34.0
aF26.0
aF60.0
aF654.0
aF158.0
aF134.0
aF555.0
aF32.0
aF91.0
aF60.0
aF37.0
aF99.0
aF167.0
aF61.0
aF200.0
aF21.0
aF44.0
aF108.0
aF198.0
aF55.0
aF583.0
aF117.0
aF168.0
aF471.0
aF80.0
aF95.0
aF88.0
aF100.0
aF47.0
aF58.0
aF41.0
aF99.0
aF102.0
aF41.0
aF103.0
aF110.0
aF95.0
aF98.0
aF33.0
aF62.0
aF95.0
aF398.0
aF156.0
aF64.0
aF294.0
aF503.0
aF69.0
aF187.0
aF233.0
aF58.0
aF281.0
aF74.0
aF81.0
aF207.0
aF29.0
aF171.0
aF157.0
aF255.0
aF249.0
aF287.0
aF294.0
aF63.0
aF270.0
aF62.0
asS'Lya_vs'
p23
(lp24
F4508.0
aF5036.0
aF6037.0
aF7005.0
aF9895.0
aF2020.0
aF8819.0
aF9962.0
aF7553.0
aF888.0
aF2265.0
aF4698.0
aF8429.0
aF9735.0
aF2390.0
aF4261.0
aF4767.0
aF2780.0
aF4656.0
aF5291.0
aF8063.0
aF2203.0
aF4326.0
aF5857.0
aF6596.0
aF9805.0
aF9856.0
aF2036.0
aF2872.0
aF2946.0
aF6967.0
aF8156.0
aF9964.0
aF10083.0
aF3840.0
aF5283.0
aF6271.0
aF6595.0
aF7799.0
aF2425.0
aF6840.0
aF4332.0
aF5259.0
aF6370.0
aF8033.0
aF9119.0
aF6242.0
aF6018.0
aF4076.0
aF4788.0
aF5013.0
aF5640.0
aF5317.0
aF9558.0
aF2624.0
aF3096.0
aF5681.0
aF7145.0
aF7487.0
aF9881.0
aF5835.0
aF8860.0
aF9219.0
aF9242.0
aF6641.0
aF8043.0
aF8391.0
aF3598.0
aF4308.0
aF4678.0
aF7387.0
aF7945.0
aF8670.0
aF9890.0
aF3252.0
aF3493.0
aF6942.0
aF7204.0
aF8838.0
aF8935.0
aF3956.0
aF7337.0
aF9040.0
aF2374.0
aF5798.0
aF7957.0
aF5278.0
aF5411.0
aF7107.0
aF7243.0
aF9322.0
aF9385.0
aF8391.0
aF2789.0
aF6085.0
aF5826.0
aF6025.0
aF9616.0
aF7262.0
aF7926.0
aF8695.0
aF8870.0
aF574.0
aF8451.0
aF9008.0
aF9175.0
aF9809.0
aF5487.0
aF8003.0
aF8955.0
aF6261.0
aF9847.0
aF6384.0
aF4301.0
aF8188.0
aF6550.0
aF6758.0
aF1753.0
aF2320.0
aF2502.0
aF6931.0
aF7039.0
aF2484.0
aF2767.0
aF2560.0
aF5464.0
aF6174.0
aF6587.0
aF5445.0
aF8358.0
aF8428.0
aF7917.0
aF7971.0
aF7232.0
aF4761.0
aF8046.0
aF9736.0
aF7021.0
aF8867.0
aF9883.0
aF4059.0
aF6718.0
aF4943.0
aF5022.0
aF8392.0
aF8814.0
aF1276.0
aF3683.0
aF2655.0
aF2822.0
aF4762.0
aF5291.0
aF2586.0
aF5092.0
aF5825.0
aF8804.0
aF5782.0
aF7272.0
aF7350.0
aF9219.0
aF1619.0
aF4167.0
aF4383.0
aF9136.0
aF9255.0
aF2042.0
aF2176.0
aF8255.0
aF5701.0
aF7162.0
aF6343.0
aF3011.0
aF3759.0
aF4042.0
aF2854.0
aF3015.0
aF6304.0
aF6788.0
aF6901.0
aF1974.0
aF2801.0
aF3717.0
aF9920.0
aF6169.0
aF6528.0
aF6639.0
aF7325.0
aF8640.0
aF9064.0
aF9779.0
aF5339.0
aF1790.0
aF5505.0
aF6492.0
aF9939.0
aF1515.0
aF2157.0
aF5765.0
aF3536.0
aF7719.0
aF7921.0
aF8335.0
aF8421.0
aF3284.0
aF3711.0
aF5370.0
aF5509.0
aF4083.0
aF1738.0
aF2941.0
aF9975.0
aF2065.0
aF3429.0
aF9994.0
aF7021.0
aF7021.0
aF3240.0
aF2469.0
aF2594.0
aF4138.0
aF4351.0
aF4854.0
aF9750.0
aF7012.0
aF7393.0
aF3794.0
aF4053.0
aF5658.0
aF7640.0
aF7774.0
aF9199.0
aF2544.0
aF2752.0
aF7857.0
aF7439.0
aF1522.0
aF1747.0
aF3023.0
aF3909.0
aF5047.0
aF2644.0
aF5683.0
aF7745.0
aF4740.0
aF5271.0
aF8127.0
aF9820.0
aF2962.0
aF5537.0
aF9515.0
aF2818.0
aF7313.0
aF4885.0
aF5806.0
aF8482.0
aF2140.0
aF5283.0
aF5924.0
aF2175.0
aF3910.0
aF8954.0
aF9651.0
aF9764.0
aF8329.0
aF8419.0
aF2128.0
aF2371.0
aF2537.0
aF3001.0
aF5193.0
aF9741.0
aF3496.0
aF5471.0
aF1932.0
aF2795.0
aF3003.0
aF5519.0
aF6306.0
aF3588.0
aF8103.0
aF9038.0
aF9517.0
aF3525.0
aF3560.0
aF3635.0
aF3677.0
aF6297.0
aF8020.0
aF2155.0
aF3277.0
aF6658.0
aF8313.0
aF2003.0
aF4564.0
aF2821.0
aF8067.0
aF5127.0
aF8455.0
aF8051.0
aF3644.0
aF5233.0
aF7592.0
aF8027.0
aF9292.0
aF2401.0
aF3960.0
aF4886.0
aF8340.0
aF3058.0
aF3217.0
aF5657.0
aF6643.0
aF8251.0
aF9193.0
aF6613.0
aF1663.0
aF3212.0
aF6309.0
aF4869.0
aF5755.0
aF5863.0
aF6531.0
aF7229.0
aF8789.0
aF9198.0
aF2438.0
aF3726.0
aF6741.0
aF8929.0
aF2491.0
aF6414.0
aF8843.0
aF2396.0
aF3533.0
aF3809.0
aF8203.0
aF8824.0
aF2281.0
aF1433.0
aF4896.0
aF6889.0
aF7123.0
aF8461.0
aF8818.0
aF9009.0
aF5261.0
aF5678.0
aF7177.0
aF2580.0
aF2976.0
aF3138.0
aF4336.0
aF9284.0
aF4581.0
aF5370.0
aF6685.0
aF8113.0
aF2012.0
aF2110.0
aF2828.0
aF2901.0
aF5278.0
aF8965.0
aF7704.0
aF8335.0
aF8480.0
aF9788.0
aF8418.0
aF7681.0
aF3041.0
aF3541.0
aF7042.0
aF8310.0
aF2241.0
aF2804.0
aF5662.0
aF9934.0
aF3180.0
aF3287.0
aF6640.0
aF7155.0
aF2126.0
aF9067.0
aF3949.0
aF4951.0
aF8953.0
aF1402.0
aF3287.0
aF5060.0
aF6440.0
aF7448.0
aF8061.0
aF2749.0
aF5724.0
aF9717.0
aF9108.0
aF9951.0
aF3117.0
aF2312.0
aF8923.0
aF5111.0
aF5178.0
aF7529.0
aF7659.0
aF7329.0
aF3936.0
aF6632.0
aF3524.0
aF9741.0
aF6698.0
aF2028.0
aF5920.0
aF8102.0
aF9814.0
aF3928.0
aF4081.0
aF3228.0
aF5590.0
aF7420.0
aF2023.0
aF5286.0
aF8503.0
aF8972.0
aF9621.0
aF9757.0
aF3784.0
aF8827.0
aF8942.0
aF5800.0
aF5812.0
aF7270.0
aF5078.0
aF5175.0
aF8382.0
aF6096.0
aF8810.0
aF9533.0
aF6674.0
aF7815.0
aF8383.0
aF3177.0
aF5497.0
aF7316.0
asS'bs'
p25
(lp26
F22.4
aF14.0
aF35.4
aF41.6
aF19.2
aF17.5
aF30.4
aF23.3
aF34.9
aF21.4
aF39.4
aF15.6
aF35.8
aF40.8
aF67.4
aF45.3
aF49.5
aF25.4
aF29.8
aF23.5
aF18.4
aF46.8
aF31.0
aF23.1
aF31.9
aF16.1
aF21.5
aF35.4
aF24.1
aF38.3
aF67.0
aF13.2
aF48.5
aF24.2
aF38.2
aF49.9
aF44.4
aF38.6
aF27.9
aF44.7
aF53.6
aF33.2
aF40.0
aF17.9
aF8.1
aF27.8
aF23.9
aF75.2
aF29.2
aF30.4
aF25.6
aF37.0
aF54.2
aF26.8
aF20.8
aF33.3
aF13.9
aF30.7
aF41.1
aF30.5
aF29.4
aF21.7
aF34.0
aF45.3
aF34.8
aF51.8
aF31.1
aF32.0
aF24.7
aF10.5
aF42.0
aF52.6
aF26.4
aF48.7
aF18.6
aF21.6
aF35.8
aF43.5
aF42.3
aF31.0
aF21.5
aF66.7
aF33.5
aF37.0
aF43.4
aF37.1
aF32.8
aF89.8
aF47.9
aF43.1
aF34.3
aF20.5
aF24.8
aF36.0
aF16.4
aF36.2
aF36.5
aF42.7
aF30.4
aF40.1
aF39.9
aF54.6
aF44.4
aF32.3
aF18.1
aF22.2
aF28.9
aF34.3
aF32.1
aF34.2
aF40.0
aF35.9
aF39.4
aF16.6
aF29.5
aF34.4
aF52.8
aF32.4
aF40.0
aF26.3
aF30.7
aF48.1
aF17.6
aF54.4
aF38.1
aF43.2
aF43.1
aF67.3
aF42.1
aF25.6
aF40.4
aF32.1
aF27.1
aF25.7
aF54.4
aF30.8
aF39.6
aF43.1
aF29.4
aF45.7
aF30.8
aF65.4
aF37.0
aF43.2
aF18.8
aF8.7
aF30.6
aF39.0
aF54.9
aF38.2
aF66.9
aF42.8
aF26.0
aF26.0
aF15.3
aF28.6
aF27.1
aF32.0
aF25.9
aF33.9
aF24.5
aF16.3
aF33.3
aF36.1
aF33.9
aF40.6
aF37.8
aF50.1
aF27.9
aF43.4
aF31.0
aF19.2
aF40.2
aF17.9
aF49.7
aF21.9
aF38.0
aF31.2
aF42.3
aF50.9
aF32.0
aF19.3
aF18.3
aF49.6
aF54.9
aF30.0
aF22.1
aF39.3
aF23.4
aF18.3
aF25.5
aF13.6
aF45.2
aF41.4
aF31.4
aF34.6
aF29.1
aF37.5
aF87.3
aF36.2
aF37.4
aF20.7
aF39.6
aF48.8
aF29.0
aF22.4
aF25.8
aF36.6
aF57.6
aF27.2
aF56.4
aF21.8
aF30.2
aF32.0
aF43.1
aF43.1
aF94.9
aF40.9
aF35.7
aF34.2
aF40.8
aF40.6
aF22.6
aF26.9
aF17.6
aF49.0
aF85.0
aF38.0
aF68.3
aF31.4
aF39.8
aF43.1
aF27.0
aF30.6
aF49.1
aF104.3
aF68.5
aF24.8
aF20.1
aF61.7
aF62.6
aF44.5
aF22.8
aF39.6
aF53.6
aF63.0
aF18.7
aF18.5
aF50.0
aF34.0
aF49.5
aF42.6
aF51.6
aF29.4
aF37.8
aF33.0
aF35.4
aF22.9
aF29.3
aF17.1
aF23.6
aF14.8
aF44.6
aF33.8
aF23.9
aF32.5
aF14.4
aF28.9
aF31.8
aF35.3
aF31.6
aF25.9
aF33.0
aF42.9
aF47.0
aF29.6
aF52.1
aF38.3
aF41.6
aF25.1
aF35.5
aF13.7
aF17.6
aF23.8
aF20.8
aF23.9
aF20.9
aF39.5
aF26.1
aF35.5
aF41.6
aF33.5
aF51.1
aF52.6
aF40.9
aF25.2
aF31.0
aF38.2
aF27.4
aF34.5
aF33.1
aF38.6
aF43.4
aF24.2
aF20.6
aF36.0
aF31.9
aF28.8
aF21.4
aF27.8
aF35.3
aF42.2
aF34.6
aF31.8
aF41.9
aF30.8
aF15.5
aF36.3
aF29.7
aF45.8
aF32.0
aF14.7
aF28.3
aF27.3
aF24.6
aF35.3
aF32.6
aF25.4
aF16.6
aF17.3
aF47.6
aF35.3
aF45.4
aF30.2
aF17.9
aF45.5
aF50.4
aF38.3
aF35.4
aF24.5
aF43.2
aF34.4
aF33.8
aF41.7
aF36.7
aF12.5
aF54.4
aF42.4
aF24.6
aF25.8
aF21.4
aF35.1
aF22.6
aF20.9
aF26.5
aF20.2
aF13.8
aF33.6
aF23.5
aF27.4
aF21.7
aF18.1
aF42.8
aF36.3
aF52.9
aF35.0
aF35.6
aF38.3
aF21.9
aF44.1
aF35.4
aF35.7
aF34.1
aF29.2
aF18.3
aF50.5
aF52.3
aF24.3
aF27.1
aF26.9
aF18.7
aF34.9
aF67.2
aF31.0
aF34.1
aF61.1
aF20.3
aF50.8
aF30.0
aF16.9
aF28.0
aF46.8
aF29.2
aF46.0
aF13.9
aF19.7
aF27.6
aF33.9
aF38.8
aF69.2
aF36.8
aF56.7
aF51.4
aF30.2
aF43.0
aF42.3
aF30.4
aF18.5
aF37.5
aF25.3
aF29.2
aF38.6
aF21.5
aF43.4
aF24.4
aF26.8
aF28.5
aF17.9
aF27.1
aF28.2
aF54.5
aF34.0
aF37.3
aF45.4
aF66.6
aF40.4
aF55.0
aF78.5
aF23.7
aF43.6
aF49.0
aF33.7
aF44.7
aF18.2
aF29.9
aF38.6
aF48.2
aF53.9
aF44.4
aF39.4
aF28.6
aF39.0
aF25.1
asS'targets'
p27
(lp28
S'MRK876'
p29
aS'MRK876'
p30
aS'MRK876'
p31
aS'MRK876'
p32
aS'MRK876'
p33
aS'1H0419-577'
p34
aS'1H0419-577'
p35
aS'1H0419-577'
p36
aS'HE1228+0131'
p37
aS'MRC2251-178'
p38
aS'MRC2251-178'
p39
aS'MRC2251-178'
p40
aS'MRC2251-178'
p41
aS'MRC2251-178'
p42
aS'RX_J1830.3+7312'
p43
aS'RX_J1830.3+7312'
p44
aS'RX_J1830.3+7312'
p45
aS'HE0439-5254'
p46
aS'HE0439-5254'
p47
aS'HE0439-5254'
p48
aS'HE0439-5254'
p49
aS'PG0838+770'
p50
aS'PG0838+770'
p51
aS'PG1302-102'
p52
aS'PG1302-102'
p53
aS'PG1302-102'
p54
aS'PG1302-102'
p55
aS'PG1352+183'
p56
aS'PG1352+183'
p57
aS'PG1352+183'
p58
aS'PG1352+183'
p59
aS'PG1352+183'
p60
aS'PG1352+183'
p61
aS'PG1352+183'
p62
aS'1H0717+714'
p63
aS'1H0717+714'
p64
aS'1H0717+714'
p65
aS'1H0717+714'
p66
aS'1H0717+714'
p67
aS'PG1001+054'
p68
aS'PG1001+054'
p69
aS'RBS567'
p70
aS'RBS567'
p71
aS'RBS567'
p72
aS'RBS567'
p73
aS'RBS567'
p74
aS'SDSSJ142859.10+322507.0'
p75
aS'PG0923+201'
p76
aS'TON488'
p77
aS'TON488'
p78
aS'TON488'
p79
aS'TON488'
p80
aS'RX_J0714.5+7408'
p81
aS'RX_J0714.5+7408'
p82
aS'HE0241-3043'
p83
aS'HE0241-3043'
p84
aS'HE0241-3043'
p85
aS'HE0241-3043'
p86
aS'HE0241-3043'
p87
aS'HE0241-3043'
p88
aS'H1101-232'
p89
aS'H1101-232'
p90
aS'RX_J2139.7+0246'
p91
aS'SDSSJ141542.90+163414.0'
p92
aS'RBS1307'
p93
aS'RBS1307'
p94
aS'RBS2023'
p95
aS'RX_J1500.5+5517'
p96
aS'LBQS1230-0015'
p97
aS'LBQS1230-0015'
p98
aS'MRK1179'
p99
aS'MRK1179'
p100
aS'MRK1179'
p101
aS'SDSSJ112224.10+031802.0'
p102
aS'PG1004+130'
p103
aS'PG1004+130'
p104
aS'PG1004+130'
p105
aS'RX_J1503.2+6810'
p106
aS'RX_J1503.2+6810'
p107
aS'RX_J1503.2+6810'
p108
aS'MS1228.6+1219'
p109
aS'MS1228.6+1219'
p110
aS'MS1228.6+1219'
p111
aS'RX_J1117.6+5301'
p112
aS'RX_J1117.6+5301'
p113
aS'RX_J1117.6+5301'
p114
aS'SDSSJ105945.30+144142.0'
p115
aS'SDSSJ105945.30+144142.0'
p116
aS'SDSSJ105945.30+144142.0'
p117
aS'SDSSJ105945.30+144142.0'
p118
aS'SDSSJ105945.30+144142.0'
p119
aS'SDSSJ105945.30+144142.0'
p120
aS'HE2332-3556'
p121
aS'RX_J1342.7+1844'
p122
aS'RX_J1342.7+1844'
p123
aS'SDSSJ135424.90+243006.3'
p124
aS'SDSSJ135424.90+243006.3'
p125
aS'SDSSJ135424.90+243006.3'
p126
aS'SDSSJ094840.10+580038.0'
p127
aS'FBQSJ0908+3246'
p128
aS'SDSSJ225738.20+134045.0'
p129
aS'SDSSJ225738.20+134045.0'
p130
aS'VIIZw348'
p131
aS'SBS1537+577'
p132
aS'SBS1537+577'
p133
aS'SBS1537+577'
p134
aS'SBS1537+577'
p135
aS'SDSSJ091127.30+325337.0'
p136
aS'SDSSJ091127.30+325337.0'
p137
aS'RX_J1303.7+2633'
p138
aS'SDSSJ104241.30+250123.0'
p139
aS'HS0943+4725'
p140
aS'RX_J1121.2+0326'
p141
aS'3C66A'
p142
aS'3C66A'
p143
aS'RBS877'
p144
aS'RBS877'
p145
aS'US136'
p146
aS'US136'
p147
aS'US136'
p148
aS'PG1309+355'
p149
aS'PG1309+355'
p150
aS'RX_J0925.9+4535'
p151
aS'RX_J0925.9+4535'
p152
aS'FBQSJ1353+3620'
p153
aS'FBQSJ1353+3620'
p154
aS'FBQSJ1353+3620'
p155
aS'FBQSJ1353+3620'
p156
aS'SDSSJ084159.20+140642.0'
p157
aS'SDSSJ084159.20+140642.0'
p158
aS'SDSSJ084159.20+140642.0'
p159
aS'TON1009'
p160
aS'TON1009'
p161
aS'SBS0957+599'
p162
aS'SDSSJ015530.02-085704.0'
p163
aS'SDSSJ015530.02-085704.0'
p164
aS'SDSSJ115722.40+114040.0'
p165
aS'SDSSJ121640.60+071224.0'
p166
aS'SDSSJ112448.30+531818.0'
p167
aS'SDSSJ112448.30+531818.0'
p168
aS'RX_J1217.2+2749'
p169
aS'RX_J1217.2+2749'
p170
aS'PG1211+143'
p171
aS'PG1211+143'
p172
aS'PG1211+143'
p173
aS'PG1211+143'
p174
aS'IRAS_Z06229-6434'
p175
aS'IRAS_Z06229-6434'
p176
aS'RX_J1330.8+3119'
p177
aS'RX_J1330.8+3119'
p178
aS'RX_J1356.4+2515'
p179
aS'RX_J1356.4+2515'
p180
aS'SDSSJ135726.27+043541.4'
p181
aS'SDSSJ135726.27+043541.4'
p182
aS'SDSSJ135726.27+043541.4'
p183
aS'SDSSJ135726.27+043541.4'
p184
aS'RX_J1100.8+2839'
p185
aS'RX_J1100.8+2839'
p186
aS'RX_J1100.8+2839'
p187
aS'RX_J1100.8+2839'
p188
aS'WCom'
p189
aS'WCom'
p190
aS'WCom'
p191
aS'TON605'
p192
aS'TON605'
p193
aS'SDSSJ112439.50+113117.0'
p194
aS'SDSSJ112439.50+113117.0'
p195
aS'SDSSJ112439.50+113117.0'
p196
aS'MS1217.0+0700'
p197
aS'MS1217.0+0700'
p198
aS'FBQSJ1134+2555'
p199
aS'2dFGRS_S393Z082'
p200
aS'2dFGRS_S393Z082'
p201
aS'2dFGRS_S393Z082'
p202
aS'US2816'
p203
aS'US2816'
p204
aS'LBQS1218+1611'
p205
aS'LBQS1218+1611'
p206
aS'LBQS1218+1611'
p207
aS'SDSSJ104335.90+115129.0'
p208
aS'SDSSJ104335.90+115129.0'
p209
aS'SDSSJ104335.90+115129.0'
p210
aS'SDSSJ104335.90+115129.0'
p211
aS'SDSSJ135341.03+361948.0'
p212
aS'SDSSJ135341.03+361948.0'
p213
aS'SDSSJ135341.03+361948.0'
p214
aS'SBS1122+594'
p215
aS'SBS1122+594'
p216
aS'SBS1122+594'
p217
aS'SBS1122+594'
p218
aS'CSO1208'
p219
aS'RX_J0028.1+3103'
p220
aS'LBQS1220+1006'
p221
aS'MRK1269'
p222
aS'MRK1269'
p223
aS'SDSSJ140428.30+335342.0'
p224
aS'SDSSJ140428.30+335342.0'
p225
aS'SDSSJ140428.30+335342.0'
p226
aS'PG0832+251'
p227
aS'PG0832+251'
p228
aS'PG0832+251'
p229
aS'PG0832+251'
p230
aS'PG0832+251'
p231
aS'SDSSJ124210.30+321427.0'
p232
aS'SDSSJ124210.30+321427.0'
p233
aS'SDSSJ124210.30+321427.0'
p234
aS'SDSSJ124210.30+321427.0'
p235
aS'HE0340-2703'
p236
aS'UM228'
p237
aS'UM228'
p238
aS'UM228'
p239
aS'RX_J1342.1+0505'
p240
aS'RX_J1342.1+0505'
p241
aS'RX_J1342.1+0505'
p242
aS'SDSSJ121640.60+071224.0'
p243
aS'SDSSJ121640.60+071224.0'
p244
aS'SDSSJ014143.20+134032.0'
p245
aS'SDSSJ080838.80+051440.0'
p246
aS'SDSSJ080838.80+051440.0'
p247
aS'SDSSJ080838.80+051440.0'
p248
aS'SDSSJ080838.80+051440.0'
p249
aS'SDSSJ080838.80+051440.0'
p250
aS'SDSSJ080838.80+051440.0'
p251
aS'MRK205'
p252
aS'MRK205'
p253
aS'MCG+10-16-111'
p254
aS'MCG+10-16-111'
p255
aS'CSO295'
p256
aS'CSO295'
p257
aS'CSO295'
p258
aS'PG1218+304'
p259
aS'MRK509'
p260
aS'PKS0405-12'
p261
aS'3C273.0'
p262
aS'NGC985'
p263
aS'PG1411+442'
p264
aS'PG1411+442'
p265
aS'MRK421'
p266
aS'MRK421'
p267
aS'MRK817'
p268
aS'PKS2155-304'
p269
aS'PKS2155-304'
p270
aS'PKS2155-304'
p271
aS'MRK1298'
p272
aS'MRK1298'
p273
aS'MRK1298'
p274
aS'MRK1298'
p275
aS'PG0804+761'
p276
aS'PG0804+761'
p277
aS'FAIRALL9'
p278
aS'H1821+643'
p279
aS'H1821+643'
p280
aS'PG1116+215'
p281
aS'PG1116+215'
p282
aS'PG1116+215'
p283
aS'ESO141-G55'
p284
aS'ESO141-G55'
p285
aS'TON_S210'
p286
aS'3C263'
p287
aS'3C263'
p288
aS'3C263'
p289
aS'3C263'
p290
aS'3C263'
p291
aS'IRAS_F21325-6237'
p292
aS'IRAS_F21325-6237'
p293
aS'PG1553+113'
p294
aS'PG1553+113'
p295
aS'PG1553+113'
p296
aS'PG1553+113'
p297
aS'PG1553+113'
p298
aS'PG1553+113'
p299
aS'PG1011-040'
p300
aS'PG1011-040'
p301
aS'TON_S180'
p302
aS'TON_S180'
p303
aS'TON_S180'
p304
aS'TON_S180'
p305
aS'TON_S180'
p306
aS'RBS1795'
p307
aS'RBS1795'
p308
aS'RBS1795'
p309
aS'RBS1795'
p310
aS'FBQSJ0751+2919'
p311
aS'FBQSJ0751+2919'
p312
aS'FBQSJ0751+2919'
p313
aS'FBQSJ0751+2919'
p314
aS'FBQSJ0751+2919'
p315
aS'FBQSJ0751+2919'
p316
aS'PG0052+251'
p317
aS'PG0052+251'
p318
aS'MRK1513'
p319
aS'MRK1513'
p320
aS'HE1029-1401'
p321
aS'HE1029-1401'
p322
aS'RBS1892'
p323
aS'RBS1892'
p324
aS'HE0056-3622'
p325
aS'HE0056-3622'
p326
aS'RBS2055'
p327
aS'HE0226-4110'
p328
aS'HE0226-4110'
p329
aS'HE0226-4110'
p330
aS'HE0226-4110'
p331
aS'HE0226-4110'
p332
aS'RX_J0048.3+3941'
p333
aS'RX_J0048.3+3941'
p334
aS'RX_J0048.3+3941'
p335
aS'RX_J0048.3+3941'
p336
aS'MRK841'
p337
aS'MRK841'
p338
aS'MRK841'
p339
aS'PG1259+593'
p340
aS'PG1626+554'
p341
aS'PG1626+554'
p342
aS'MRK304'
p343
aS'MS0117.2-2837'
p344
aS'MS0117.2-2837'
p345
aS'3C323.1'
p346
aS'RBS1768'
p347
aS'RBS1768'
p348
aS'RBS1768'
p349
aS'RBS1768'
p350
aS'PG1048+342'
p351
aS'PG1001+291'
p352
aS'PG1001+291'
p353
aS'PG1522+101'
p354
aS'PG1522+101'
p355
aS'PG1522+101'
p356
aS'PG1522+101'
p357
aS'PG1115+407'
p358
aS'PG1115+407'
p359
aS'PG1115+407'
p360
aS'MRK106'
p361
aS'MRK106'
p362
aS'MRK106'
p363
aS'MRK106'
p364
aS'MRK106'
p365
aS'PG2349-014'
p366
aS'PHL2525'
p367
aS'PHL2525'
p368
aS'PHL2525'
p369
aS'PHL2525'
p370
aS'PHL2525'
p371
aS'PHL2525'
p372
aS'PHL2525'
p373
aS'PG1216+069'
p374
aS'PG1216+069'
p375
aS'PG1216+069'
p376
aS'PG1121+423'
p377
aS'PG1121+423'
p378
aS'PG1121+423'
p379
aS'PG1121+423'
p380
aS'PG1121+423'
p381
aS'3C57'
p382
aS'3C57'
p383
aS'3C57'
p384
aS'3C57'
p385
aS'UVQSJ101629.20-315023.6'
p386
aS'UVQSJ101629.20-315023.6'
p387
aS'UVQSJ101629.20-315023.6'
p388
aS'UVQSJ101629.20-315023.6'
p389
aS'UVQSJ101629.20-315023.6'
p390
aS'UVQSJ101629.20-315023.6'
p391
aS'US645'
p392
aS'US645'
p393
aS'US645'
p394
aS'US645'
p395
aS'MRK1014'
p396
aS'RBS2000'
p397
aS'RBS1024'
p398
aS'RBS1024'
p399
aS'RBS1024'
p400
aS'RBS1024'
p401
aS'FBQSJ1431+2442'
p402
aS'FBQSJ1431+2442'
p403
aS'FBQSJ1431+2442'
p404
aS'SDSSJ160519.70+144852.2'
p405
aS'SDSSJ135712.60+170444.0'
p406
aS'SDSSJ135712.60+170444.0'
p407
aS'SDSSJ135712.60+170444.0'
p408
aS'SDSSJ135712.60+170444.0'
p409
aS'RX_J1142.5+2503'
p410
aS'RX_J1142.5+2503'
p411
aS'HE0429-5343'
p412
aS'HE0429-5343'
p413
aS'HE0429-5343'
p414
aS'RX_J2043.1+0324'
p415
aS'RX_J2043.1+0324'
p416
aS'RX_J2043.1+0324'
p417
aS'RX_J2043.1+0324'
p418
aS'RX_J2043.1+0324'
p419
aS'RX_J2043.1+0324'
p420
aS'SBS1116+523'
p421
aS'SBS1116+523'
p422
aS'SBS1116+523'
p423
aS'RBS1503'
p424
aS'SDSSJ095915.60+050355.0'
p425
aS'SDSSJ080908.13+461925.6'
p426
aS'SBS1503+570'
p427
aS'SBS1503+570'
p428
aS'RBS563'
p429
aS'RBS563'
p430
aS'RBS563'
p431
aS'RBS563'
p432
aS'RX_J1054.2+3511'
p433
aS'HE0435-5304'
p434
aS'RX_J1544.5+2827'
p435
aS'SDSSJ015952.95+134554.3'
p436
aS'SDSSJ015952.95+134554.3'
p437
aS'SDSSJ114646.00+371511.0'
p438
aS'SDSSJ091728.60+271951.0'
p439
aS'SDSSJ091728.60+271951.0'
p440
aS'SDSSJ091728.60+271951.0'
p441
aS'SDSSJ091728.60+271951.0'
p442
aS'SDSSJ082024.20+233450.0'
p443
aS'SDSSJ082024.20+233450.0'
p444
aS'CSO1245'
p445
aS'CSO1245'
p446
aS'RX_J1142.7+4625'
p447
aS'QSO1500-4140'
p448
aS'QSO1500-4140'
p449
aS'QSO1500-4140'
p450
aS'QSO1500-4140'
p451
aS'QSO1500-4140'
p452
aS'QSO1500-4140'
p453
aS'CSO1161'
p454
aS'CSO1161'
p455
aS'CSO1161'
p456
aS'SDSSJ091052.80+333008.0'
p457
aS'FBS0150+396'
p458
aS'FBS0150+396'
p459
aS'3C351.0'
p460
aS'3C351.0'
p461
aS'3C351.0'
p462
aS'SDSSJ112005.00+041323.0'
p463
aS'SDSSJ112005.00+041323.0'
p464
aS'SDSSJ112005.00+041323.0'
p465
aS'3C249.1'
p466
aS'3C249.1'
p467
aS'3C249.1'
p468
aS'SDSSJ125846.70+242739.0'
p469
aS'SDSSJ111443.70+525834.0'
p470
aS'SDSSJ111443.70+525834.0'
p471
as.