(dp0
S'Vhels'
p1
(lp2
F3504.0
aF9319.0
aF9319.0
aF9319.0
aF9030.0
aF1821.0
aF3871.0
aF3110.0
aF2887.0
aF2887.0
aF4130.0
aF4130.0
aF4188.0
aF4188.0
aF4074.0
aF4074.0
aF3419.0
aF1733.0
aF7006.0
aF8924.0
aF9765.0
aF7782.0
aF3102.0
aF8026.0
aF8593.0
aF8433.0
aF8433.0
aF4311.0
aF4604.0
aF6902.0
aF9385.0
aF6964.0
aF6964.0
aF9997.0
aF9997.0
aF1544.0
aF1544.0
aF3486.0
aF9162.0
aF2536.0
aF3833.0
aF7374.0
aF7374.0
aF4818.0
aF4818.0
aF2995.0
aF2995.0
aF4067.0
aF7092.0
aF7092.0
aF3092.0
asS'impacts'
p3
(lp4
F274.082
aF158.495
aF158.495
aF158.495
aF355.071
aF233.701
aF85.419
aF253.817
aF199.343
aF199.343
aF132.116
aF132.116
aF286.46
aF286.46
aF112.521
aF112.521
aF59.72
aF255.352
aF248.657
aF104.128
aF325.438
aF77.836
aF46.706
aF165.293
aF218.735
aF94.77
aF94.77
aF59.112
aF71.485
aF97.607
aF350.212
aF293.757
aF293.757
aF244.42
aF244.42
aF147.888
aF147.888
aF149.434
aF465.601
aF158.207
aF110.16
aF129.231
aF129.231
aF53.988
aF53.988
aF198.983
aF198.983
aF300.584
aF132.629
aF132.629
aF182.288
asS'group_dists'
p5
(lp6
F-99.99
aF-99.99
aF-99.99
aF-99.99
aF89.0
aF17.5
aF-99.99
aF35.7
aF30.7
aF30.7
aF-99.99
aF-99.99
aF42.4
aF42.4
aF37.7
aF37.7
aF-99.99
aF14.6
aF74.7
aF-99.99
aF100.5
aF-99.99
aF-99.99
aF85.0
aF-99.99
aF89.4
aF89.4
aF-99.99
aF-99.99
aF-99.99
aF-99.99
aF-99.99
aF-99.99
aF-99.99
aF-99.99
aF15.7
aF15.7
aF-99.99
aF92.4
aF-99.99
aF-99.99
aF-99.99
aF-99.99
aF-99.99
aF-99.99
aF-99.99
aF-99.99
aF38.1
aF-99.99
aF-99.99
aF-99.99
asS'MTypes'
p7
(lp8
S'Sm?'
p9
aS'x'
p10
ag10
ag10
aS'Sc'
p11
aS"(R')SB(s)0/a"
p12
aS'Sbc:_pec_sp'
p13
aS'SA(s)bc_Sy2'
p14
aS'Scd:'
p15
aS'Scd:'
p16
aS'Spiral_Sbrst'
p17
aS'Spiral_Sbrst'
p18
aS'Sbc'
p19
aS'Sbc'
p20
aS'Sd'
p21
aS'Sd'
p22
aS'Sm:'
p23
aS'SAB(s)a'
p24
aS'Scd(f)'
p25
ag10
ag10
aS'S'
p26
ag10
aS'Sa'
p27
ag10
aS'SBbc_Sbrst'
p28
aS'SBbc_Sbrst'
p29
aS'SABd'
p30
aS'Spiral'
p31
aS'Scd'
p32
ag26
aS'Spiral'
p33
aS'Spiral'
p34
ag10
ag10
aS'SBd'
p35
aS'SBd'
p36
aS'SB(s)c:_pec'
p37
aS'Sb'
p38
aS'Scd:'
p39
ag10
ag10
ag10
aS'BlueCG'
p40
aS'BlueCG'
p41
aS'SBm:'
p42
aS'SBm:'
p43
aS'SA0+?'
p44
ag10
ag10
ag10
asS'e_Lya_Ws'
p45
(lp46
F3.0
aF3.0
aF2.0
aF3.0
aF4.0
aF19.0
aF8.0
aF6.0
aF6.0
aF4.0
aF10.0
aF9.0
aF10.0
aF10.0
aF7.0
aF7.0
aF15.0
aF18.0
aF14.0
aF17.0
aF11.0
aF15.0
aF15.0
aF22.0
aF18.0
aF14.0
aF6.0
aF31.0
aF69.0
aF98.0
aF11.0
aF13.0
aF12.0
aF22.0
aF16.0
aF4.0
aF3.0
aF7.0
aF4.0
aF10.0
aF11.0
aF7.0
aF7.0
aF7.0
aF5.0
aF8.0
aF7.0
aF10.0
aF10.0
aF13.0
aF14.0
asS'Nas'
p47
(lp48
F79100000000000.0
aF60400000000000.0
aF30100000000000.0
aF6200000000000.0
aF12200000000000.0
aF13300000000000.0
aF103000000000000.0
aF15000000000000.0
aF94300000000000.0
aF6620000000000.0
aF73700000000000.0
aF101000000000000.0
aF16900000000000.0
aF172000000000000.0
aF271000000000000.0
aF296000000000000.0
aF150000000000000.0
aF98000000000000.0
aF183000000000000.0
aF139000000000000.0
aF13100000000000.0
aF192000000000000.0
aF177000000000000.0
aF181000000000000.0
aF153000000000000.0
aF534000000000000.0
aF214000000000000.0
aF245000000000000.0
aF225000000000000.0
aF196000000000000.0
aF118000000000000.0
aF31400000000000.0
aF11600000000000.0
aF306000000000000.0
aF30900000000000.0
aF12300000000000.0
aF6140000000000.0
aF56300000000000.0
aF14100000000000.0
aF64100000000000.0
aF101000000000000.0
aF37000000000000.0
aF129000000000000.0
aF146000000000000.0
aF128000000000000.0
aF27200000000000.0
aF136000000000000.0
aF17300000000000.0
aF36600000000000.0
aF41700000000000.0
aF45000000000000.0
asS'Lya_Ws'
p49
(lp50
F280.0
aF248.0
aF124.0
aF32.0
aF62.0
aF70.0
aF322.0
aF72.0
aF349.0
aF33.0
aF260.0
aF302.0
aF84.0
aF420.0
aF490.0
aF530.0
aF435.0
aF323.0
aF462.0
aF432.0
aF61.0
aF513.0
aF424.0
aF440.0
aF377.0
aF904.0
aF371.0
aF608.0
aF657.0
aF678.0
aF359.0
aF147.0
aF59.0
aF668.0
aF123.0
aF62.0
aF32.0
aF227.0
aF63.0
aF240.0
aF370.0
aF159.0
aF363.0
aF295.0
aF254.0
aF120.0
aF373.0
aF82.0
aF156.0
aF181.0
aF185.0
asS'bestDists'
p51
(lp52
F51.15
aF135.39
aF135.39
aF135.39
aF142.0
aF29.5
aF52.5
aF37.5
aF43.7
aF43.7
aF61.67
aF61.67
aF53.3
aF53.3
aF68.9
aF68.9
aF51.79
aF21.4
aF99.8
aF129.69
aF139.6
aF113.82
aF47.62
aF117.17
aF166.0
aF121.25
aF121.25
aF63.5
aF67.67
aF101.21
aF129.13
aF100.47
aF100.47
aF144.39
aF144.39
aF22.4
aF22.4
aF44.0
aF126.07
aF47.9
aF58.18
aF107.43
aF107.43
aF70.56
aF70.56
aF44.16
aF44.16
aF55.02
aF101.79
aF101.79
aF47.35
asS'adjustedIncs'
p53
(lp54
F51.0
aF29.0
aF29.0
aF29.0
aF49.0
aF64.0
aF90.0
aF48.0
aF55.0
aF55.0
aF65.0
aF65.0
aF64.0
aF64.0
aF90.0
aF90.0
aF0.0
aF52.0
aF82.0
aF58.0
aF52.0
aF36.0
aF83.0
aF68.0
aF38.0
aF52.0
aF52.0
aF0.0
aF56.0
aF63.0
aF62.0
aF69.0
aF69.0
aF0.0
aF0.0
aF75.0
aF75.0
aF61.0
aF90.0
aF72.0
aF64.0
aF67.0
aF67.0
aF59.0
aF59.0
aF53.0
aF53.0
aF56.0
aF38.0
aF38.0
aF90.0
asS'targets'
p55
(lp56
S'MRK876'
p57
aS'HE1228+0131'
p58
aS'HE1228+0131'
p59
aS'HE1228+0131'
p60
aS'MRC2251-178'
p61
aS'RX_J1830.3+7312'
p62
aS'HE0439-5254'
p63
aS'PG1302-102'
p64
aS'1H0717+714'
p65
aS'1H0717+714'
p66
aS'SDSSJ142859.10+322507.0'
p67
aS'SDSSJ142859.10+322507.0'
p68
aS'RX_J0714.5+7408'
p69
aS'RX_J0714.5+7408'
p70
aS'RX_J2139.7+0246'
p71
aS'RX_J2139.7+0246'
p72
aS'RBS1307'
p73
aS'PHL1226'
p74
aS'SDSSJ130524.30+035731.0'
p75
aS'SDSSJ112224.10+031802.0'
p76
aS'RX_J1503.2+6810'
p77
aS'MS1228.6+1219'
p78
aS'SDSSJ105945.30+144142.0'
p79
aS'SDSSJ131545.20+152556.0'
p80
aS'SDSSJ135424.90+243006.3'
p81
aS'SDSSJ094840.10+580038.0'
p82
aS'SDSSJ094840.10+580038.0'
p83
aS'SDSSJ091127.30+325337.0'
p84
aS'HS0943+4725'
p85
aS'RX_J1121.2+0326'
p86
aS'RX_J0028.1+3103'
p87
aS'PG0832+251'
p88
aS'PG0832+251'
p89
aS'RX_J1429.6+0321'
p90
aS'RX_J1429.6+0321'
p91
aS'PG0804+761'
p92
aS'PG0804+761'
p93
aS'HE0056-3622'
p94
aS'RBS1768'
p95
aS'MRK771'
p96
aS'PG1216+069'
p97
aS'PG1121+423'
p98
aS'PG1121+423'
p99
aS'US645'
p100
aS'US645'
p101
aS'RX_J1608.3+6018'
p102
aS'RX_J1608.3+6018'
p103
aS'RX_J2043.1+0324'
p104
aS'SDSSJ080908.13+461925.6'
p105
aS'SDSSJ080908.13+461925.6'
p106
aS'SDSSJ114646.00+371511.0'
p107
asS'e_bs'
p108
(lp109
F3.0
aF2.3
aF1.7
aF2.4
aF2.0
aF7.5
aF1.9
aF2.0
aF1.9
aF2.8
aF4.6
aF2.6
aF2.7
aF2.7
aF2.8
aF3.5
aF2.3
aF2.1
aF2.7
aF2.0
aF3.5
aF2.3
aF2.4
aF3.4
aF3.2
aF4.3
aF1.9
aF3.8
aF2.6
aF3.5
aF4.4
aF2.8
aF4.6
aF2.7
aF1.8
aF2.1
aF2.4
aF2.8
aF3.3
aF1.9
aF2.4
aF2.1
aF2.5
aF6.0
aF2.9
aF4.2
aF2.4
aF1.2
aF2.5
aF3.1
aF2.4
asS'incs'
p110
(lp111
F49.0
aF28.0
aF28.0
aF28.0
aF48.0
aF61.0
aF79.0
aF46.0
aF53.0
aF53.0
aF63.0
aF63.0
aF61.0
aF61.0
aF80.0
aF80.0
aF0.0
aF50.0
aF76.0
aF56.0
aF50.0
aF35.0
aF77.0
aF65.0
aF37.0
aF50.0
aF50.0
aF0.0
aF55.0
aF61.0
aF60.0
aF66.0
aF66.0
aF0.0
aF0.0
aF71.0
aF71.0
aF59.0
aF84.0
aF69.0
aF61.0
aF65.0
aF65.0
aF57.0
aF57.0
aF52.0
aF52.0
aF55.0
aF37.0
aF37.0
aF80.0
asS'azimuths'
p112
(lp113
F7.3
aF59.7
aF59.7
aF59.7
aF71.0
aF70.4
aF24.9
aF61.2
aF7.1
aF7.1
aF28.7
aF28.7
aF82.6
aF82.6
aF69.1
aF69.1
aF87.1
aF57.0
aF14.1
aF2.7
aF0.6
aF26.3
aF70.9
aF16.3
aF66.3
aF77.9
aF77.9
aF17.2
aF82.4
aF71.3
aF46.3
aF55.2
aF55.2
aF3.3
aF3.3
aF59.2
aF59.2
aF36.0
aF74.0
aF22.7
aF64.9
aF19.7
aF19.7
aF42.2
aF42.2
aF81.6
aF81.6
aF65.8
aF42.2
aF42.2
aF44.1
asS'group_nums'
p114
(lp115
S'-99'
p116
aS'-99'
p117
aS'-99'
p118
aS'-99'
p119
aS'207780'
p120
aS'111804'
p121
aS'-99'
p122
aS'102770'
p123
aS'101152'
p124
aS'101152'
p125
aS'-99'
p126
aS'-99'
p127
aS'110299'
p128
aS'110299'
p129
aS'211783'
p130
aS'211783'
p131
aS'-99'
p132
aS'211769'
p133
aS'108467'
p134
aS'-99'
p135
aS'106220'
p136
aS'-99'
p137
aS'-99'
p138
aS'109182'
p139
aS'-99'
p140
aS'101559'
p141
aS'101559'
p142
aS'-99'
p143
aS'-99'
p144
aS'-99'
p145
aS'-99'
p146
aS'-99'
p147
aS'-99'
p148
aS'-99'
p149
aS'-99'
p150
aS'113011'
p151
aS'113011'
p152
aS'-99'
p153
aS'201920'
p154
aS'-99'
p155
aS'-99'
p156
aS'-99'
p157
aS'-99'
p158
aS'-99'
p159
aS'-99'
p160
aS'-99'
p161
aS'-99'
p162
aS'209869'
p163
aS'-99'
p164
aS'-99'
p165
aS'-99'
p166
asS'Ws'
p167
(lp168
F86.5
aF89.6
aF46.5
aF52.5
aF76.1
aF179.0
aF69.1
aF49.0
aF97.0
aF37.8
aF72.1
aF66.7
aF81.8
aF77.6
aF84.4
aF91.4
aF92.2
aF78.2
aF85.5
aF93.8
aF37.3
aF99.9
aF80.7
aF84.2
aF69.8
aF157.7
aF66.4
aF119.9
aF125.8
aF188.6
aF81.8
aF96.7
aF72.4
aF122.1
aF44.3
aF63.9
aF58.5
aF81.9
aF29.8
aF67.0
aF106.9
aF65.1
aF71.4
aF53.7
aF45.5
aF59.9
aF70.9
aF55.3
aF67.8
aF88.1
aF65.8
asS'ls'
p169
(lp170
F0.10332342769038733
aF0.17868522796507605
aF0.20357831168686408
aF0.04432840885258963
aF0.3419941169478868
aF0.10826425299929779
aF0.5373537901174053
aF0.017031989186412282
aF0.24430828845276858
aF0.1902437044084589
aF0.5506665272586498
aF0.44990183397762623
aF0.11208536619678722
aF0.1342576586125557
aF0.7477910248515222
aF0.5627995695482366
aF0.8095787658196439
aF0.010512540244290595
aF0.40972716803428294
aF0.4494762917166421
aF0.1720232463127217
aF0.6909540106471176
aF0.594171097351583
aF0.5118738742071529
aF0.1738372857109356
aF0.7790266462633908
aF0.6946584257530615
aF0.4778244341741461
aF0.6614265187928401
aF0.6196581494167922
aF0.05580707359006153
aF0.040778650917745296
aF0.010077786876564366
aF0.012414729119692988
aF0.012004524254356557
aF0.14318361047923778
aF0.13593852969413797
aF0.04285329830522727
aF0.014103614234931918
aF0.0435433113889733
aF0.04205543873509885
aF0.026678199713741278
aF0.11774799931238351
aF0.219535214684103
aF0.14397470882776117
aF0.03538281462302845
aF0.04210751547652513
aF0.037322042673277135
aF0.036826116349989106
aF0.11279615785247349
aF0.04124575920433586
asS'Lya_vs'
p171
(lp172
F3478.0
aF9240.0
aF9351.0
aF9568.0
aF9029.0
aF1971.0
aF3853.0
aF3447.0
aF2873.0
aF2988.0
aF4126.0
aF4220.0
aF4074.0
aF4264.0
aF4083.0
aF4181.0
aF3465.0
aF1721.0
aF7043.0
aF8872.0
aF9714.0
aF7811.0
aF3128.0
aF8025.0
aF8500.0
aF8385.0
aF8516.0
aF4320.0
aF4603.0
aF6975.0
aF9332.0
aF6980.0
aF7201.0
aF9947.0
aF10059.0
aF1526.0
aF1593.0
aF3462.0
aF9308.0
aF2553.0
aF3802.0
aF7126.0
aF7328.0
aF4983.0
aF5028.0
aF2906.0
aF2964.0
aF4080.0
aF6880.0
aF7105.0
aF3085.0
asS'R_virs'
p173
(lp174
F182.6
aF126.65
aF126.65
aF126.65
aF342.79
aF181.35
aF109.1
aF228.54
aF168.21
aF168.21
aF171.1
aF171.1
aF209.84
aF209.84
aF209.45
aF209.45
aF150.08
aF119.69
aF268.44
aF121.7
aF249.96
aF131.82
aF65.81
aF201.99
aF176.64
aF216.22
aF216.22
aF68.88
aF111.19
aF166.09
aF208.71
aF164.39
aF164.39
aF117.51
aF117.51
aF106.3
aF106.3
aF84.39
aF241.13
aF89.47
aF62.12
aF89.47
aF89.47
aF59.06
aF59.06
aF112.23
aF112.23
aF165.87
aF89.87
aF89.87
aF102.11
asS'Bmags'
p175
(lp176
F-99.99
aF17.2
aF17.2
aF17.2
aF15.1
aF12.6
aF14.8
aF11.6
aF12.7
aF12.7
aF-99.99
aF-99.99
aF13.8
aF13.8
aF13.6
aF13.6
aF-99.99
aF12.5
aF15.3
aF-99.99
aF-99.99
aF16.6
aF-99.99
aF-99.99
aF-99.99
aF15.1
aF15.1
aF15.0
aF-99.99
aF-99.99
aF15.6
aF-99.99
aF-99.99
aF-99.99
aF-99.99
aF12.9
aF12.9
aF14.6
aF15.9
aF13.8
aF18.0
aF-99.99
aF-99.99
aF-99.99
aF-99.99
aF15.4
aF15.4
aF14.1
aF-99.99
aF-99.99
aF-99.99
asS'cuss'
p177
(lp178
F166.21002727573327
aF75.03500609049085
aF75.03500609049085
aF75.03500609049085
aF653.5502293557856
aF163.74199417681464
aF54.24619559932291
aF270.7342453865044
aF139.0508881812698
aF139.0508881812698
aF144.28988443754469
aF144.28988443754469
aF224.87975540719532
aF224.87975540719532
aF223.9682046005638
aF223.9682046005638
aF108.51058416117756
aF66.35420196943069
aF384.09991708408376
aF68.79803659262377
aF328.92308694434934
aF81.8402659147684
aF18.077555671937507
aF206.97405755069886
aF154.63752403928353
aF240.00395815069382
aF240.00395815069382
aF19.963110210560878
aF56.53327176981711
aF135.26048157166971
aF222.23966187204297
aF132.26868388246706
aF132.26868388246706
aF63.76015006255867
aF63.76015006255867
aF51.264724713978524
aF51.264724713978524
aF31.041134147015313
aF304.18646200480384
aF35.246232068123255
aF15.948606868814593
aF35.246232068123255
aF35.246232068123255
aF14.287350596664169
aF14.287350596664169
aF57.68856175187591
aF57.68856175187591
aF134.87567238015907
aF35.59105741615441
aF35.59105741615441
aF46.98037471114933
asS'vcorrs'
p179
(lp180
F3632.0
aF9613.0
aF9613.0
aF9613.0
aF8754.0
aF1886.0
aF3738.0
aF3382.0
aF2973.0
aF2973.0
aF4379.0
aF4379.0
aF4269.0
aF4269.0
aF3860.0
aF3860.0
aF3677.0
aF1467.0
aF7298.0
aF9208.0
aF9912.0
aF8082.0
aF3381.0
aF8319.0
aF8868.0
aF8609.0
aF8609.0
aF4509.0
aF4805.0
aF7186.0
aF9169.0
aF7134.0
aF7134.0
aF10252.0
aF10252.0
aF1639.0
aF1639.0
aF3213.0
aF8951.0
aF2834.0
aF4131.0
aF7628.0
aF7628.0
aF5010.0
aF5010.0
aF3136.0
aF3136.0
aF3907.0
aF7227.0
aF7227.0
aF3362.0
asS'e_Nas'
p181
(lp182
F970000000000.0
aF760000000000.0
aF535000000000.0
aF569000000000.0
aF772000000000.0
aF3610000000000.0
aF4200000000000.0
aF1280000000000.0
aF1950000000000.0
aF796000000000.0
aF3580000000000.0
aF4740000000000.0
aF2180000000000.0
aF7550000000000.0
aF23600000000000.0
aF23200000000000.0
aF8590000000000.0
aF8830000000000.0
aF12400000000000.0
aF9080000000000.0
aF2720000000000.0
aF12400000000000.0
aF16900000000000.0
aF23200000000000.0
aF21600000000000.0
aF45400000000000.0
aF28800000000000.0
aF34000000000000.0
aF63400000000000.0
aF47500000000000.0
aF5660000000000.0
aF3040000000000.0
aF2530000000000.0
aF37600000000000.0
aF5360000000000.0
aF752000000000.0
aF631000000000.0
aF1860000000000.0
aF1090000000000.0
aF3490000000000.0
aF3400000000000.0
aF1930000000000.0
aF4140000000000.0
aF10400000000000.0
aF12000000000000.0
aF2000000000000.0
aF5050000000000.0
aF2420000000000.0
aF2900000000000.0
aF3310000000000.0
aF4100000000000.0
asS'e_bestDists'
p183
(lp184
F5.11
aF13.53
aF13.53
aF13.53
aF13.96
aF9.09
aF10.6
aF9.42
aF5.35
aF5.35
aF6.16
aF6.16
aF6.31
aF6.31
aF7.24
aF7.24
aF5.17
aF6.59
aF7.75
aF12.96
aF13.96
aF11.38
aF4.76
aF11.71
aF31.69
aF12.12
aF12.12
aF6.35
aF6.76
aF10.12
aF12.91
aF10.04
aF10.04
aF14.43
aF14.43
aF4.21
aF4.21
aF9.82
aF12.6
aF5.7
aF5.81
aF10.74
aF10.74
aF7.05
aF7.05
aF4.41
aF4.41
aF5.5
aF10.17
aF10.17
aF4.73
asS'group_mems'
p185
(lp186
S'-99'
p187
aS'-99'
p188
aS'-99'
p189
aS'-99'
p190
aS'1'
p191
ag191
aS'-99'
p192
aS'2'
p193
aS'3'
p194
ag194
aS'-99'
p195
aS'-99'
p196
ag191
ag191
ag191
ag191
aS'-99'
p197
ag191
ag191
aS'-99'
p198
ag191
aS'-99'
p199
aS'-99'
p200
ag191
aS'-99'
p201
ag193
ag193
aS'-99'
p202
aS'-99'
p203
aS'-99'
p204
aS'-99'
p205
aS'-99'
p206
aS'-99'
p207
aS'-99'
p208
aS'-99'
p209
ag191
ag191
aS'-99'
p210
ag193
aS'-99'
p211
aS'-99'
p212
aS'-99'
p213
aS'-99'
p214
aS'-99'
p215
aS'-99'
p216
aS'-99'
p217
aS'-99'
p218
ag191
aS'-99'
p219
aS'-99'
p220
aS'-99'
p221
asS'e_Lstar_meds'
p222
(lp223
F-99.99
aF0.18
aF0.18
aF0.18
aF1.4
aF2.0
aF0.46
aF6.5
aF1.4
aF1.4
aF-99.99
aF-99.99
aF0.77
aF0.77
aF1.5
aF1.5
aF-99.99
aF1.0
aF0.45
aF-99.99
aF-99.99
aF0.24
aF-99.99
aF-99.99
aF-99.99
aF0.99
aF0.99
aF0.31
aF-99.99
aF-99.99
aF1.1
aF-99.99
aF-99.99
aF-99.99
aF-99.99
aF0.51
aF0.51
aF0.44
aF0.5
aF0.64
aF0.015
aF-99.99
aF-99.99
aF-99.99
aF-99.99
aF0.1
aF0.1
aF0.67
aF-99.99
aF-99.99
aF-99.99
asS'Dec_targets'
p224
(lp225
F65.71944444444445
aF1.256388888888889
aF1.256388888888889
aF1.256388888888889
aF-17.581944444444446
aF73.21944444444445
aF-52.805
aF-10.555555555555555
aF71.34333333333333
aF71.34333333333333
aF32.41861111111111
aF32.41861111111111
aF74.13638888888889
aF74.13638888888889
aF2.7680555555555557
aF2.7680555555555557
aF38.484722222222224
aF4.805
aF3.958611111111111
aF3.3005555555555555
aF68.16833333333334
aF12.051944444444445
aF14.695
aF15.432222222222222
aF24.501666666666665
aF58.010555555555555
aF58.010555555555555
aF32.89361111111111
aF47.191944444444445
aF3.4294444444444445
aF31.063333333333333
aF24.994722222222222
aF24.994722222222222
aF3.357222222222222
aF3.357222222222222
aF76.04527777777778
aF76.04527777777778
aF-36.10138888888889
aF-38.477777777777774
aF20.158055555555556
aF6.643888888888889
aF42.02916666666667
aF42.02916666666667
aF46.74
aF46.74
aF60.30777777777778
aF60.30777777777778
aF3.4138888888888888
aF46.32388888888889
aF46.32388888888889
aF37.253055555555555
asS'PAs'
p226
(lp227
F4.0
aF45.0
aF45.0
aF45.0
aF27.0
aF15.0
aF35.0
aF5.0
aF5.0
aF5.0
aF50.0
aF50.0
aF115.0
aF115.0
aF60.0
aF60.0
aF49.0
aF150.0
aF105.0
aF148.0
aF135.0
aF82.0
aF27.0
aF67.0
aF70.0
aF105.0
aF105.0
aF130.0
aF100.0
aF145.0
aF110.0
aF170.0
aF170.0
aF62.0
aF62.0
aF65.0
aF65.0
aF80.0
aF160.0
aF105.0
aF156.0
aF133.0
aF133.0
aF131.0
aF131.0
aF50.0
aF50.0
aF65.0
aF120.0
aF120.0
aF165.0
asS'Lstar_meds'
p228
(lp229
F-99.99
aF0.39
aF0.39
aF0.39
aF2.9
aF1.4
aF0.49
aF5.5
aF2.5
aF2.5
aF-99.99
aF-99.99
aF1.4
aF1.4
aF3.1
aF3.1
aF-99.99
aF0.73
aF1.1
aF-99.99
aF-99.99
aF0.48
aF-99.99
aF-99.99
aF-99.99
aF2.0
aF2.0
aF0.63
aF-99.99
aF-99.99
aF1.8
aF-99.99
aF-99.99
aF-99.99
aF-99.99
aF0.58
aF0.58
aF0.43
aF1.1
aF1.2
aF0.032
aF-99.99
aF-99.99
aF-99.99
aF-99.99
aF0.2
aF0.2
aF1.4
aF-99.99
aF-99.99
aF-99.99
asS'RA_galaxies'
p230
(lp231
F243.34246
aF187.64345
aF187.64345
aF187.64345
aF343.42021
aF276.03154
aF70.18337
aF196.05996
aF110.64454
aF110.64454
aF217.10367
aF217.10367
aF108.31017
aF108.31017
aF324.8615
aF324.8615
aF205.57796
aF28.30542
aF196.49433
aF170.62667
aF225.56167
aF187.77149
aF164.89847
aF198.85505
aF208.54644
aF147.12852
aF147.12852
aF137.89819
aF146.56147
aF170.36231
aF6.88196
aF129.03088
aF129.03088
aF217.50782
aF217.50782
aF122.90321
aF122.90321
aF14.87246
aF324.43825
aF188.21519
aF184.76552
aF171.07809
aF171.07809
aF142.29883
aF142.29883
aF242.35817
aF242.35817
aF311.01325
aF122.17811
aF122.17811
aF176.92928
asS'bs'
p232
(lp233
F51.9
aF53.8
aF27.9
aF31.5
aF45.7
aF107.5
aF41.5
aF29.4
aF58.3
aF22.7
aF43.3
aF40.1
aF49.1
aF46.6
aF50.7
aF54.9
aF55.4
aF47.0
aF51.3
aF56.3
aF22.4
aF60.0
aF48.5
aF50.6
aF41.9
aF94.7
aF39.9
aF72.0
aF75.5
aF113.3
aF49.1
aF58.1
aF43.5
aF73.3
aF26.6
aF38.3
aF35.1
aF49.2
aF17.9
aF40.3
aF64.2
aF39.1
aF42.9
aF32.2
aF27.4
aF36.0
aF42.6
aF33.2
aF40.7
aF52.9
aF39.5
asS'e_Ws'
p234
(lp235
F5.0
aF3.8
aF2.8
aF3.9
aF3.4
aF12.4
aF3.1
aF3.3
aF3.2
aF4.6
aF7.6
aF4.4
aF4.6
aF4.6
aF4.6
aF5.8
aF3.8
aF3.5
aF4.5
aF3.3
aF5.8
aF60.0
aF4.0
aF5.7
aF5.3
aF7.2
aF3.2
aF6.3
aF4.3
aF5.8
aF7.2
aF4.7
aF7.6
aF4.5
aF3.1
aF3.5
aF4.0
aF4.6
aF5.5
aF3.1
aF4.1
aF3.4
aF4.2
aF10.0
aF4.8
aF6.9
aF4.0
aF2.0
aF4.1
aF5.2
aF4.1
asS'Dec_galaxies'
p236
(lp237
F65.41842
aF1.27345
aF1.27345
aF1.27345
aF-17.47889
aF73.18322
aF-52.75828
aF-10.33961
aF71.59894
aF71.59894
aF32.39461
aF32.39461
aF73.84314
aF73.84314
aF2.82711
aF2.82711
aF38.53675
aF4.19583
aF3.95644
aF3.26275
aF68.26181
aF12.02986
aF14.7355
aF15.42285
aF24.55627
aF57.97071
aF57.97071
aF32.8488
aF47.13424
aF3.44491
aF30.99458
aF25.11269
aF25.11269
aF3.39782
aF3.39782
aF76.42164
aF76.42164
aF-36.18661
aF-38.49256
aF20.1835
aF6.56194
aF42.05642
aF42.05642
aF46.69647
aF46.69647
aF60.08806
aF60.08806
aF3.20944
aF46.30809
aF46.30809
aF37.13979
asS'MajDiams'
p238
(lp239
F30.23
aF17.79
aF17.79
aF17.79
aF75.31
aF29.93
aF14.33
aF41.85
aF26.84
aF26.84
aF27.51
aF27.51
aF36.98
aF36.98
aF36.88
aF36.88
aF22.75
aF16.39
aF52.84
aF16.79
aF47.65
aF18.85
aF6.888
aF34.99
aF28.81
aF38.62
aF38.62
aF7.359
aF14.73
aF26.35
aF36.69
aF25.96
aF25.96
aF15.96
aF15.96
aF13.8
aF13.8
aF9.877
aF45.23
aF10.75
aF6.336
aF10.75
aF10.75
aF5.888
aF5.888
aF14.93
aF14.93
aF26.3
aF10.82
aF10.82
aF13.02
asS'RA_targets'
p240
(lp241
F243.48833333333334
aF187.70833333333334
aF187.70833333333334
aF187.70833333333334
aF343.52458333333334
aF277.59708333333333
aF70.05
aF196.3875
aF110.47291666666666
aF110.47291666666666
aF217.24625
aF217.24625
aF108.65083333333334
aF108.65083333333334
aF324.93416666666667
aF324.93416666666667
aF205.63
aF28.616666666666667
aF196.35125000000002
aF170.60041666666666
aF225.81875
aF187.80458333333334
aF164.93875
aF198.93833333333333
aF208.60375000000002
aF147.16708333333335
aF147.16708333333335
aF137.86374999999998
aF146.58833333333334
aF170.30916666666667
aF7.044583333333334
aF128.89958333333334
aF128.89958333333334
aF217.41958333333335
aF217.41958333333335
aF122.74375
aF122.74375
aF14.655833333333334
aF324.7079166666667
aF188.01541666666668
aF184.83708333333334
aF171.16333333333336
aF171.16333333333336
aF142.29125
aF142.29125
aF242.08541666666665
aF242.08541666666665
aF310.7758333333333
aF122.28375000000001
aF122.28375000000001
aF176.69166666666666
asS'e_Lya_vs'
p242
(lp243
F1.0
aF1.0
aF11.0
aF1.0
aF1.0
aF5.0
aF1.0
aF1.0
aF4.0
aF1.0
aF1.0
aF1.0
aF4.0
aF1.0
aF1.0
aF6.0
aF1.0
aF1.0
aF1.0
aF1.0
aF1.0
aF1.0
aF2.0
aF1.0
aF1.0
aF1.0
aF1.0
aF1.0
aF1.0
aF5.0
aF1.0
aF1.0
aF1.0
aF1.0
aF11.0
aF4.0
aF6.0
aF1.0
aF1.0
aF1.0
aF4.0
aF1.0
aF1.0
aF1.0
aF1.0
aF1.0
aF4.0
aF5.0
aF1.0
aF5.0
aF3.0
asS'z_targets'
p244
(lp245
F0.129
aF0.117
aF0.117
aF0.117
aF0.06609
aF0.123
aF1.053
aF0.2784
aF0.23149
aF0.23149
aF0.62717
aF0.62717
aF0.371
aF0.371
aF0.26
aF0.26
aF0.1719
aF0.404
aF0.54566
aF0.47528
aF0.114
aF0.11612
aF0.63171
aF0.44811
aF1.89283
aF0.49179
aF0.49179
aF0.29038
aF0.23022
aF0.152
aF0.5
aF0.331
aF0.331
aF0.25344
aF0.25344
aF0.102
aF0.102
aF0.16414
aF0.18299
aF0.06301
aF0.3313
aF0.225
aF0.225
aF0.23998
aF0.23998
aF0.178
aF0.178
aF0.271
aF0.65873
aF0.65873
aF0.29586
asS'Names'
p246
(lp247
S'UGC10294'
p248
aS'2PIGGNGPGALB+3.26383+0.02704'
p249
aS'2PIGGNGPGALB+3.26383+0.02704'
p250
aS'2PIGGNGPGALB+3.26383+0.02704'
p251
aS'MCG-03-58-009'
p252
aS'NGC6654'
p253
aS'ESO157-IG050'
p254
aS'NGC4939'
p255
aS'UGC03804'
p256
aS'UGC03804'
p257
aS'MCG+06-32-039'
p258
aS'MCG+06-32-039'
p259
aS'UGC03717'
p260
aS'UGC03717'
p261
aS'UGC11785'
p262
aS'UGC11785'
p263
aS'UGC08679'
p264
aS'NGC0718'
p265
aS'UGC08186'
p266
aS'SDSSJ112230.40+031545.8'
p267
aS'MCG+11-18-020'
p268
aS'IC3440'
p269
aS'SDSSJ105935.63+144407.7'
p270
aS'PGC046123'
p271
aS'SDSSJ135411.14+243322.5'
p272
aS'MRK0021'
p273
aS'MRK0021'
p274
aS'UGC04831'
p275
aS'MCG+08-18-029'
p276
aS'PGC034796'
p277
aS'PGC001695'
p278
aS'PGC024169'
p279
aS'PGC024169'
p280
aS'SDSSJ143001.87+032352.1'
p281
aS'SDSSJ143001.87+032352.1'
p282
aS'UGC04238'
p283
aS'UGC04238'
p284
aS'MCG-06-03-014'
p285
aS'ESO343-G014'
p286
aS'NGC4529'
p287
aS'SDSSJ121903.71+063342.9'
p288
aS'SDSSJ112418.74+420323.1'
p289
aS'SDSSJ112418.74+420323.1'
p290
aS'HS0925+4654'
p291
aS'HS0925+4654'
p292
aS'UGC10247'
p293
aS'UGC10247'
p294
aS'NGC6954'
p295
aS'SDSSJ080842.74+461828.9'
p296
aS'SDSSJ080842.74+461828.9'
p297
aS'SDSSJ114743.02+370823.2'
p298
asS'l_cuss'
p299
(lp300
F0.06482045654106293
aF0.009874940175018951
aF0.011250642662145868
aF0.002449784968003395
aF0.7443862922690794
aF0.07430725215147414
aF0.08310620880985362
aF0.024278684523473256
aF0.1274410116579993
aF0.09923875405506993
aF0.4322390736128306
aF0.3531450384378671
aF0.14262179117988127
aF0.17083468074968527
aF0.7753599145266621
aF0.5835483599541823
aF0.7006146238278242
aF3.687513268332494e-07
aF0.6355144463081173
aF0.09457351612062186
aF0.3520625674848771
aF0.3963081202291781
aF0.0012406431119182603
aF0.5284462902567721
aF0.1089311425751151
aF0.8077350985143265
aF0.7202577660864078
aF0.00015533739301876453
aF0.20211345023588756
aF0.5199805045924932
aF0.07781148527082817
aF0.007162855892998223
aF0.0017701844836109275
aF3.897825175370215e-07
aF3.769034056711701e-07
aF0.00024114376675052164
aF0.00022894190883477838
aF8.489463590600518e-11
aF0.05637276013009144
aF1.7652928674387051e-09
aF1.860859336242615e-21
aF3.1178068446073653e-07
aF1.3760880499214516e-06
aF3.185762187882595e-07
aF2.089273850916735e-07
aF5.5849355614012245e-06
aF6.6463836495936e-06
aF0.006937002673479656
aF3.02804927532945e-07
aF9.27473103052936e-07
aF2.89153009371695e-07
as.