(dp0
S'Vhels'
p1
(lp2
F3504.0
aF9319.0
aF9319.0
aF9319.0
aF9030.0
aF1821.0
aF3871.0
aF3110.0
aF2887.0
aF2887.0
aF4130.0
aF4130.0
aF4188.0
aF4188.0
aF4074.0
aF4074.0
aF3419.0
aF1733.0
aF7006.0
aF8924.0
aF9765.0
aF7782.0
aF3102.0
aF8026.0
aF8593.0
aF8433.0
aF8433.0
aF4311.0
aF4604.0
aF6902.0
asS'impacts'
p3
(lp4
F274.325
aF158.495
aF158.495
aF158.495
aF355.071
aF233.649
aF85.419
aF253.817
aF199.343
aF199.343
aF131.745
aF131.745
aF286.214
aF286.214
aF112.31
aF112.31
aF60.099
aF255.352
aF248.657
aF104.128
aF325.169
aF77.836
aF46.308
aF165.293
aF218.735
aF95.293
aF95.293
aF59.112
aF71.587
aF98.884
asS'group_dists'
p5
(lp6
F-99.99
aF-99.99
aF-99.99
aF-99.99
aF89.0
aF17.5
aF-99.99
aF35.7
aF30.7
aF30.7
aF-99.99
aF-99.99
aF42.4
aF42.4
aF37.7
aF37.7
aF-99.99
aF14.6
aF74.7
aF-99.99
aF100.5
aF-99.99
aF-99.99
aF85.0
aF-99.99
aF89.4
aF89.4
aF-99.99
aF-99.99
aF-99.99
asS'MTypes'
p7
(lp8
S'Sm?'
p9
aS'x'
p10
ag10
ag10
aS'Sc'
p11
aS"(R')SB(s)0/a"
p12
aS'Sbc:_pec_sp'
p13
aS'SA(s)bc_Sy2'
p14
aS'Scd:'
p15
aS'Scd:'
p16
aS'Spiral_Sbrst'
p17
aS'Spiral_Sbrst'
p18
aS'Sbc'
p19
aS'Sbc'
p20
aS'Sd'
p21
aS'Sd'
p22
aS'Sm:'
p23
aS'SAB(s)a'
p24
aS'Scd(f)'
p25
ag10
ag10
aS'S'
p26
ag10
aS'Sa'
p27
ag10
aS'SBbc_Sbrst'
p28
aS'SBbc_Sbrst'
p29
aS'SABd'
p30
aS'Spiral'
p31
aS'Scd'
p32
asS'e_Lya_Ws'
p33
(lp34
F3.0
aF3.0
aF2.0
aF3.0
aF4.0
aF19.0
aF8.0
aF6.0
aF6.0
aF4.0
aF10.0
aF9.0
aF10.0
aF10.0
aF7.0
aF7.0
aF15.0
aF18.0
aF14.0
aF17.0
aF11.0
aF15.0
aF15.0
aF22.0
aF18.0
aF14.0
aF6.0
aF31.0
aF69.0
aF98.0
asS'Nas'
p35
(lp36
F79100000000000.0
aF60400000000000.0
aF30100000000000.0
aF6200000000000.0
aF12200000000000.0
aF13300000000000.0
aF103000000000000.0
aF15000000000000.0
aF94300000000000.0
aF6620000000000.0
aF73700000000000.0
aF101000000000000.0
aF16900000000000.0
aF172000000000000.0
aF271000000000000.0
aF296000000000000.0
aF150000000000000.0
aF98000000000000.0
aF183000000000000.0
aF139000000000000.0
aF13100000000000.0
aF192000000000000.0
aF177000000000000.0
aF181000000000000.0
aF153000000000000.0
aF534000000000000.0
aF214000000000000.0
aF245000000000000.0
aF225000000000000.0
aF196000000000000.0
asS'Lya_Ws'
p37
(lp38
F280.0
aF248.0
aF124.0
aF32.0
aF62.0
aF70.0
aF322.0
aF72.0
aF349.0
aF33.0
aF260.0
aF302.0
aF84.0
aF420.0
aF490.0
aF530.0
aF435.0
aF323.0
aF462.0
aF432.0
aF61.0
aF513.0
aF424.0
aF440.0
aF377.0
aF904.0
aF371.0
aF608.0
aF657.0
aF678.0
asS'bestDists'
p39
(lp40
F51.15
aF135.39
aF135.39
aF135.39
aF142.0
aF29.5
aF52.5
aF37.5
aF43.7
aF43.7
aF61.67
aF61.67
aF53.3
aF53.3
aF68.9
aF68.9
aF51.79
aF21.4
aF99.8
aF129.69
aF139.6
aF113.82
aF47.62
aF117.17
aF166.0
aF121.25
aF121.25
aF63.5
aF67.67
aF101.21
asS'adjustedIncs'
p41
(lp42
F51.0
aF29.0
aF29.0
aF29.0
aF49.0
aF64.0
aF90.0
aF48.0
aF55.0
aF55.0
aF65.0
aF65.0
aF64.0
aF64.0
aF90.0
aF90.0
aF0.0
aF52.0
aF82.0
aF58.0
aF52.0
aF36.0
aF83.0
aF68.0
aF38.0
aF52.0
aF52.0
aF0.0
aF56.0
aF63.0
asS'targets'
p43
(lp44
S'MRK876'
p45
aS'HE1228+0131'
p46
aS'HE1228+0131'
p47
aS'HE1228+0131'
p48
aS'MRC2251-178'
p49
aS'RX_J1830.3+7312'
p50
aS'HE0439-5254'
p51
aS'PG1302-102'
p52
aS'1H0717+714'
p53
aS'1H0717+714'
p54
aS'SDSSJ142859.10+322507.0'
p55
aS'SDSSJ142859.10+322507.0'
p56
aS'RX_J0714.5+7408'
p57
aS'RX_J0714.5+7408'
p58
aS'RX_J2139.7+0246'
p59
aS'RX_J2139.7+0246'
p60
aS'RBS1307'
p61
aS'PHL1226'
p62
aS'SDSSJ130524.30+035731.0'
p63
aS'SDSSJ112224.10+031802.0'
p64
aS'RX_J1503.2+6810'
p65
aS'MS1228.6+1219'
p66
aS'SDSSJ105945.30+144142.0'
p67
aS'SDSSJ131545.20+152556.0'
p68
aS'SDSSJ135424.90+243006.3'
p69
aS'SDSSJ094840.10+580038.0'
p70
aS'SDSSJ094840.10+580038.0'
p71
aS'SDSSJ091127.30+325337.0'
p72
aS'HS0943+4725'
p73
aS'RX_J1121.2+0326'
p74
asS'e_bs'
p75
(lp76
F3.0
aF2.3
aF1.7
aF2.4
aF2.0
aF7.5
aF1.9
aF2.0
aF1.9
aF2.8
aF4.6
aF2.6
aF2.7
aF2.7
aF2.8
aF3.5
aF2.3
aF2.1
aF2.7
aF2.0
aF3.5
aF2.3
aF2.4
aF3.4
aF3.2
aF4.3
aF1.9
aF3.8
aF2.6
aF3.5
asS'incs'
p77
(lp78
F49.0
aF28.0
aF28.0
aF28.0
aF48.0
aF61.0
aF79.0
aF46.0
aF53.0
aF53.0
aF63.0
aF63.0
aF61.0
aF61.0
aF80.0
aF80.0
aF0.0
aF50.0
aF76.0
aF56.0
aF50.0
aF35.0
aF77.0
aF65.0
aF37.0
aF50.0
aF50.0
aF0.0
aF55.0
aF61.0
asS'azimuths'
p79
(lp80
F7.3
aF59.7
aF59.7
aF59.7
aF71.0
aF70.4
aF24.9
aF61.2
aF7.1
aF7.1
aF28.7
aF28.7
aF82.6
aF82.6
aF69.0
aF69.0
aF87.1
aF57.0
aF14.1
aF2.7
aF0.6
aF26.3
aF70.8
aF16.3
aF66.3
aF78.0
aF78.0
aF17.2
aF82.2
aF70.7
asS'group_nums'
p81
(lp82
S'-99'
p83
aS'-99'
p84
aS'-99'
p85
aS'-99'
p86
aS'207780'
p87
aS'111804'
p88
aS'-99'
p89
aS'102770'
p90
aS'101152'
p91
aS'101152'
p92
aS'-99'
p93
aS'-99'
p94
aS'110299'
p95
aS'110299'
p96
aS'211783'
p97
aS'211783'
p98
aS'-99'
p99
aS'211769'
p100
aS'108467'
p101
aS'-99'
p102
aS'106220'
p103
aS'-99'
p104
aS'-99'
p105
aS'109182'
p106
aS'-99'
p107
aS'101559'
p108
aS'101559'
p109
aS'-99'
p110
aS'-99'
p111
aS'-99'
p112
asS'Ws'
p113
(lp114
F86.5
aF89.6
aF46.5
aF52.5
aF76.1
aF179.0
aF69.1
aF49.0
aF97.0
aF37.8
aF72.1
aF66.7
aF81.8
aF77.6
aF84.4
aF91.4
aF92.2
aF78.2
aF85.5
aF93.8
aF37.3
aF99.9
aF80.7
aF84.2
aF69.8
aF157.7
aF66.4
aF119.9
aF125.8
aF188.6
asS'ls'
p115
(lp116
F0.10291129323283145
aF0.17868522796507605
aF0.20357831168686408
aF0.04432840885258963
aF0.3419941169478868
aF0.10834428359023121
aF0.5373537901174053
aF0.017031989186412282
aF0.24430828845276858
aF0.1902437044084589
aF0.5525109653677446
aF0.4514087643009037
aF0.11244454430210774
aF0.13468788793759146
aF0.748600107720914
aF0.5634084983471788
aF0.8079481913318346
aF0.010512540244290595
aF0.40972716803428294
aF0.4494762917166421
aF0.1725057776395563
aF0.6909540106471176
aF0.5992716420586439
aF0.5118738742071529
aF0.1738372857109356
aF0.7773720263936509
aF0.6931830004393751
aF0.4778244341741461
aF0.6606462420349322
aF0.6140473454021022
asS'Lya_vs'
p117
(lp118
F3478.0
aF9240.0
aF9351.0
aF9568.0
aF9029.0
aF1971.0
aF3853.0
aF3447.0
aF2873.0
aF2988.0
aF4126.0
aF4220.0
aF4074.0
aF4264.0
aF4083.0
aF4181.0
aF3465.0
aF1721.0
aF7043.0
aF8872.0
aF9714.0
aF7811.0
aF3128.0
aF8025.0
aF8500.0
aF8385.0
aF8516.0
aF4320.0
aF4603.0
aF6975.0
asS'R_virs'
p119
(lp120
F182.6
aF126.65
aF126.65
aF126.65
aF342.79
aF181.35
aF109.1
aF228.54
aF168.21
aF168.21
aF171.1
aF171.1
aF209.84
aF209.84
aF209.45
aF209.45
aF150.08
aF119.69
aF268.44
aF121.7
aF249.96
aF131.82
aF65.81
aF201.99
aF176.64
aF216.22
aF216.22
aF68.88
aF111.19
aF166.09
asS'Bmags'
p121
(lp122
F-99.99
aF17.2
aF17.2
aF17.2
aF15.1
aF12.6
aF14.8
aF11.6
aF12.7
aF12.7
aF-99.99
aF-99.99
aF13.8
aF13.8
aF13.6
aF13.6
aF-99.99
aF12.5
aF15.3
aF-99.99
aF-99.99
aF16.6
aF-99.99
aF-99.99
aF-99.99
aF15.1
aF15.1
aF15.0
aF-99.99
aF-99.99
asS'cuss'
p123
(lp124
F166.21002727573327
aF75.03500609049085
aF75.03500609049085
aF75.03500609049085
aF653.5502293557856
aF163.74199417681464
aF54.24619559932291
aF270.7342453865044
aF139.0508881812698
aF139.0508881812698
aF144.28988443754469
aF144.28988443754469
aF224.87975540719532
aF224.87975540719532
aF223.9682046005638
aF223.9682046005638
aF108.51058416117756
aF66.35420196943069
aF384.09991708408376
aF68.79803659262377
aF328.92308694434934
aF81.8402659147684
aF18.077555671937507
aF206.97405755069886
aF154.63752403928353
aF240.00395815069382
aF240.00395815069382
aF19.963110210560878
aF56.53327176981711
aF135.26048157166971
asS'vcorrs'
p125
(lp126
F3632.0
aF9613.0
aF9613.0
aF9613.0
aF8754.0
aF1886.0
aF3738.0
aF3382.0
aF2973.0
aF2973.0
aF4379.0
aF4379.0
aF4269.0
aF4269.0
aF3860.0
aF3860.0
aF3677.0
aF1467.0
aF7298.0
aF9208.0
aF9912.0
aF8082.0
aF3381.0
aF8319.0
aF8868.0
aF8609.0
aF8609.0
aF4509.0
aF4805.0
aF7186.0
asS'e_Nas'
p127
(lp128
F970000000000.0
aF760000000000.0
aF535000000000.0
aF569000000000.0
aF772000000000.0
aF3610000000000.0
aF4200000000000.0
aF1280000000000.0
aF1950000000000.0
aF796000000000.0
aF3580000000000.0
aF4740000000000.0
aF2180000000000.0
aF7550000000000.0
aF23600000000000.0
aF23200000000000.0
aF8590000000000.0
aF8830000000000.0
aF12400000000000.0
aF9080000000000.0
aF2720000000000.0
aF12400000000000.0
aF16900000000000.0
aF23200000000000.0
aF21600000000000.0
aF45400000000000.0
aF28800000000000.0
aF34000000000000.0
aF63400000000000.0
aF47500000000000.0
asS'e_bestDists'
p129
(lp130
F5.11
aF13.53
aF13.53
aF13.53
aF13.96
aF9.09
aF10.6
aF9.42
aF5.35
aF5.35
aF6.16
aF6.16
aF6.31
aF6.31
aF7.24
aF7.24
aF5.17
aF6.59
aF7.75
aF12.96
aF13.96
aF11.38
aF4.76
aF11.71
aF31.69
aF12.12
aF12.12
aF6.35
aF6.76
aF10.12
asS'group_mems'
p131
(lp132
S'-99'
p133
aS'-99'
p134
aS'-99'
p135
aS'-99'
p136
aS'1'
p137
ag137
aS'-99'
p138
aS'2'
p139
aS'3'
p140
ag140
aS'-99'
p141
aS'-99'
p142
ag137
ag137
ag137
ag137
aS'-99'
p143
ag137
ag137
aS'-99'
p144
ag137
aS'-99'
p145
aS'-99'
p146
ag137
aS'-99'
p147
ag139
ag139
aS'-99'
p148
aS'-99'
p149
aS'-99'
p150
asS'e_Lstar_meds'
p151
(lp152
F-99.99
aF0.18
aF0.18
aF0.18
aF1.4
aF2.0
aF0.46
aF6.5
aF1.4
aF1.4
aF-99.99
aF-99.99
aF0.77
aF0.77
aF1.5
aF1.5
aF-99.99
aF1.0
aF0.45
aF-99.99
aF-99.99
aF0.24
aF-99.99
aF-99.99
aF-99.99
aF0.99
aF0.99
aF0.31
aF-99.99
aF-99.99
asS'Dec_targets'
p153
(lp154
F65.71972222
aF1.256388889
aF1.256388889
aF1.256388889
aF-17.58194444
aF73.21972222
aF-52.805
aF-10.55555556
aF71.34333333
aF71.34333333
aF32.41861111
aF32.41861111
aF74.13611111
aF74.13611111
aF2.768333333
aF2.768333333
aF38.48444444
aF4.805
aF3.958611111
aF3.300555556
aF68.16833333
aF12.05194444
aF14.69527778
aF15.43222222
aF24.50166667
aF58.01083333
aF58.01083333
aF32.89361111
aF47.19194444
aF3.429722222
asS'PAs'
p155
(lp156
F4.0
aF45.0
aF45.0
aF45.0
aF27.0
aF15.0
aF35.0
aF5.0
aF5.0
aF5.0
aF50.0
aF50.0
aF115.0
aF115.0
aF60.0
aF60.0
aF49.0
aF150.0
aF105.0
aF148.0
aF135.0
aF82.0
aF27.0
aF67.0
aF70.0
aF105.0
aF105.0
aF130.0
aF100.0
aF145.0
asS'Lstar_meds'
p157
(lp158
F-99.99
aF0.39
aF0.39
aF0.39
aF2.9
aF1.4
aF0.49
aF5.5
aF2.5
aF2.5
aF-99.99
aF-99.99
aF1.4
aF1.4
aF3.1
aF3.1
aF-99.99
aF0.73
aF1.1
aF-99.99
aF-99.99
aF0.48
aF-99.99
aF-99.99
aF-99.99
aF2.0
aF2.0
aF0.63
aF-99.99
aF-99.99
asS'RA_galaxies'
p159
(lp160
F243.34246
aF187.64345
aF187.64345
aF187.64345
aF343.42021
aF276.03154
aF70.18337
aF196.05996
aF110.64454
aF110.64454
aF217.10367
aF217.10367
aF108.31017
aF108.31017
aF324.8615
aF324.8615
aF205.57796
aF28.30542
aF196.49433
aF170.62667
aF225.56167
aF187.77149
aF164.89847
aF198.85505
aF208.54644
aF147.12852
aF147.12852
aF137.89819
aF146.56147
aF170.36231
asS'bs'
p161
(lp162
F51.9
aF53.8
aF27.9
aF31.5
aF45.7
aF107.5
aF41.5
aF29.4
aF58.3
aF22.7
aF43.3
aF40.1
aF49.1
aF46.6
aF50.7
aF54.9
aF55.4
aF47.0
aF51.3
aF56.3
aF22.4
aF60.0
aF48.5
aF50.6
aF41.9
aF94.7
aF39.9
aF72.0
aF75.5
aF113.3
asS'e_Ws'
p163
(lp164
F5.0
aF3.8
aF2.8
aF3.9
aF3.4
aF12.4
aF3.1
aF3.3
aF3.2
aF4.6
aF7.6
aF4.4
aF4.6
aF4.6
aF4.6
aF5.8
aF3.8
aF3.5
aF4.5
aF3.3
aF5.8
aF60.0
aF4.0
aF5.7
aF5.3
aF7.2
aF3.2
aF6.3
aF4.3
aF5.8
asS'Dec_galaxies'
p165
(lp166
F65.41842
aF1.27345
aF1.27345
aF1.27345
aF-17.47889
aF73.18322
aF-52.75828
aF-10.33961
aF71.59894
aF71.59894
aF32.39461
aF32.39461
aF73.84314
aF73.84314
aF2.82711
aF2.82711
aF38.53675
aF4.19583
aF3.95644
aF3.26275
aF68.26181
aF12.02986
aF14.7355
aF15.42285
aF24.55627
aF57.97071
aF57.97071
aF32.8488
aF47.13424
aF3.44491
asS'MajDiams'
p167
(lp168
F30.23
aF17.79
aF17.79
aF17.79
aF75.31
aF29.93
aF14.33
aF41.85
aF26.84
aF26.84
aF27.51
aF27.51
aF36.98
aF36.98
aF36.88
aF36.88
aF22.75
aF16.39
aF52.84
aF16.79
aF47.65
aF18.85
aF6.888
aF34.99
aF28.81
aF38.62
aF38.62
aF7.359
aF14.73
aF26.35
asS'RA_targets'
p169
(lp170
F243.4883333
aF187.7083333
aF187.7083333
aF187.7083333
aF343.5245833
aF277.5966667
aF70.05
aF196.3875
aF110.4729167
aF110.4729167
aF217.2458333
aF217.2458333
aF108.6508333
aF108.6508333
aF324.9341667
aF324.9341667
aF205.6304167
aF28.61666667
aF196.35125
aF170.6004167
aF225.8183333
aF187.8045833
aF164.9383333
aF198.9383333
aF208.60375
aF147.1670833
aF147.1670833
aF137.86375
aF146.58875
aF170.3083333
asS'e_Lya_vs'
p171
(lp172
F1.0
aF1.0
aF11.0
aF1.0
aF1.0
aF5.0
aF1.0
aF1.0
aF4.0
aF1.0
aF1.0
aF1.0
aF4.0
aF1.0
aF1.0
aF6.0
aF1.0
aF1.0
aF1.0
aF1.0
aF1.0
aF1.0
aF2.0
aF1.0
aF1.0
aF1.0
aF1.0
aF1.0
aF1.0
aF5.0
asS'z_targets'
p173
(lp174
F0.129
aF0.117
aF0.117
aF0.117
aF0.06609
aF0.123
aF1.053
aF0.2784
aF0.23149
aF0.23149
aF0.62717
aF0.62717
aF0.371
aF0.371
aF0.26
aF0.26
aF0.1719
aF0.404
aF0.54566
aF0.47528
aF0.114
aF0.11612
aF0.63171
aF0.44811
aF1.89283
aF0.49179
aF0.49179
aF0.29038
aF0.23
aF0.152
asS'Names'
p175
(lp176
S'UGC10294'
p177
aS'2PIGGNGPGALB+3.26383+0.02704'
p178
aS'2PIGGNGPGALB+3.26383+0.02704'
p179
aS'2PIGGNGPGALB+3.26383+0.02704'
p180
aS'MCG-03-58-009'
p181
aS'NGC6654'
p182
aS'ESO157-IG050'
p183
aS'NGC4939'
p184
aS'UGC03804'
p185
aS'UGC03804'
p186
aS'MCG+06-32-039'
p187
aS'MCG+06-32-039'
p188
aS'UGC03717'
p189
aS'UGC03717'
p190
aS'UGC11785'
p191
aS'UGC11785'
p192
aS'UGC08679'
p193
aS'NGC0718'
p194
aS'UGC08186'
p195
aS'SDSSJ112230.40+031545.8'
p196
aS'MCG+11-18-020'
p197
aS'IC3440'
p198
aS'SDSSJ105935.63+144407.7'
p199
aS'PGC046123'
p200
aS'SDSSJ135411.14+243322.5'
p201
aS'MRK0021'
p202
aS'MRK0021'
p203
aS'UGC04831'
p204
aS'MCG+08-18-029'
p205
aS'PGC034796'
p206
asS'l_cuss'
p207
(lp208
F0.06450852460550563
aF0.009874940175018951
aF0.011250642662145868
aF0.002449784968003395
aF0.7443862922690794
aF0.07437463563847674
aF0.08310620880985362
aF0.024278684523473256
aF0.1274410116579993
aF0.09923875405506993
aF0.43427622254293785
aF0.3548094160500373
aF0.14301965348743148
aF0.17131124663579833
aF0.7760935403891791
aF0.5841004985944074
aF0.697917737237966
aF3.687513268332494e-07
aF0.6355144463081173
aF0.09457351612062186
aF0.35263253940731454
aF0.3963081202291781
aF0.0013894521802868284
aF0.5284462902567721
aF0.1089311425751151
aF0.806342401192111
aF0.7190158972311624
aF0.00015533739301876453
aF0.20119268131079737
aF0.5128977202237204
as.