(dp0
S'Vhels'
p1
(lp2
F3504.0
aF9319.0
aF9030.0
aF1821.0
aF3871.0
aF3110.0
aF2887.0
aF2887.0
aF4130.0
aF4130.0
aF4188.0
aF4188.0
aF4074.0
aF4074.0
aF3419.0
aF7006.0
aF8924.0
aF9765.0
aF7782.0
aF8026.0
aF8593.0
aF8433.0
aF8433.0
aF4604.0
aF6902.0
aF9385.0
aF9162.0
aF9162.0
aF9162.0
aF9855.0
aF9855.0
asS'impacts'
p3
(lp4
F274.082
aF158.495
aF355.071
aF233.701
aF85.419
aF253.817
aF199.343
aF199.343
aF132.116
aF132.116
aF286.46
aF286.46
aF112.521
aF112.521
aF59.72
aF248.657
aF104.128
aF325.438
aF77.836
aF165.293
aF218.735
aF94.77
aF94.77
aF71.485
aF97.607
aF350.212
aF465.601
aF465.601
aF465.601
aF331.992
aF331.992
asS'group_dists'
p5
(lp6
F-99.99
aF-99.99
aF89.0
aF17.5
aF-99.99
aF35.7
aF30.7
aF30.7
aF-99.99
aF-99.99
aF42.4
aF42.4
aF37.7
aF37.7
aF-99.99
aF74.7
aF-99.99
aF100.5
aF-99.99
aF85.0
aF-99.99
aF89.4
aF89.4
aF-99.99
aF-99.99
aF-99.99
aF92.4
aF92.4
aF92.4
aF100.5
aF100.5
asS'MTypes'
p7
(lp8
S'Sm?'
p9
aS'x'
p10
aS'Sc'
p11
aS"(R')SB(s)0/a"
p12
aS'Sbc:_pec_sp'
p13
aS'SA(s)bc_Sy2'
p14
aS'Scd:'
p15
aS'Scd:'
p16
aS'Spiral_Sbrst'
p17
aS'Spiral_Sbrst'
p18
aS'Sbc'
p19
aS'Sbc'
p20
aS'Sd'
p21
aS'Sd'
p22
aS'Sm:'
p23
aS'Scd(f)'
p24
ag10
ag10
aS'S'
p25
aS'Sa'
p26
ag10
aS'SBbc_Sbrst'
p27
aS'SBbc_Sbrst'
p28
aS'Spiral'
p29
aS'Scd'
p30
ag25
aS'Sb'
p31
aS'Sb'
p32
aS'Sb'
p33
aS'S?'
p34
aS'S?'
p35
asS'e_Lya_Ws'
p36
(lp37
F3.0
aF2.0
aF4.0
aF19.0
aF8.0
aF6.0
aF6.0
aF4.0
aF10.0
aF9.0
aF10.0
aF10.0
aF7.0
aF7.0
aF15.0
aF14.0
aF17.0
aF11.0
aF15.0
aF22.0
aF18.0
aF14.0
aF6.0
aF69.0
aF98.0
aF11.0
aF4.0
aF3.0
aF5.0
aF7.0
aF5.0
asS'e_Lstar_sdsss'
p38
(lp39
F-99.99
aF0.29
aF-99.99
aF-99.99
aF-99.99
aF-99.99
aF-99.99
aF-99.99
aF0.36
aF0.36
aF-99.99
aF-99.99
aF-99.99
aF-99.99
aF0.068
aF0.41
aF0.13
aF-99.99
aF0.23
aF0.47
aF0.51
aF1.1
aF1.1
aF0.16
aF0.28
aF-99.99
aF-99.99
aF-99.99
aF-99.99
aF0.98
aF0.98
asS'Bmag_sdsss'
p40
(lp41
F-99.99
aF16.7
aF-99.99
aF-99.99
aF-99.99
aF-99.99
aF-99.99
aF-99.99
aF14.7
aF14.7
aF-99.99
aF-99.99
aF-99.99
aF-99.99
aF16.1
aF15.4
aF17.5
aF-99.99
aF16.6
aF15.8
aF17.2
aF14.9
aF14.9
aF15.7
aF16.1
aF-99.99
aF-99.99
aF-99.99
aF-99.99
aF15.5
aF15.5
asS'Nas'
p42
(lp43
F79100000000000.0
aF30100000000000.0
aF12200000000000.0
aF13300000000000.0
aF103000000000000.0
aF15000000000000.0
aF94300000000000.0
aF6620000000000.0
aF73700000000000.0
aF101000000000000.0
aF16900000000000.0
aF172000000000000.0
aF271000000000000.0
aF296000000000000.0
aF150000000000000.0
aF183000000000000.0
aF139000000000000.0
aF13100000000000.0
aF192000000000000.0
aF181000000000000.0
aF153000000000000.0
aF534000000000000.0
aF214000000000000.0
aF225000000000000.0
aF196000000000000.0
aF118000000000000.0
aF14100000000000.0
aF125000000000000.0
aF47200000000000.0
aF55900000000000.0
aF16000000000000.0
asS'Lya_Ws'
p44
(lp45
F280.0
aF124.0
aF62.0
aF70.0
aF322.0
aF72.0
aF349.0
aF33.0
aF260.0
aF302.0
aF84.0
aF420.0
aF490.0
aF530.0
aF435.0
aF462.0
aF432.0
aF61.0
aF513.0
aF440.0
aF377.0
aF904.0
aF371.0
aF657.0
aF678.0
aF359.0
aF63.0
aF306.0
aF161.0
aF205.0
aF71.0
asS'bestDists'
p46
(lp47
F51.15
aF135.39
aF142.0
aF29.5
aF52.5
aF37.5
aF43.7
aF43.7
aF61.67
aF61.67
aF53.3
aF53.3
aF68.9
aF68.9
aF51.79
aF99.8
aF129.69
aF139.6
aF113.82
aF117.17
aF166.0
aF121.25
aF121.25
aF67.67
aF101.21
aF129.13
aF126.07
aF126.07
aF126.07
aF141.23
aF141.23
asS'adjustedIncs'
p48
(lp49
F51.0
aF29.0
aF49.0
aF64.0
aF90.0
aF48.0
aF55.0
aF55.0
aF65.0
aF65.0
aF64.0
aF64.0
aF90.0
aF90.0
aF0.0
aF82.0
aF58.0
aF52.0
aF36.0
aF68.0
aF38.0
aF52.0
aF52.0
aF56.0
aF63.0
aF62.0
aF90.0
aF90.0
aF90.0
aF53.0
aF53.0
asS'targets'
p50
(lp51
S'MRK876'
p52
aS'HE1228+0131'
p53
aS'MRC2251-178'
p54
aS'RX_J1830.3+7312'
p55
aS'HE0439-5254'
p56
aS'PG1302-102'
p57
aS'1H0717+714'
p58
aS'1H0717+714'
p59
aS'SDSSJ142859.10+322507.0'
p60
aS'SDSSJ142859.10+322507.0'
p61
aS'RX_J0714.5+7408'
p62
aS'RX_J0714.5+7408'
p63
aS'RX_J2139.7+0246'
p64
aS'RX_J2139.7+0246'
p65
aS'RBS1307'
p66
aS'SDSSJ130524.30+035731.0'
p67
aS'SDSSJ112224.10+031802.0'
p68
aS'RX_J1503.2+6810'
p69
aS'MS1228.6+1219'
p70
aS'SDSSJ131545.20+152556.0'
p71
aS'SDSSJ135424.90+243006.3'
p72
aS'SDSSJ094840.10+580038.0'
p73
aS'SDSSJ094840.10+580038.0'
p74
aS'HS0943+4725'
p75
aS'RX_J1121.2+0326'
p76
aS'RX_J0028.1+3103'
p77
aS'RBS1768'
p78
aS'RBS1768'
p79
aS'RBS1768'
p80
aS'NAB1612+26'
p81
aS'NAB1612+26'
p82
asS'e_bs'
p83
(lp84
F3.0
aF1.7
aF2.0
aF7.5
aF1.9
aF2.0
aF1.9
aF2.8
aF4.6
aF2.6
aF2.7
aF2.7
aF2.8
aF3.5
aF2.3
aF2.7
aF2.0
aF3.5
aF2.3
aF3.4
aF3.2
aF4.3
aF1.9
aF2.6
aF3.5
aF4.4
aF3.3
aF1.6
aF2.6
aF2.5
aF1.8
asS'incs'
p85
(lp86
F49.0
aF28.0
aF48.0
aF61.0
aF79.0
aF46.0
aF53.0
aF53.0
aF63.0
aF63.0
aF61.0
aF61.0
aF80.0
aF80.0
aF0.0
aF76.0
aF56.0
aF50.0
aF35.0
aF65.0
aF37.0
aF50.0
aF50.0
aF55.0
aF61.0
aF60.0
aF84.0
aF84.0
aF84.0
aF52.0
aF52.0
asS'azimuths'
p87
(lp88
F7.3
aF59.7
aF71.0
aF70.4
aF24.9
aF61.2
aF7.1
aF7.1
aF28.7
aF28.7
aF82.6
aF82.6
aF69.1
aF69.1
aF87.1
aF14.1
aF2.7
aF0.6
aF26.3
aF16.3
aF66.3
aF77.9
aF77.9
aF82.4
aF71.3
aF46.3
aF74.0
aF74.0
aF74.0
aF54.9
aF54.9
asS'group_nums'
p89
(lp90
S'-99'
p91
aS'-99'
p92
aS'207780'
p93
aS'111804'
p94
aS'-99'
p95
aS'102770'
p96
aS'101152'
p97
aS'101152'
p98
aS'-99'
p99
aS'-99'
p100
aS'110299'
p101
aS'110299'
p102
aS'211783'
p103
aS'211783'
p104
aS'-99'
p105
aS'108467'
p106
aS'-99'
p107
aS'106220'
p108
aS'-99'
p109
aS'109182'
p110
aS'-99'
p111
aS'101559'
p112
aS'101559'
p113
aS'-99'
p114
aS'-99'
p115
aS'-99'
p116
aS'201920'
p117
aS'201920'
p118
aS'201920'
p119
aS'101216'
p120
aS'101216'
p121
asS'Ws'
p122
(lp123
F86.5
aF46.5
aF76.1
aF179.0
aF69.1
aF49.0
aF97.0
aF37.8
aF72.1
aF66.7
aF81.8
aF77.6
aF84.4
aF91.4
aF92.2
aF85.5
aF93.8
aF37.3
aF99.9
aF84.2
aF69.8
aF157.7
aF66.4
aF125.8
aF188.6
aF81.8
aF29.8
aF53.0
aF41.9
aF55.6
aF34.4
asS'ls'
p124
(lp125
F0.10332342769038733
aF0.20357831168686408
aF0.3419941169478868
aF0.10826425299929779
aF0.5373537901174053
aF0.017031989186412282
aF0.24430828845276858
aF0.1902437044084589
aF0.5506665272586498
aF0.44990183397762623
aF0.11208536619678722
aF0.1342576586125557
aF0.7477910248515222
aF0.5627995695482366
aF0.8095787658196439
aF0.40972716803428294
aF0.4494762917166421
aF0.1720232463127217
aF0.6909540106471176
aF0.5118738742071529
aF0.1738372857109356
aF0.7790266462633908
aF0.6946584257530615
aF0.6614265187928401
aF0.6196581494167922
aF0.05580707359006153
aF0.014103614234931918
aF0.009018076772880338
aF0.0037800267761958564
aF0.06475881502177781
aF0.05106349358510814
asS'Lya_vs'
p126
(lp127
F3478.0
aF9351.0
aF9029.0
aF1971.0
aF3853.0
aF3447.0
aF2873.0
aF2988.0
aF4126.0
aF4220.0
aF4074.0
aF4264.0
aF4083.0
aF4181.0
aF3465.0
aF7043.0
aF8872.0
aF9714.0
aF7811.0
aF8025.0
aF8500.0
aF8385.0
aF8516.0
aF4603.0
aF6975.0
aF9332.0
aF9308.0
aF9360.0
aF9434.0
aF9916.0
aF9970.0
asS'R_virs'
p128
(lp129
F182.6
aF126.65
aF342.79
aF181.35
aF109.1
aF228.54
aF168.21
aF168.21
aF171.1
aF171.1
aF209.84
aF209.84
aF209.45
aF209.45
aF150.08
aF268.44
aF121.7
aF249.96
aF131.82
aF201.99
aF176.64
aF216.22
aF216.22
aF111.19
aF166.09
aF208.71
aF241.13
aF241.13
aF241.13
aF204.17
aF204.17
asS'Bmags'
p130
(lp131
F-99.99
aF17.2
aF15.1
aF12.6
aF14.8
aF11.6
aF12.7
aF12.7
aF-99.99
aF-99.99
aF13.8
aF13.8
aF13.6
aF13.6
aF-99.99
aF15.3
aF-99.99
aF-99.99
aF16.6
aF-99.99
aF-99.99
aF15.1
aF15.1
aF-99.99
aF-99.99
aF15.6
aF15.9
aF15.9
aF15.9
aF14.7
aF14.7
asS'cuss'
p132
(lp133
F166.21002727573327
aF75.03500609049085
aF653.5502293557856
aF163.74199417681464
aF54.24619559932291
aF270.7342453865044
aF139.0508881812698
aF139.0508881812698
aF144.28988443754469
aF144.28988443754469
aF224.87975540719532
aF224.87975540719532
aF223.9682046005638
aF223.9682046005638
aF108.51058416117756
aF384.09991708408376
aF68.79803659262377
aF328.92308694434934
aF81.8402659147684
aF206.97405755069886
aF154.63752403928353
aF240.00395815069382
aF240.00395815069382
aF56.53327176981711
aF135.26048157166971
aF222.23966187204297
aF304.18646200480384
aF304.18646200480384
aF304.18646200480384
aF211.87325330017472
aF211.87325330017472
asS'vcorrs'
p134
(lp135
F3632.0
aF9613.0
aF8754.0
aF1886.0
aF3738.0
aF3382.0
aF2973.0
aF2973.0
aF4379.0
aF4379.0
aF4269.0
aF4269.0
aF3860.0
aF3860.0
aF3677.0
aF7298.0
aF9208.0
aF9912.0
aF8082.0
aF8319.0
aF8868.0
aF8609.0
aF8609.0
aF4805.0
aF7186.0
aF9169.0
aF8951.0
aF8951.0
aF8951.0
aF10028.0
aF10028.0
asS'e_Nas'
p136
(lp137
F970000000000.0
aF535000000000.0
aF772000000000.0
aF3610000000000.0
aF4200000000000.0
aF1280000000000.0
aF1950000000000.0
aF796000000000.0
aF3580000000000.0
aF4740000000000.0
aF2180000000000.0
aF7550000000000.0
aF23600000000000.0
aF23200000000000.0
aF8590000000000.0
aF12400000000000.0
aF9080000000000.0
aF2720000000000.0
aF12400000000000.0
aF23200000000000.0
aF21600000000000.0
aF45400000000000.0
aF28800000000000.0
aF63400000000000.0
aF47500000000000.0
aF5660000000000.0
aF1090000000000.0
aF3950000000000.0
aF1910000000000.0
aF2550000000000.0
aF1450000000000.0
asS'e_bestDists'
p138
(lp139
F5.11
aF13.53
aF13.96
aF9.09
aF10.6
aF9.42
aF5.35
aF5.35
aF6.16
aF6.16
aF6.31
aF6.31
aF7.24
aF7.24
aF5.17
aF7.75
aF12.96
aF13.96
aF11.38
aF11.71
aF31.69
aF12.12
aF12.12
aF6.76
aF10.12
aF12.91
aF12.6
aF12.6
aF12.6
aF14.12
aF14.12
asS'group_mems'
p140
(lp141
S'-99'
p142
aS'-99'
p143
aS'1'
p144
ag144
aS'-99'
p145
aS'2'
p146
aS'3'
p147
ag147
aS'-99'
p148
aS'-99'
p149
ag144
ag144
ag144
ag144
aS'-99'
p150
ag144
aS'-99'
p151
ag144
aS'-99'
p152
ag144
aS'-99'
p153
ag146
ag146
aS'-99'
p154
aS'-99'
p155
aS'-99'
p156
ag146
ag146
ag146
ag147
ag147
asS'e_Lstar_meds'
p157
(lp158
F-99.99
aF0.18
aF1.4
aF2.0
aF0.46
aF6.5
aF1.4
aF1.4
aF-99.99
aF-99.99
aF0.77
aF0.77
aF1.5
aF1.5
aF-99.99
aF0.45
aF-99.99
aF-99.99
aF0.24
aF-99.99
aF-99.99
aF0.99
aF0.99
aF-99.99
aF-99.99
aF1.1
aF0.5
aF0.5
aF0.5
aF1.9
aF1.9
asS'Dec_targets'
p159
(lp160
F65.71944444444445
aF1.256388888888889
aF-17.581944444444446
aF73.21944444444445
aF-52.805
aF-10.555555555555555
aF71.34333333333333
aF71.34333333333333
aF32.41861111111111
aF32.41861111111111
aF74.13638888888889
aF74.13638888888889
aF2.7680555555555557
aF2.7680555555555557
aF38.484722222222224
aF3.958611111111111
aF3.3005555555555555
aF68.16833333333334
aF12.051944444444445
aF15.432222222222222
aF24.501666666666665
aF58.010555555555555
aF58.010555555555555
aF47.191944444444445
aF3.4294444444444445
aF31.063333333333333
aF-38.477777777777774
aF-38.477777777777774
aF-38.477777777777774
aF26.54722222222222
aF26.54722222222222
asS'PAs'
p161
(lp162
F4.0
aF45.0
aF27.0
aF15.0
aF35.0
aF5.0
aF5.0
aF5.0
aF50.0
aF50.0
aF115.0
aF115.0
aF60.0
aF60.0
aF49.0
aF105.0
aF148.0
aF135.0
aF82.0
aF67.0
aF70.0
aF105.0
aF105.0
aF100.0
aF145.0
aF110.0
aF160.0
aF160.0
aF160.0
aF140.0
aF140.0
asS'Lstar_meds'
p163
(lp164
F-99.99
aF0.39
aF2.9
aF1.4
aF0.49
aF5.5
aF2.5
aF2.5
aF-99.99
aF-99.99
aF1.4
aF1.4
aF3.1
aF3.1
aF-99.99
aF1.1
aF-99.99
aF-99.99
aF0.48
aF-99.99
aF-99.99
aF2.0
aF2.0
aF-99.99
aF-99.99
aF1.8
aF1.1
aF1.1
aF1.1
aF4.2
aF4.2
asS'RA_galaxies'
p165
(lp166
F243.34246
aF187.64345
aF343.42021
aF276.03154
aF70.18337
aF196.05996
aF110.64454
aF110.64454
aF217.10367
aF217.10367
aF108.31017
aF108.31017
aF324.8615
aF324.8615
aF205.57796
aF196.49433
aF170.62667
aF225.56167
aF187.77149
aF198.85505
aF208.54644
aF147.12852
aF147.12852
aF146.56147
aF170.36231
aF6.88196
aF324.43825
aF324.43825
aF324.43825
aF243.69459
aF243.69459
asS'bs'
p167
(lp168
F51.9
aF27.9
aF45.7
aF107.5
aF41.5
aF29.4
aF58.3
aF22.7
aF43.3
aF40.1
aF49.1
aF46.6
aF50.7
aF54.9
aF55.4
aF51.3
aF56.3
aF22.4
aF60.0
aF50.6
aF41.9
aF94.7
aF39.9
aF75.5
aF113.3
aF49.1
aF17.9
aF31.8
aF25.2
aF33.4
aF20.6
asS'e_Ws'
p169
(lp170
F5.0
aF2.8
aF3.4
aF12.4
aF3.1
aF3.3
aF3.2
aF4.6
aF7.6
aF4.4
aF4.6
aF4.6
aF4.6
aF5.8
aF3.8
aF4.5
aF3.3
aF5.8
aF60.0
aF5.7
aF5.3
aF7.2
aF3.2
aF4.3
aF5.8
aF7.2
aF5.5
aF2.6
aF4.4
aF4.1
aF3.0
asS'Dec_galaxies'
p171
(lp172
F65.41842
aF1.27345
aF-17.47889
aF73.18322
aF-52.75828
aF-10.33961
aF71.59894
aF71.59894
aF32.39461
aF32.39461
aF73.84314
aF73.84314
aF2.82711
aF2.82711
aF38.53675
aF3.95644
aF3.26275
aF68.26181
aF12.02986
aF15.42285
aF24.55627
aF57.97071
aF57.97071
aF47.13424
aF3.44491
aF30.99458
aF-38.49256
aF-38.49256
aF-38.49256
aF26.55884
aF26.55884
asS'MajDiams'
p173
(lp174
F30.23
aF17.79
aF75.31
aF29.93
aF14.33
aF41.85
aF26.84
aF26.84
aF27.51
aF27.51
aF36.98
aF36.98
aF36.88
aF36.88
aF22.75
aF52.84
aF16.79
aF47.65
aF18.85
aF34.99
aF28.81
aF38.62
aF38.62
aF14.73
aF26.35
aF36.69
aF45.23
aF45.23
aF45.23
aF35.54
aF35.54
asS'RA_targets'
p175
(lp176
F243.48833333333334
aF187.70833333333334
aF343.52458333333334
aF277.59708333333333
aF70.05
aF196.3875
aF110.47291666666666
aF110.47291666666666
aF217.24625
aF217.24625
aF108.65083333333334
aF108.65083333333334
aF324.93416666666667
aF324.93416666666667
aF205.63
aF196.35125000000002
aF170.60041666666666
aF225.81875
aF187.80458333333334
aF198.93833333333333
aF208.60375000000002
aF147.16708333333335
aF147.16708333333335
aF146.58833333333334
aF170.30916666666667
aF7.044583333333334
aF324.7079166666667
aF324.7079166666667
aF324.7079166666667
aF243.54458333333335
aF243.54458333333335
asS'e_Lya_vs'
p177
(lp178
F1.0
aF11.0
aF1.0
aF5.0
aF1.0
aF1.0
aF4.0
aF1.0
aF1.0
aF1.0
aF4.0
aF1.0
aF1.0
aF6.0
aF1.0
aF1.0
aF1.0
aF1.0
aF1.0
aF1.0
aF1.0
aF1.0
aF1.0
aF1.0
aF5.0
aF1.0
aF1.0
aF11.0
aF11.0
aF1.0
aF1.0
asS'z_targets'
p179
(lp180
F0.129
aF0.117
aF0.06609
aF0.123
aF1.053
aF0.2784
aF0.23149
aF0.23149
aF0.62717
aF0.62717
aF0.371
aF0.371
aF0.26
aF0.26
aF0.1719
aF0.54566
aF0.47528
aF0.114
aF0.11612
aF0.44811
aF1.89283
aF0.49179
aF0.49179
aF0.23022
aF0.152
aF0.5
aF0.18299
aF0.18299
aF0.18299
aF0.39233
aF0.39233
asS'Lstar_sdsss'
p181
(lp182
F-99.99
aF0.62
aF-99.99
aF-99.99
aF-99.99
aF-99.99
aF-99.99
aF-99.99
aF0.78
aF0.78
aF-99.99
aF-99.99
aF-99.99
aF-99.99
aF0.15
aF1.1
aF0.27
aF-99.99
aF0.49
aF1.0
aF0.58
aF2.4
aF2.4
aF0.35
aF0.62
aF-99.99
aF-99.99
aF-99.99
aF-99.99
aF2.1
aF2.1
asS'Names'
p183
(lp184
S'UGC10294'
p185
aS'2PIGGNGPGALB+3.26383+0.02704'
p186
aS'MCG-03-58-009'
p187
aS'NGC6654'
p188
aS'ESO157-IG050'
p189
aS'NGC4939'
p190
aS'UGC03804'
p191
aS'UGC03804'
p192
aS'MCG+06-32-039'
p193
aS'MCG+06-32-039'
p194
aS'UGC03717'
p195
aS'UGC03717'
p196
aS'UGC11785'
p197
aS'UGC11785'
p198
aS'UGC08679'
p199
aS'UGC08186'
p200
aS'SDSSJ112230.40+031545.8'
p201
aS'MCG+11-18-020'
p202
aS'IC3440'
p203
aS'PGC046123'
p204
aS'SDSSJ135411.14+243322.5'
p205
aS'MRK0021'
p206
aS'MRK0021'
p207
aS'MCG+08-18-029'
p208
aS'PGC034796'
p209
aS'PGC001695'
p210
aS'ESO343-G014'
p211
aS'ESO343-G014'
p212
aS'ESO343-G014'
p213
aS'NGC6096'
p214
aS'NGC6096'
p215
asS'l_cuss'
p216
(lp217
F0.06482045654106293
aF0.011250642662145868
aF0.7443862922690794
aF0.07430725215147414
aF0.08310620880985362
aF0.024278684523473256
aF0.1274410116579993
aF0.09923875405506993
aF0.4322390736128306
aF0.3531450384378671
aF0.14262179117988127
aF0.17083468074968527
aF0.7753599145266621
aF0.5835483599541823
aF0.7006146238278242
aF0.6355144463081173
aF0.09457351612062186
aF0.3520625674848771
aF0.3963081202291781
aF0.5284462902567721
aF0.1089311425751151
aF0.8077350985143265
aF0.7202577660864078
aF0.20211345023588756
aF0.5199805045924932
aF0.07781148527082817
aF0.05637276013009144
aF0.03604564548377882
aF0.015108931596556852
aF0.07821326851628879
aF0.061672572819758346
as.