(dp0
S'Vhels'
p1
(lp2
F1041.0
aF1041.0
aF1041.0
aF1041.0
aF1128.0
aF1736.0
aF1808.0
aF1736.0
aF1736.0
aF1736.0
aF9030.0
aF1821.0
aF1821.0
aF1050.0
aF1678.0
aF3110.0
aF2887.0
aF2887.0
aF3995.0
aF1678.0
aF4188.0
aF4188.0
aF8961.0
aF8961.0
aF1271.0
aF1271.0
aF1109.0
aF3623.0
aF4074.0
aF4074.0
aF5199.0
aF5199.0
aF5199.0
aF5199.0
aF5199.0
aF5199.0
aF1128.0
aF1128.0
aF7006.0
aF4608.0
aF1298.0
aF1298.0
aF1476.0
aF1476.0
aF1476.0
aF1476.0
aF9765.0
aF1104.0
aF1104.0
aF1104.0
aF1156.0
aF1156.0
aF1476.0
aF8048.0
aF8048.0
aF8026.0
aF8433.0
aF8433.0
aF1947.0
aF1947.0
aF4299.0
aF2568.0
aF3010.0
aF1947.0
aF1499.0
aF2600.0
aF807.0
aF807.0
aF807.0
aF1230.0
aF7491.0
aF7491.0
aF6740.0
aF875.0
aF2060.0
aF9138.0
aF4299.0
aF9540.0
aF3720.0
aF993.0
aF1156.0
aF1066.0
aF1066.0
aF1066.0
aF992.0
aF992.0
aF992.0
aF2115.0
aF7414.0
aF9267.0
aF1780.0
aF1780.0
aF1139.0
aF1139.0
aF681.0
aF681.0
aF884.0
aF884.0
aF843.0
aF843.0
aF1958.0
aF9482.0
aF1271.0
aF2517.0
aF8294.0
aF897.0
aF897.0
aF897.0
aF1197.0
aF739.0
aF739.0
aF6098.0
aF6098.0
aF6098.0
aF6298.0
aF699.0
aF1368.0
aF1368.0
aF5256.0
aF5256.0
aF606.0
aF606.0
aF1396.0
aF5527.0
aF5527.0
aF7048.0
aF7048.0
aF3720.0
aF8763.0
aF9251.0
aF1745.0
aF1745.0
aF1676.0
aF8600.0
aF1677.0
aF2051.0
aF1940.0
aF1128.0
aF1808.0
aF3010.0
aF3010.0
aF8145.0
aF9162.0
aF9162.0
aF9162.0
aF2212.0
aF2212.0
aF7119.0
aF9855.0
aF9855.0
aF1582.0
aF6300.0
aF1063.0
aF4067.0
aF1947.0
aF1947.0
aF755.0
aF616.0
aF4620.0
aF660.0
aF7073.0
aF7073.0
aF7131.0
aF7131.0
aF895.0
aF1947.0
aF1947.0
aF3419.0
aF3419.0
aF1156.0
asS'impacts'
p3
(lp4
F199.57
aF199.57
aF199.57
aF199.57
aF209.758
aF385.415
aF337.658
aF385.415
aF385.415
aF385.415
aF355.071
aF233.701
aF233.701
aF197.612
aF94.112
aF253.817
aF199.343
aF199.343
aF339.599
aF74.818
aF286.46
aF286.46
aF237.29
aF237.29
aF175.098
aF175.098
aF91.296
aF181.977
aF112.521
aF112.521
aF13.326
aF13.326
aF13.326
aF13.326
aF13.326
aF13.326
aF109.33
aF109.33
aF248.657
aF223.189
aF129.954
aF129.954
aF10.921
aF10.921
aF10.921
aF10.921
aF325.438
aF364.553
aF364.553
aF364.553
aF78.441
aF78.441
aF127.54
aF169.322
aF169.322
aF165.293
aF94.77
aF94.77
aF204.033
aF204.033
aF198.064
aF235.423
aF432.833
aF233.769
aF263.525
aF182.211
aF161.439
aF161.439
aF161.439
aF147.139
aF433.857
aF433.857
aF409.682
aF415.138
aF142.71
aF245.372
aF108.586
aF206.986
aF298.168
aF334.068
aF86.391
aF101.551
aF101.551
aF101.551
aF40.206
aF40.206
aF40.206
aF358.995
aF301.651
aF424.884
aF54.948
aF54.948
aF213.543
aF213.543
aF76.654
aF76.654
aF142.964
aF142.964
aF394.272
aF394.272
aF413.715
aF295.07
aF89.387
aF421.114
aF311.204
aF144.76
aF144.76
aF144.76
aF45.288
aF69.299
aF69.299
aF301.038
aF301.038
aF301.038
aF376.492
aF17.583
aF48.507
aF48.507
aF55.312
aF55.312
aF22.731
aF22.731
aF304.501
aF189.13
aF189.13
aF340.596
aF340.596
aF298.168
aF378.303
aF248.907
aF44.818
aF44.818
aF52.119
aF486.73
aF132.042
aF37.636
aF217.977
aF362.687
aF348.733
aF463.169
aF463.169
aF488.059
aF465.601
aF465.601
aF465.601
aF451.577
aF451.577
aF439.848
aF331.992
aF331.992
aF428.603
aF387.512
aF233.285
aF300.584
aF217.945
aF217.945
aF207.569
aF290.383
aF255.977
aF370.055
aF408.765
aF408.765
aF413.627
aF413.627
aF327.098
aF238.639
aF238.639
aF459.835
aF459.835
aF144.737
asS'group_dists'
p5
(lp6
F12.3
aF12.3
aF12.3
aF12.3
aF8.6
aF21.0
aF21.0
aF21.0
aF21.0
aF21.0
aF89.0
aF17.5
aF17.5
aF7.0
aF16.9
aF35.7
aF30.7
aF30.7
aF43.5
aF16.9
aF42.4
aF42.4
aF88.1
aF88.1
aF11.9
aF11.9
aF15.2
aF40.4
aF37.7
aF37.7
aF49.8
aF49.8
aF49.8
aF49.8
aF49.8
aF49.8
aF8.6
aF8.6
aF74.7
aF44.2
aF19.4
aF19.4
aF17.3
aF17.3
aF17.3
aF17.3
aF100.5
aF14.9
aF14.9
aF14.9
aF10.5
aF10.5
aF17.3
aF85.6
aF85.6
aF85.0
aF89.4
aF89.4
aF21.9
aF21.9
aF45.6
aF22.1
aF28.5
aF21.9
aF19.4
aF29.8
aF14.2
aF14.2
aF14.2
aF14.2
aF76.7
aF76.7
aF73.3
aF11.8
aF23.5
aF96.4
aF45.6
aF99.2
aF42.0
aF10.5
aF10.5
aF11.1
aF11.1
aF11.1
aF13.4
aF13.4
aF13.4
aF25.3
aF77.2
aF93.8
aF20.5
aF20.5
aF15.6
aF15.6
aF10.0
aF10.0
aF11.1
aF11.1
aF20.3
aF20.3
aF25.7
aF104.4
aF11.9
aF28.5
aF90.1
aF13.2
aF13.2
aF13.2
aF13.6
aF10.5
aF10.5
aF61.4
aF61.4
aF61.4
aF61.4
aF8.7
aF11.9
aF11.9
aF55.6
aF55.6
aF9.0
aF9.0
aF15.0
aF50.5
aF50.5
aF73.4
aF73.4
aF42.0
aF95.4
aF95.4
aF18.4
aF18.4
aF18.4
aF85.1
aF16.6
aF19.8
aF19.8
aF8.6
aF21.0
aF28.5
aF28.5
aF85.6
aF92.4
aF92.4
aF92.4
aF25.7
aF25.7
aF76.2
aF100.5
aF100.5
aF13.6
aF67.2
aF12.3
aF38.1
aF21.9
aF21.9
aF7.7
aF8.9
aF43.7
aF8.9
aF74.8
aF74.8
aF74.7
aF74.7
aF10.5
aF21.9
aF21.9
aF34.1
aF34.1
aF10.5
asS'MTypes'
p7
(lp8
S'SA0^-'
p9
aS'SA0^-'
p10
aS'SA0^-'
p11
aS'SA0^-'
p12
aS'SA(s)cd:_sp_HII'
p13
aS'SAB(s)bc;HII_LINER'
p14
aS'SAB(rs)bc;HII_Sbrst'
p15
aS'SAB(s)bc;HII_LINER'
p16
aS'SAB(s)bc;HII_LINER'
p17
aS'SAB(s)bc;HII_LINER'
p18
aS'Sc'
p19
aS"(R')SB(s)0/a"
p20
aS"(R')SB(s)0/a"
p21
aS'SA(s)ab:_sp_LINER'
p22
aS'S?'
p23
aS'SA(s)bc_Sy2'
p24
aS'Scd:'
p25
aS'Scd:'
p26
aS'E:'
p27
aS'S?'
p28
aS'Sbc'
p29
aS'Sbc'
p30
aS'E'
p31
ag31
aS"(R'_1:)SB(r'l)bSy1"
p32
aS"(R'_1:)SB(r'l)bSy1"
p33
aS'SAB(s)c;HII_Sy1'
p34
aS'(R:)SA:(s)ab_HII'
p35
aS'Sd'
p36
aS'Sd'
p37
aS'S0'
p38
aS'S0'
p39
aS'S0'
p40
aS'S0'
p41
aS'S0'
p42
aS'S0'
p43
aS'SA(s)cd:_sp_HII'
p44
aS'SA(s)cd:_sp_HII'
p45
aS'Scd(f)'
p46
ag31
aS'E3'
p47
aS'E3'
p48
aS'SAB(s)ab?_HII'
p49
aS'SAB(s)ab?_HII'
p50
aS'SAB(s)ab?_HII'
p51
aS'SAB(s)ab?_HII'
p52
aS'x'
p53
aS'SA(r)0+;LINER_HII'
p54
aS'SA(r)0+;LINER_HII'
p55
aS'SA(r)0+;LINER_HII'
p56
aS'SA(s)c'
p57
aS'SA(s)c'
p58
aS'SAB(s)ab?_HII'
p59
aS'(R)SABbc(r)'
p60
aS'(R)SABbc(r)'
p61
aS'Sa'
p62
aS'SBbc_Sbrst'
p63
aS'SBbc_Sbrst'
p64
aS'SA(s)c:'
p65
aS'SA(s)c:'
p66
aS'S0?'
p67
aS'Sd'
p68
aS'Sb'
p69
aS'SA(s)c:'
p70
aS'S0'
p71
aS'SAa:_sp_HII'
p72
aS'SAB(rs)cd_HII'
p73
aS'SAB(rs)cd_HII'
p74
aS'SAB(rs)cd_HII'
p75
aS'SA(s)b?_sp_Sy3_Sy1.9'
p76
aS'E+:'
p77
aS'E+:'
p78
ag31
aS'SA(s)c;HII_Sy1'
p79
aS'S(s)b_RET'
p80
aS'Sb'
p81
aS'S0?'
p82
ag53
aS'SA(s)c'
p83
aS'SB(s)a_pec;Sy1_LINER'
p84
aS'SA(s)c'
p85
aS'SB0?_sp'
p86
aS'SB0?_sp'
p87
aS'SB0?_sp'
p88
aS'SA(rs)c_HII'
p89
aS'SA(rs)c_HII'
p90
aS'SA(rs)c_HII'
p91
aS'SAB(rs)cd?_HII'
p92
aS'S0'
p93
ag53
aS'SBc:_sp'
p94
aS'SBc:_sp'
p95
aS'I0?_LINER'
p96
aS'I0?_LINER'
p97
aS'SAB(r)c;HII_Sy2'
p98
aS'SAB(r)c;HII_Sy2'
p99
aS'SB(r)0/a:_HII'
p100
aS'SB(r)0/a:_HII'
p101
aS'SAb_pec_sp;HII_LINER'
p102
aS'SAb_pec_sp;HII_LINER'
p103
aS'SB(s)a;Sy_LINER'
p104
ag53
aS"(R'_1:)SB(r'l)bSy1"
p105
aS'SAB(r)b;LINER_Sy1'
p106
ag53
aS'SAB(rs)ab;Sy_LINER'
p107
aS'SAB(rs)ab;Sy_LINER'
p108
aS'SAB(rs)ab;Sy_LINER'
p109
aS'I?;WR?_HII'
p110
aS'SAB(s)cd:'
p111
aS'SAB(s)cd:'
p112
aS'SBab'
p113
aS'SBab'
p114
aS'SBab'
p115
aS'SB?'
p116
aS'SB(s)cd_HII'
p117
aS'E_pec:'
p118
aS'E_pec:'
p119
aS'SB:(rs)a'
p120
aS'SB:(rs)a'
p121
aS'SB(s)d_HII'
p122
aS'SB(s)d_HII'
p123
aS"(R_1R'_2)SB(rs)ab;Sy"
p124
aS'S0^0^_pec?'
p125
aS'S0^0^_pec?'
p126
aS'Sb(f)'
p127
aS'Sb(f)'
p128
aS'SA(s)c'
p129
aS'S'
p130
aS'S0/a'
p131
aS'SAB(r)0+'
p132
aS'SAB(r)0+'
p133
aS'E1'
p134
aS'Sb(f)'
p135
aS'SAB0^0^:'
p136
aS'E6'
p137
aS'SAB(s)b:'
p138
aS'SA(s)cd:_sp_HII'
p139
aS'SAB(rs)bc;HII_Sbrst'
p140
aS'Sb'
p141
aS'Sb'
p142
aS'EL'
p143
aS'Sb'
p144
aS'Sb'
p145
aS'Sb'
p146
aS'E2-3;LINER_Sy3'
p147
aS'E2-3;LINER_Sy3'
p148
ag53
aS'S?'
p149
aS'S?'
p150
aS'SAB(s)bc_HII'
p151
aS'Scd:'
p152
aS"(R')SAB(rs)a"
p153
aS'SA0+?'
p154
aS'SA(s)c:'
p155
aS'SA(s)c:'
p156
aS'S0_3_HII/LINER'
p157
aS'SB(s)m;LINER_HII'
p158
aS'S0'
p159
aS'SB(rs)c_HII'
p160
aS'Sb'
p161
aS'Sb'
p162
aS'S?_Sbrst'
p163
aS'S?_Sbrst'
p164
aS'Sc_HII'
p165
aS'SA(s)c:'
p166
aS'SA(s)c:'
p167
aS'Sb:_sp'
p168
aS'Sb:_sp'
p169
aS'SA(s)c'
p170
asS'e_Lya_Ws'
p171
(lp172
F2.0
aF1.0
aF1.0
aF2.0
aF2.0
aF3.0
aF2.0
aF2.0
aF2.0
aF3.0
aF4.0
aF10.0
aF19.0
aF20.0
aF9.0
aF6.0
aF6.0
aF4.0
aF10.0
aF10.0
aF10.0
aF10.0
aF11.0
aF10.0
aF12.0
aF15.0
aF21.0
aF11.0
aF7.0
aF7.0
aF15.0
aF10.0
aF9.0
aF4.0
aF4.0
aF6.0
aF13.0
aF10.0
aF14.0
aF14.0
aF29.0
aF25.0
aF76.0
aF42.0
aF15.0
aF47.0
aF11.0
aF18.0
aF20.0
aF16.0
aF19.0
aF14.0
aF23.0
aF16.0
aF16.0
aF22.0
aF14.0
aF6.0
aF17.0
aF23.0
aF27.0
aF21.0
aF29.0
aF24.0
aF69.0
aF81.0
aF34.0
aF29.0
aF22.0
aF19.0
aF13.0
aF9.0
aF8.0
aF13.0
aF15.0
aF9.0
aF14.0
aF11.0
aF22.0
aF20.0
aF25.0
aF26.0
aF24.0
aF21.0
aF44.0
aF28.0
aF28.0
aF10.0
aF14.0
aF14.0
aF31.0
aF19.0
aF11.0
aF11.0
aF20.0
aF21.0
aF10.0
aF8.0
aF33.0
aF27.0
aF10.0
aF21.0
aF25.0
aF136.0
aF20.0
aF26.0
aF14.0
aF15.0
aF15.0
aF53.0
aF51.0
aF8.0
aF7.0
aF8.0
aF9.0
aF38.0
aF12.0
aF13.0
aF15.0
aF3.0
aF24.0
aF25.0
aF37.0
aF38.0
aF53.0
aF16.0
aF11.0
aF22.0
aF20.0
aF17.0
aF27.0
aF20.0
aF13.0
aF21.0
aF22.0
aF12.0
aF10.0
aF3.0
aF2.0
aF6.0
aF5.0
aF8.0
aF4.0
aF3.0
aF5.0
aF38.0
aF5.0
aF7.0
aF7.0
aF5.0
aF19.0
aF14.0
aF14.0
aF10.0
aF15.0
aF13.0
aF25.0
aF39.0
aF17.0
aF20.0
aF25.0
aF17.0
aF12.0
aF14.0
aF33.0
aF26.0
aF21.0
aF15.0
aF13.0
aF39.0
asS'e_Lstar_sdsss'
p173
(lp174
F-99.99
aF-99.99
aF-99.99
aF-99.99
aF-99.99
aF-99.99
aF0.093
aF-99.99
aF-99.99
aF-99.99
aF-99.99
aF-99.99
aF-99.99
aF0.38
aF-99.99
aF-99.99
aF-99.99
aF-99.99
aF1.8
aF-99.99
aF-99.99
aF-99.99
aF-99.99
aF-99.99
aF-99.99
aF-99.99
aF-99.99
aF-99.99
aF-99.99
aF-99.99
aF-99.99
aF-99.99
aF-99.99
aF-99.99
aF-99.99
aF-99.99
aF-99.99
aF-99.99
aF0.41
aF-99.99
aF-99.99
aF-99.99
aF0.23
aF0.23
aF0.23
aF0.23
aF-99.99
aF0.71
aF0.71
aF0.71
aF0.19
aF0.19
aF0.23
aF0.71
aF0.71
aF0.47
aF1.1
aF1.1
aF0.31
aF0.31
aF0.34
aF-99.99
aF-99.99
aF0.31
aF1.3
aF0.072
aF0.4
aF0.4
aF0.4
aF-99.99
aF0.8
aF0.8
aF0.95
aF0.9
aF0.032
aF0.85
aF0.34
aF0.09
aF1.2
aF-99.99
aF0.19
aF-99.99
aF-99.99
aF-99.99
aF0.36
aF0.36
aF0.36
aF0.18
aF0.97
aF1.0
aF-99.99
aF-99.99
aF-99.99
aF-99.99
aF0.21
aF0.21
aF-99.99
aF-99.99
aF0.017
aF0.017
aF0.87
aF0.97
aF-99.99
aF-99.99
aF0.52
aF0.32
aF0.32
aF0.32
aF0.18
aF0.074
aF0.074
aF-99.99
aF-99.99
aF-99.99
aF-99.99
aF-99.99
aF-99.99
aF-99.99
aF0.29
aF0.29
aF0.21
aF0.21
aF-99.99
aF0.45
aF0.45
aF0.47
aF0.47
aF1.2
aF0.92
aF1.6
aF0.1
aF0.1
aF0.6
aF1.5
aF-99.99
aF0.99
aF0.18
aF-99.99
aF0.093
aF-99.99
aF-99.99
aF1.2
aF-99.99
aF-99.99
aF-99.99
aF4.7
aF4.7
aF0.72
aF0.98
aF0.98
aF-99.99
aF0.61
aF-99.99
aF-99.99
aF0.31
aF0.31
aF0.84
aF-99.99
aF1.0
aF0.033
aF0.7
aF0.7
aF0.89
aF0.89
aF0.078
aF0.31
aF0.31
aF1.0
aF1.0
aF0.19
asS'Bmag_sdsss'
p175
(lp176
F-99.99
aF-99.99
aF-99.99
aF-99.99
aF-99.99
aF-99.99
aF13.8
aF-99.99
aF-99.99
aF-99.99
aF-99.99
aF-99.99
aF-99.99
aF13.1
aF-99.99
aF-99.99
aF-99.99
aF-99.99
aF14.5
aF-99.99
aF-99.99
aF-99.99
aF-99.99
aF-99.99
aF-99.99
aF-99.99
aF-99.99
aF-99.99
aF-99.99
aF-99.99
aF-99.99
aF-99.99
aF-99.99
aF-99.99
aF-99.99
aF-99.99
aF-99.99
aF-99.99
aF15.4
aF-99.99
aF-99.99
aF-99.99
aF13.1
aF13.1
aF13.1
aF13.1
aF-99.99
aF12.0
aF12.0
aF12.0
aF13.3
aF13.3
aF13.1
aF15.3
aF15.3
aF15.8
aF14.9
aF14.9
aF13.7
aF13.7
aF14.8
aF-99.99
aF-99.99
aF13.7
aF13.2
aF14.5
aF11.4
aF11.4
aF11.4
aF-99.99
aF14.2
aF14.2
aF15.0
aF12.4
aF13.1
aF15.4
aF14.8
aF17.9
aF14.0
aF-99.99
aF13.3
aF-99.99
aF-99.99
aF-99.99
aF12.5
aF12.5
aF12.5
aF14.8
aF15.0
aF15.3
aF-99.99
aF-99.99
aF-99.99
aF-99.99
aF12.9
aF12.9
aF-99.99
aF-99.99
aF15.0
aF15.0
aF13.1
aF15.4
aF-99.99
aF-99.99
aF15.8
aF11.5
aF11.5
aF11.5
aF14.6
aF13.7
aF13.7
aF-99.99
aF-99.99
aF-99.99
aF-99.99
aF-99.99
aF-99.99
aF-99.99
aF15.4
aF15.4
aF10.9
aF10.9
aF-99.99
aF14.9
aF14.9
aF15.6
aF15.6
aF14.0
aF15.3
aF15.7
aF14.4
aF14.4
aF12.6
aF14.9
aF-99.99
aF12.4
aF14.3
aF-99.99
aF13.8
aF-99.99
aF-99.99
aF15.3
aF-99.99
aF-99.99
aF-99.99
aF10.7
aF10.7
aF15.1
aF15.5
aF15.5
aF-99.99
aF15.0
aF-99.99
aF-99.99
aF13.7
aF13.7
aF11.2
aF-99.99
aF14.3
aF14.6
aF14.8
aF14.8
aF14.8
aF14.8
aF13.4
aF13.7
aF13.7
aF14.1
aF14.1
aF13.3
asS'Nas'
p177
(lp178
F117000000000000.0
aF162000000000000.0
aF87900000000000.0
aF20200000000000.0
aF1750000000000.0
aF39900000000000.0
aF4570000000000.0
aF168000000000000.0
aF154000000000000.0
aF16000000000000.0
aF12200000000000.0
aF15000000000000.0
aF13300000000000.0
aF50400000000000.0
aF209000000000000.0
aF15000000000000.0
aF94300000000000.0
aF6620000000000.0
aF53100000000000.0
aF221000000000000.0
aF16900000000000.0
aF172000000000000.0
aF184000000000000.0
aF268000000000000.0
aF17400000000000.0
aF48700000000000.0
aF279000000000000.0
aF279000000000000.0
aF271000000000000.0
aF296000000000000.0
aF38600000000000.0
aF23300000000000.0
aF602000000000000.0
aF164000000000000.0
aF142000000000000.0
aF194000000000000.0
aF182000000000000.0
aF27500000000000.0
aF183000000000000.0
aF114000000000000.0
aF95900000000000.0
aF151000000000000.0
aF1970000000000000.0
aF1130000000000000.0
aF455000000000000.0
aF822000000000000.0
aF13100000000000.0
aF24800000000000.0
aF46400000000000.0
aF235000000000000.0
aF129000000000000.0
aF13800000000000.0
aF290000000000000.0
aF119000000000000.0
aF22000000000000.0
aF181000000000000.0
aF534000000000000.0
aF214000000000000.0
aF66500000000000.0
aF62900000000000.0
aF111000000000000.0
aF45900000000000.0
aF92600000000000.0
aF84700000000000.0
aF57100000000000.0
aF46000000000000.0
aF90800000000000.0
aF107000000000000.0
aF101000000000000.0
aF30400000000000.0
aF138000000000000.0
aF10700000000000.0
aF10700000000000.0
aF234000000000000.0
aF97700000000000.0
aF23700000000000.0
aF124000000000000.0
aF15100000000000.0
aF25000000000000.0
aF15100000000000.0
aF41800000000000.0
aF235000000000000.0
aF238000000000000.0
aF30800000000000.0
aF74500000000000.0
aF106000000000000.0
aF71900000000000.0
aF26600000000000.0
aF110000000000000.0
aF26400000000000.0
aF185000000000000.0
aF36300000000000.0
aF180000000000000.0
aF18400000000000.0
aF150000000000000.0
aF195000000000000.0
aF190000000000000.0
aF109000000000000.0
aF143000000000000.0
aF110000000000000.0
aF7290000000000.0
aF279000000000000.0
aF248000000000000.0
aF4120000000000000.0
aF36400000000000.0
aF391000000000000.0
aF313000000000000.0
aF136000000000000.0
aF471000000000000.0
aF159000000000000.0
aF176000000000000.0
aF164000000000000.0
aF202000000000000.0
aF268000000000000.0
aF27800000000000.0
aF62500000000000.0
aF216000000000000.0
aF233000000000000.0
aF399000000000000.0
aF322000000000000.0
aF265000000000000.0
aF252000000000000.0
aF108000000000000.0
aF70700000000000.0
aF131000000000000.0
aF290000000000000.0
aF163000000000000.0
aF25000000000000.0
aF396000000000000.0
aF34000000000000.0
aF156000000000000.0
aF41300000000000.0
aF9100000000000.0
aF48600000000000.0
aF288000000000000.0
aF187000000000000.0
aF36700000000000.0
aF136000000000000.0
aF143000000000000.0
aF203000000000000.0
aF111000000000000.0
aF84000000000000.0
aF14100000000000.0
aF125000000000000.0
aF47200000000000.0
aF1390000000000000.0
aF6410000000000.0
aF13400000000000.0
aF55900000000000.0
aF16000000000000.0
aF98900000000000.0
aF67600000000000.0
aF17100000000000.0
aF17300000000000.0
aF70700000000000.0
aF17200000000000.0
aF97900000000000.0
aF44300000000000.0
aF64500000000000.0
aF14600000000000.0
aF94000000000000.0
aF96400000000000.0
aF52000000000000.0
aF75500000000000.0
aF134000000000000.0
aF83000000000000.0
aF15100000000000.0
aF32500000000000.0
aF49600000000000.0
aF55100000000000.0
asS'Lya_Ws'
p179
(lp180
F249.0
aF269.0
aF240.0
aF91.0
aF9.0
aF160.0
aF23.0
aF321.0
aF303.0
aF78.0
aF62.0
aF73.0
aF70.0
aF212.0
aF501.0
aF72.0
aF349.0
aF33.0
aF217.0
aF517.0
aF84.0
aF420.0
aF357.0
aF482.0
aF77.0
aF178.0
aF635.0
aF563.0
aF490.0
aF530.0
aF162.0
aF93.0
aF927.0
aF226.0
aF210.0
aF342.0
aF388.0
aF100.0
aF462.0
aF313.0
aF295.0
aF423.0
aF3822.0
aF2092.0
aF700.0
aF1635.0
aF61.0
aF99.0
aF176.0
aF525.0
aF374.0
aF62.0
aF623.0
aF315.0
aF97.0
aF440.0
aF904.0
aF371.0
aF202.0
aF230.0
aF367.0
aF180.0
aF349.0
aF271.0
aF227.0
aF190.0
aF317.0
aF365.0
aF305.0
aF122.0
aF429.0
aF51.0
aF50.0
aF503.0
aF300.0
aF102.0
aF333.0
aF72.0
aF106.0
aF71.0
aF165.0
aF528.0
aF565.0
aF128.0
aF252.0
aF275.0
aF209.0
aF127.0
aF334.0
aF116.0
aF507.0
aF137.0
aF348.0
aF83.0
aF360.0
aF406.0
aF456.0
aF305.0
aF345.0
aF272.0
aF36.0
aF636.0
aF563.0
aF8660.0
aF155.0
aF823.0
aF621.0
aF391.0
aF838.0
aF470.0
aF506.0
aF399.0
aF430.0
aF504.0
aF116.0
aF198.0
aF417.0
aF455.0
aF681.0
aF416.0
aF586.0
aF585.0
aF374.0
aF277.0
aF540.0
aF563.0
aF351.0
aF106.0
aF783.0
aF128.0
aF414.0
aF151.0
aF39.0
aF179.0
aF653.0
aF489.0
aF162.0
aF382.0
aF369.0
aF520.0
aF319.0
aF295.0
aF63.0
aF306.0
aF161.0
aF2560.0
aF31.0
aF64.0
aF205.0
aF71.0
aF391.0
aF257.0
aF79.0
aF82.0
aF244.0
aF80.0
aF301.0
aF184.0
aF231.0
aF71.0
aF384.0
aF284.0
aF177.0
aF204.0
aF375.0
aF266.0
aF68.0
aF147.0
aF195.0
aF232.0
asS'bestDists'
p181
(lp182
F19.3
aF19.3
aF19.3
aF19.3
aF9.7
aF13.6
aF14.9
aF13.6
aF13.6
aF13.6
aF142.0
aF29.5
aF29.5
aF17.2
aF23.9
aF37.5
aF43.7
aF43.7
aF93.3
aF23.9
aF53.3
aF53.3
aF122.21
aF122.21
aF16.0
aF16.0
aF12.8
aF50.3
aF68.9
aF68.9
aF49.7
aF49.7
aF49.7
aF49.7
aF49.7
aF49.7
aF9.7
aF9.7
aF99.8
aF62.24
aF22.7
aF22.7
aF20.4
aF20.4
aF20.4
aF20.4
aF139.6
aF15.8
aF15.8
aF15.8
aF8.56
aF8.56
aF20.4
aF116.63
aF116.63
aF117.17
aF121.25
aF121.25
aF29.2
aF29.2
aF63.3
aF34.6
aF46.6
aF29.2
aF28.9
aF41.2
aF7.3
aF7.3
aF7.3
aF11.9
aF110.0
aF110.0
aF95.5
aF17.5
aF34.2
aF132.15
aF63.3
aF136.84
aF53.2
aF16.1
aF8.56
aF14.7
aF14.7
aF14.7
aF15.2
aF15.2
aF15.2
aF32.1
aF97.4
aF134.37
aF27.1
aF27.1
aF16.6
aF16.6
aF12.3
aF12.3
aF16.0
aF16.0
aF9.7
aF9.7
aF37.7
aF137.56
aF16.0
aF39.2
aF120.0
aF10.7
aF10.7
aF10.7
aF23.7
aF13.7
aF13.7
aF82.0
aF82.0
aF82.0
aF82.8
aF8.67
aF15.86
aF15.86
aF76.41
aF76.41
aF4.33
aF4.33
aF18.2
aF73.74
aF73.74
aF103.23
aF103.23
aF53.2
aF125.25
aF147.0
aF28.16
aF28.16
aF24.1
aF94.2
aF27.2
aF29.1
aF36.3
aF9.7
aF14.9
aF46.6
aF46.6
aF108.0
aF126.07
aF126.07
aF126.07
aF31.6
aF31.6
aF104.41
aF141.23
aF141.23
aF17.6
aF92.79
aF13.4
aF55.02
aF29.2
aF29.2
aF11.0
aF11.3
aF57.7
aF13.7
aF109.0
aF109.0
aF104.06
aF104.06
aF15.2
aF29.2
aF29.2
aF56.2
aF56.2
aF8.56
asS'adjustedIncs'
p183
(lp184
F25.0
aF25.0
aF25.0
aF25.0
aF90.0
aF74.0
aF61.0
aF74.0
aF74.0
aF74.0
aF49.0
aF64.0
aF64.0
aF62.0
aF83.0
aF48.0
aF55.0
aF55.0
aF36.0
aF83.0
aF64.0
aF64.0
aF59.0
aF59.0
aF58.0
aF58.0
aF75.0
aF68.0
aF90.0
aF90.0
aF61.0
aF61.0
aF61.0
aF61.0
aF61.0
aF61.0
aF90.0
aF90.0
aF82.0
aF45.0
aF38.0
aF38.0
aF71.0
aF71.0
aF71.0
aF71.0
aF52.0
aF74.0
aF74.0
aF74.0
aF17.0
aF17.0
aF71.0
aF47.0
aF47.0
aF68.0
aF52.0
aF52.0
aF80.0
aF80.0
aF75.0
aF90.0
aF67.0
aF80.0
aF66.0
aF72.0
aF64.0
aF64.0
aF64.0
aF75.0
aF47.0
aF47.0
aF20.0
aF66.0
aF62.0
aF78.0
aF75.0
aF75.0
aF62.0
aF38.0
aF17.0
aF64.0
aF64.0
aF64.0
aF48.0
aF48.0
aF48.0
aF56.0
aF26.0
aF62.0
aF86.0
aF86.0
aF43.0
aF43.0
aF37.0
aF37.0
aF59.0
aF59.0
aF82.0
aF82.0
aF64.0
aF61.0
aF58.0
aF61.0
aF68.0
aF48.0
aF48.0
aF48.0
aF43.0
aF75.0
aF75.0
aF65.0
aF65.0
aF65.0
aF75.0
aF81.0
aF53.0
aF53.0
aF71.0
aF71.0
aF77.0
aF77.0
aF42.0
aF43.0
aF43.0
aF83.0
aF83.0
aF62.0
aF45.0
aF55.0
aF61.0
aF61.0
aF31.0
aF80.0
aF59.0
aF64.0
aF74.0
aF90.0
aF61.0
aF67.0
aF67.0
aF38.0
aF90.0
aF90.0
aF90.0
aF31.0
aF31.0
aF52.0
aF53.0
aF53.0
aF75.0
aF55.0
aF64.0
aF56.0
aF80.0
aF80.0
aF68.0
aF90.0
aF38.0
aF73.0
aF72.0
aF72.0
aF43.0
aF43.0
aF82.0
aF80.0
aF80.0
aF82.0
aF82.0
aF17.0
asS'targets'
p185
(lp186
S'1H0419-577'
p187
aS'1H0419-577'
p188
aS'1H0419-577'
p189
aS'1H0419-577'
p190
aS'HE1228+0131'
p191
aS'HE1228+0131'
p192
aS'HE1228+0131'
p193
aS'HE1228+0131'
p194
aS'HE1228+0131'
p195
aS'HE1228+0131'
p196
aS'MRC2251-178'
p197
aS'RX_J1830.3+7312'
p198
aS'RX_J1830.3+7312'
p199
aS'PG0003+158'
p200
aS'HE0439-5254'
p201
aS'PG1302-102'
p202
aS'1H0717+714'
p203
aS'1H0717+714'
p204
aS'PG1001+054'
p205
aS'RBS567'
p206
aS'RX_J0714.5+7408'
p207
aS'RX_J0714.5+7408'
p208
aS'RBS2070'
p209
aS'RBS2070'
p210
aS'HE0241-3043'
p211
aS'HE0241-3043'
p212
aS'H1101-232'
p213
aS'H1101-232'
p214
aS'RX_J2139.7+0246'
p215
aS'RX_J2139.7+0246'
p216
aS'PHL1226'
p217
aS'PHL1226'
p218
aS'PHL1226'
p219
aS'PHL1226'
p220
aS'PHL1226'
p221
aS'PHL1226'
p222
aS'LBQS1230-0015'
p223
aS'LBQS1230-0015'
p224
aS'SDSSJ130524.30+035731.0'
p225
aS'MRK1179'
p226
aS'SDSSJ112224.10+031802.0'
p227
aS'SDSSJ112224.10+031802.0'
p228
aS'3C232'
p229
aS'3C232'
p230
aS'3C232'
p231
aS'3C232'
p232
aS'RX_J1503.2+6810'
p233
aS'MS1228.6+1219'
p234
aS'MS1228.6+1219'
p235
aS'MS1228.6+1219'
p236
aS'RX_J1117.6+5301'
p237
aS'RX_J1117.6+5301'
p238
aS'SDSSJ095914.80+320357.0'
p239
aS'SDSSJ095914.80+320357.0'
p240
aS'SDSSJ095914.80+320357.0'
p241
aS'SDSSJ131545.20+152556.0'
p242
aS'SDSSJ094840.10+580038.0'
p243
aS'SDSSJ094840.10+580038.0'
p244
aS'FBQSJ0908+3246'
p245
aS'FBQSJ0908+3246'
p246
aS'FBQSJ0908+3246'
p247
aS'SDSSJ225738.20+134045.0'
p248
aS'SBS1537+577'
p249
aS'SDSSJ091127.30+325337.0'
p250
aS'RX_J1121.2+0326'
p251
aS'RX_J1121.2+0326'
p252
aS'RX_J1236.0+2641'
p253
aS'RX_J1236.0+2641'
p254
aS'RX_J1236.0+2641'
p255
aS'RX_J1236.0+2641'
p256
aS'RX_J1236.0+2641'
p257
aS'RX_J1236.0+2641'
p258
aS'US136'
p259
aS'PG1309+355'
p260
aS'SDSSJ084159.20+140642.0'
p261
aS'HS1231+4814'
p262
aS'TON1009'
p263
aS'SBS0957+599'
p264
aS'SDSSJ121640.60+071224.0'
p265
aS'SDSSJ112448.30+531818.0'
p266
aS'SDSSJ112448.30+531818.0'
p267
aS'RX_J1217.2+2749'
p268
aS'RX_J1217.2+2749'
p269
aS'RX_J1217.2+2749'
p270
aS'SDSSJ114046.10+113649.0'
p271
aS'SDSSJ114046.10+113649.0'
p272
aS'SDSSJ114046.10+113649.0'
p273
aS'PG1211+143'
p274
aS'RX_J1330.8+3119'
p275
aS'RX_J1356.4+2515'
p276
aS'2E1530+1511'
p277
aS'2E1530+1511'
p278
aS'SDSSJ135726.27+043541.4'
p279
aS'SDSSJ135726.27+043541.4'
p280
aS'RX_J1100.8+2839'
p281
aS'RX_J1100.8+2839'
p282
aS'TON605'
p283
aS'TON605'
p284
aS'SDSSJ112439.50+113117.0'
p285
aS'SDSSJ112439.50+113117.0'
p286
aS'MS1217.0+0700'
p287
aS'FBQSJ1134+2555'
p288
aS'2dFGRS_S393Z082'
p289
aS'HS1543+5921'
p290
aS'SDSSJ093706.90+170021.0'
p291
aS'SDSSJ104335.90+115129.0'
p292
aS'SDSSJ104335.90+115129.0'
p293
aS'SDSSJ104335.90+115129.0'
p294
aS'SBS1122+594'
p295
aS'CSO1208'
p296
aS'CSO1208'
p297
aS'RX_J0028.1+3103'
p298
aS'RX_J0028.1+3103'
p299
aS'RX_J0028.1+3103'
p300
aS'RX_J0028.1+3103'
p301
aS'SBS1108+560'
p302
aS'MS0244.6-3020'
p303
aS'MS0244.6-3020'
p304
aS'PG0832+251'
p305
aS'PG0832+251'
p306
aS'SDSSJ124210.30+321427.0'
p307
aS'SDSSJ124210.30+321427.0'
p308
aS'HE0340-2703'
p309
aS'UM228'
p310
aS'UM228'
p311
aS'RX_J1342.1+0505'
p312
aS'RX_J1342.1+0505'
p313
aS'SDSSJ121640.60+071224.0'
p314
aS'SDSSJ080838.80+051440.0'
p315
aS'SDSSJ080838.80+051440.0'
p316
aS'RX_J1429.6+0321'
p317
aS'RX_J1429.6+0321'
p318
aS'RX_J1429.6+0321'
p319
aS'RX_J1429.6+0321'
p320
aS'MRK205'
p321
aS'MCG+10-16-111'
p322
aS'MCG+10-16-111'
p323
aS'3C273.0'
p324
aS'3C273.0'
p325
aS'MRK290'
p326
aS'MRK290'
p327
aS'PG1341+258'
p328
aS'RBS1768'
p329
aS'RBS1768'
p330
aS'RBS1768'
p331
aS'PG1216+069'
p332
aS'PG1216+069'
p333
aS'PG1307+085'
p334
aS'NAB1612+26'
p335
aS'NAB1612+26'
p336
aS'ESO350-IG38'
p337
aS'RX_J1142.5+2503'
p338
aS'HE0429-5343'
p339
aS'RX_J2043.1+0324'
p340
aS'TON1015'
p341
aS'TON1015'
p342
aS'SBS1503+570'
p343
aS'RX_J1054.2+3511'
p344
aS'SDSSJ015952.95+134554.3'
p345
aS'RX_J1017.5+4702'
p346
aS'SDSSJ091728.60+271951.0'
p347
aS'SDSSJ091728.60+271951.0'
p348
aS'CSO1245'
p349
aS'CSO1245'
p350
aS'RX_J1142.7+4625'
p351
aS'SDSSJ091052.80+333008.0'
p352
aS'SDSSJ091052.80+333008.0'
p353
aS'3C351.0'
p354
aS'3C351.0'
p355
aS'SDSSJ111443.70+525834.0'
p356
asS'e_bs'
p357
(lp358
F5.8
aF1.5
aF2.0
aF2.6
aF3.4
aF2.4
aF1.4
aF5.1
aF2.3
aF2.4
aF2.0
aF4.0
aF7.5
aF2.9
aF1.9
aF2.0
aF1.9
aF2.8
aF2.2
aF2.1
aF2.7
aF2.7
aF4.9
aF3.7
aF2.9
aF4.3
aF2.6
aF1.8
aF2.8
aF3.5
aF3.4
aF3.7
aF3.0
aF1.3
aF1.2
aF2.4
aF2.9
aF2.7
aF2.7
aF3.2
aF2.4
aF2.4
aF5.5
aF6.2
aF3.7
aF5.3
aF3.5
aF3.3
aF2.4
aF1.4
aF2.4
aF3.3
aF2.2
aF2.4
aF4.5
aF3.4
aF4.3
aF1.9
aF3.2
aF3.2
aF4.0
aF1.2
aF2.4
aF2.7
aF1.0
aF4.5
aF2.2
aF2.1
aF2.9
aF3.0
aF2.1
aF3.0
aF1.7
aF1.6
aF2.8
aF3.5
aF2.8
aF3.0
aF2.3
aF3.4
aF4.4
aF2.9
aF2.4
aF3.1
aF5.2
aF1.4
aF2.9
aF3.1
aF2.3
aF1.8
aF3.2
aF1.8
aF4.1
aF2.7
aF3.8
aF3.5
aF2.3
aF2.6
aF5.7
aF3.2
aF2.1
aF2.9
aF1.8
aF16.1
aF3.1
aF4.1
aF2.9
aF4.1
aF1.6
aF3.5
aF3.9
aF1.9
aF1.6
aF2.7
aF1.9
aF1.4
aF2.2
aF2.2
aF5.1
aF1.8
aF3.9
aF3.5
aF4.0
aF5.0
aF4.0
aF3.4
aF3.1
aF2.3
aF2.8
aF3.5
aF2.8
aF3.3
aF2.9
aF3.6
aF3.6
aF2.5
aF2.6
aF2.2
aF2.2
aF2.8
aF3.6
aF2.9
aF3.3
aF1.6
aF2.6
aF5.5
aF1.4
aF2.1
aF2.5
aF1.8
aF2.4
aF2.5
aF2.5
aF1.2
aF2.6
aF2.5
aF1.9
aF3.1
aF2.7
aF3.7
aF3.9
aF3.0
aF1.9
aF2.8
aF2.1
aF3.7
aF3.3
aF2.8
aF2.4
aF4.0
asS'incs'
p359
(lp360
F24.0
aF24.0
aF24.0
aF24.0
aF81.0
aF70.0
aF59.0
aF70.0
aF70.0
aF70.0
aF48.0
aF61.0
aF61.0
aF60.0
aF77.0
aF46.0
aF53.0
aF53.0
aF35.0
aF77.0
aF61.0
aF61.0
aF57.0
aF57.0
aF57.0
aF57.0
aF71.0
aF65.0
aF80.0
aF80.0
aF59.0
aF59.0
aF59.0
aF59.0
aF59.0
aF59.0
aF81.0
aF81.0
aF76.0
aF44.0
aF37.0
aF37.0
aF68.0
aF68.0
aF68.0
aF68.0
aF50.0
aF70.0
aF70.0
aF70.0
aF16.0
aF16.0
aF68.0
aF46.0
aF46.0
aF65.0
aF50.0
aF50.0
aF75.0
aF75.0
aF71.0
aF85.0
aF65.0
aF75.0
aF63.0
aF69.0
aF62.0
aF62.0
aF62.0
aF71.0
aF46.0
aF46.0
aF20.0
aF63.0
aF60.0
aF74.0
aF71.0
aF71.0
aF60.0
aF37.0
aF16.0
aF61.0
aF61.0
aF61.0
aF47.0
aF47.0
aF47.0
aF55.0
aF26.0
aF60.0
aF78.0
aF78.0
aF42.0
aF42.0
aF36.0
aF36.0
aF57.0
aF57.0
aF76.0
aF76.0
aF61.0
aF59.0
aF57.0
aF59.0
aF65.0
aF47.0
aF47.0
aF47.0
aF42.0
aF71.0
aF71.0
aF63.0
aF63.0
aF63.0
aF71.0
aF76.0
aF52.0
aF52.0
aF68.0
aF68.0
aF73.0
aF73.0
aF41.0
aF42.0
aF42.0
aF77.0
aF77.0
aF60.0
aF44.0
aF53.0
aF59.0
aF59.0
aF31.0
aF75.0
aF57.0
aF61.0
aF70.0
aF81.0
aF59.0
aF65.0
aF65.0
aF37.0
aF84.0
aF84.0
aF84.0
aF31.0
aF31.0
aF50.0
aF52.0
aF52.0
aF71.0
aF53.0
aF62.0
aF55.0
aF75.0
aF75.0
aF65.0
aF78.0
aF37.0
aF70.0
aF69.0
aF69.0
aF42.0
aF42.0
aF76.0
aF75.0
aF75.0
aF76.0
aF76.0
aF16.0
asS'azimuths'
p361
(lp362
F67.4
aF67.4
aF67.4
aF67.4
aF74.1
aF39.4
aF50.9
aF39.4
aF39.4
aF39.4
aF71.0
aF70.4
aF70.4
aF46.6
aF4.9
aF61.2
aF7.1
aF7.1
aF77.7
aF29.5
aF82.6
aF82.6
aF10.2
aF10.2
aF77.4
aF77.4
aF83.5
aF26.3
aF69.1
aF69.1
aF14.1
aF14.1
aF14.1
aF14.1
aF14.1
aF14.1
aF89.9
aF89.9
aF14.1
aF44.7
aF21.6
aF21.6
aF73.8
aF73.8
aF73.8
aF73.8
aF0.6
aF52.6
aF52.6
aF52.6
aF46.7
aF46.7
aF43.0
aF65.0
aF65.0
aF16.3
aF77.9
aF77.9
aF58.7
aF58.7
aF29.6
aF70.7
aF33.3
aF29.9
aF9.9
aF58.0
aF30.9
aF30.9
aF30.9
aF41.0
aF87.5
aF87.5
aF55.6
aF15.1
aF73.3
aF34.0
aF50.8
aF18.6
aF3.7
aF88.5
aF48.4
aF65.5
aF65.5
aF65.5
aF54.9
aF54.9
aF54.9
aF83.9
aF6.4
aF65.2
aF85.1
aF85.1
aF23.6
aF23.6
aF80.0
aF80.0
aF51.2
aF51.2
aF48.6
aF48.6
aF41.7
aF67.0
aF26.7
aF88.6
aF14.2
aF42.2
aF42.2
aF42.2
aF55.9
aF49.8
aF49.8
aF11.7
aF11.7
aF11.7
aF66.7
aF81.7
aF49.7
aF49.7
aF87.8
aF87.8
aF85.5
aF85.5
aF26.0
aF68.3
aF68.3
aF79.7
aF79.7
aF3.7
aF37.6
aF12.0
aF65.6
aF65.6
aF50.6
aF26.2
aF78.5
aF59.6
aF6.8
aF71.8
aF10.8
aF11.9
aF11.9
aF54.4
aF74.0
aF74.0
aF74.0
aF6.3
aF6.3
aF43.2
aF54.9
aF54.9
aF57.9
aF28.0
aF64.5
aF65.8
aF61.0
aF61.0
aF45.6
aF57.0
aF8.1
aF55.3
aF25.4
aF25.4
aF81.1
aF81.1
aF6.3
aF66.0
aF66.0
aF12.0
aF12.0
aF50.5
asS'group_nums'
p363
(lp364
S'200054'
p365
aS'200054'
p366
aS'200054'
p367
aS'200054'
p368
aS'0'
p369
aS'170002'
p370
aS'170002'
p371
aS'170002'
p372
aS'170002'
p373
aS'170002'
p374
aS'207780'
p375
aS'111804'
p376
aS'111804'
p377
aS'211714'
p378
aS'212158'
p379
aS'102770'
p380
aS'101152'
p381
aS'101152'
p382
aS'111223'
p383
aS'212158'
p384
aS'110299'
p385
aS'110299'
p386
aS'200664'
p387
aS'200664'
p388
aS'200774'
p389
aS'200774'
p390
aS'102618'
p391
aS'112048'
p392
aS'211783'
p393
aS'211783'
p394
aS'211161'
p395
aS'211161'
p396
aS'211161'
p397
aS'211161'
p398
aS'211161'
p399
aS'211161'
p400
ag369
ag369
aS'108467'
p401
aS'202838'
p402
aS'100444'
p403
aS'100444'
p404
aS'112220'
p405
aS'112220'
p406
aS'112220'
p407
aS'112220'
p408
aS'106220'
p409
aS'100002'
p410
aS'100002'
p411
aS'100002'
p412
aS'100008'
p413
aS'100008'
p414
aS'112220'
p415
aS'108533'
p416
aS'108533'
p417
aS'109182'
p418
aS'101559'
p419
aS'101559'
p420
aS'112343'
p421
aS'112343'
p422
aS'111476'
p423
aS'212240'
p424
aS'100429'
p425
aS'112343'
p426
aS'100444'
p427
aS'111966'
p428
aS'120065'
p429
aS'120065'
p430
aS'120065'
p431
aS'120065'
p432
aS'100082'
p433
aS'100082'
p434
aS'100001'
p435
aS'100704'
p436
aS'111009'
p437
aS'100689'
p438
aS'111476'
p439
aS'107368'
p440
aS'101961'
p441
aS'100008'
p442
aS'100008'
p443
aS'100065'
p444
aS'100065'
p445
aS'100065'
p446
aS'103119'
p447
aS'103119'
p448
aS'103119'
p449
aS'130002'
p450
aS'100667'
p451
aS'100052'
p452
aS'101190'
p453
aS'101190'
p454
aS'100480'
p455
aS'100480'
p456
aS'102880'
p457
aS'102880'
p458
aS'100065'
p459
aS'100065'
p460
aS'110122'
p461
aS'110122'
p462
aS'120002'
p463
aS'100671'
p464
aS'200774'
p465
aS'100429'
p466
aS'100580'
p467
aS'100122'
p468
aS'100122'
p469
aS'100122'
p470
aS'113027'
p471
aS'100008'
p472
aS'100008'
p473
aS'200470'
p474
aS'200470'
p475
aS'200470'
p476
aS'200470'
p477
aS'111795'
p478
aS'200774'
p479
aS'200774'
p480
aS'111290'
p481
aS'111290'
p482
aS'102705'
p483
aS'102705'
p484
aS'200100'
p485
aS'200988'
p486
aS'200988'
p487
aS'100369'
p488
aS'100369'
p489
aS'101961'
p490
aS'100337'
p491
aS'100337'
p492
aS'101166'
p493
aS'101166'
p494
aS'101166'
p495
aS'101558'
p496
aS'100263'
p497
aS'100201'
p498
aS'100201'
p499
ag369
aS'170002'
p500
aS'100429'
p501
aS'100429'
p502
aS'108041'
p503
aS'201920'
p504
aS'201920'
p505
aS'201920'
p506
aS'120002'
p507
aS'120002'
p508
aS'109196'
p509
aS'101216'
p510
aS'101216'
p511
aS'200497'
p512
aS'110775'
p513
aS'200054'
p514
aS'209869'
p515
aS'112343'
p516
aS'112343'
p517
aS'101322'
p518
aS'112910'
p519
aS'209641'
p520
aS'112476'
p521
aS'109077'
p522
aS'109077'
p523
aS'108406'
p524
aS'108406'
p525
aS'100008'
p526
aS'112343'
p527
aS'112343'
p528
aS'102935'
p529
aS'102935'
p530
aS'100008'
p531
asS'Ws'
p532
(lp533
F47.0
aF44.6
aF49.4
aF54.1
aF30.6
aF55.9
aF29.7
aF56.6
aF54.9
aF68.7
aF76.1
aF56.7
aF179.0
aF83.1
aF87.7
aF49.0
aF97.0
aF37.8
aF77.1
aF92.4
aF81.8
aF77.6
aF84.9
aF88.8
aF38.3
aF54.4
aF115.8
aF93.5
aF84.4
aF91.4
aF65.4
aF36.4
aF157.5
aF38.3
aF35.6
aF59.0
aF71.4
aF32.8
aF85.5
aF62.6
aF68.9
aF91.1
aF643.5
aF354.4
aF117.1
aF319.5
aF37.3
aF36.4
aF57.5
aF94.4
aF76.6
aF35.7
aF113.3
aF63.7
aF47.2
aF84.2
aF157.7
aF66.4
aF45.1
aF70.1
aF93.9
aF58.4
aF105.3
aF65.2
aF41.9
aF72.0
aF81.5
aF89.9
aF64.7
aF41.3
aF96.5
aF34.6
aF31.4
aF90.3
aF68.4
aF45.5
aF67.3
aF49.0
aF52.3
aF45.8
aF63.6
aF97.0
aF106.8
aF51.0
aF67.7
aF55.5
aF46.8
aF93.0
aF77.0
aF52.4
aF104.5
aF44.7
aF62.1
aF40.3
aF70.6
aF74.7
aF81.0
aF60.2
aF67.3
aF58.0
aF39.9
aF118.6
aF101.4
aF-99.0
aF65.6
aF153.4
aF111.6
aF80.2
aF140.8
aF90.3
aF97.7
aF73.9
aF75.0
aF85.6
aF46.5
aF42.5
aF73.7
aF81.2
aF130.8
aF69.6
aF108.7
aF119.0
aF96.0
aF93.6
aF214.0
aF111.6
aF67.6
aF52.3
aF134.6
aF40.7
aF86.5
aF44.7
aF17.8
aF53.7
aF115.5
aF92.0
aF76.1
aF75.2
aF70.0
aF100.0
aF67.3
aF79.3
aF29.8
aF53.0
aF41.9
aF453.8
aF22.7
aF46.2
aF55.6
aF34.4
aF137.6
aF78.6
aF42.9
aF55.3
aF61.5
aF48.1
aF70.7
aF91.0
aF64.6
aF64.7
aF138.2
aF62.6
aF45.2
aF41.5
aF79.7
aF65.3
aF40.6
aF81.7
aF65.4
aF106.7
asS'ls'
p534
(lp535
F0.2412126988688143
aF0.20986807356334825
aF0.14465536383063377
aF0.07161854953827904
aF0.3393362053497067
aF0.0033645005882420548
aF0.007290462460703826
aF0.013501550605080355
aF0.014291708422205798
aF0.010147268322567718
aF0.3419941169478868
aF0.03154689047980427
aF0.10826425299929779
aF0.12077181062035958
aF0.47150866295816457
aF0.017031989186412282
aF0.24430828845276858
aF0.1902437044084589
aF0.0775169322874955
aF0.6270264955836847
aF0.11208536619678722
aF0.1342576586125557
aF0.2370094858475638
aF0.24604148625026231
aF0.5946498595876576
aF0.6124992764102714
aF0.6639347177849689
aF0.3107486015521821
aF0.7477910248515222
aF0.5627995695482366
aF0.14078830616618077
aF0.5114155082462011
aF0.9852371636581724
aF0.6999839368884212
aF0.4826334136235407
aF0.2843077810622611
aF0.757249185736013
aF0.7344833850648919
aF0.40972716803428294
aF0.2843264036259184
aF0.11989473425048579
aF0.5488027806741405
aF0.9890744817959992
aF0.8828847216252096
aF0.9628471139283052
aF0.5017839451974557
aF0.1720232463127217
aF0.007601166999881605
aF0.028797880426177855
aF0.013685019783428653
aF0.6263721284117868
aF0.48801427077357484
aF0.2924896981937694
aF0.17219723123491426
aF0.33611068087587587
aF0.5118738742071529
aF0.7790266462633908
aF0.6946584257530615
aF0.13267185336149795
aF0.13200684951982158
aF0.189138727386674
aF0.2359917344957821
aF0.028972323095995994
aF0.05211345745331476
aF0.05475241272431466
aF0.13326983868181688
aF0.30308045899294267
aF0.10974102935061361
aF0.01213626783772958
aF0.6093106260907495
aF0.0022361402020996493
aF0.013724070411467367
aF0.0009973964985025298
aF0.056327151781851444
aF0.4575634225191655
aF0.4441772210676325
aF0.6066282569575034
aF0.4723354216588317
aF0.09426340371926996
aF0.013684509244414698
aF0.574581409381374
aF0.43377090274175484
aF0.3099904593945614
aF0.08198542772974787
aF0.8042464820784145
aF0.8771524354718803
aF0.8782276056125922
aF0.03771160627301106
aF0.07912934665510472
aF0.0468969589913281
aF0.8750138121886285
aF0.41639722464105794
aF0.06133618681388598
aF0.12778446686103237
aF0.6130786007360942
aF0.6802722942757788
aF0.20535569756963587
aF0.10737942451724823
aF0.0239607656899954
aF0.013176273231868846
aF0.0031967851122073608
aF0.1930204374385414
aF0.8620284499832263
aF0.006117147822879036
aF0.04262732880444474
aF0.1726591124866712
aF0.3859447415293091
aF0.2494090207893454
aF0.6223670657668938
aF0.48219096757182933
aF0.3062235019487717
aF0.03883643050455101
aF0.026245216310477673
aF0.009039318068328788
aF0.04725275159049534
aF0.2123665241205521
aF0.4770697339809935
aF0.6585646361666662
aF0.8287240884792079
aF0.8770704108878459
aF0.9397776107102342
aF0.7187533571533776
aF0.005703918590709207
aF0.4229668504192399
aF0.05414517191561861
aF0.05172446483724641
aF0.0465036534010071
aF0.09426340371926996
aF0.15608976379282247
aF0.021643379745524903
aF0.221094812061421
aF0.5922131515475799
aF0.23425089479944536
aF0.0009543890582222469
aF0.008514481233217588
aF0.01941388082458011
aF0.059011861694140064
aF0.03372306676138514
aF0.0064025696903046705
aF0.09652865370912786
aF0.048006666846486176
aF0.011771947264260793
aF0.014103614234931918
aF0.009018076772880338
aF0.0037800267761958564
aF0.0036250317750345395
aF0.0022397473152120304
aF0.0028753534702931865
aF0.06475881502177781
aF0.05106349358510814
aF0.019411806753123075
aF0.02424335524587844
aF0.05968877964653924
aF0.037322042673277135
aF0.07424328563377965
aF0.09910177421142873
aF0.10785341231625548
aF0.05670919910278913
aF0.04839138464061194
aF0.020742798662628775
aF0.01651327207115157
aF0.0062198104096606675
aF0.007997182909900591
aF0.008588201505925909
aF0.01509997490657198
aF0.044763171876780194
aF0.06407221105377829
aF0.011086170681119509
aF0.005258382379172126
aF0.2142181726446674
asS'Lya_vs'
p536
(lp537
F1075.0
aF1123.0
aF1188.0
aF1264.0
aF1176.0
aF1495.0
aF1571.0
aF1686.0
aF1721.0
aF1854.0
aF9029.0
aF1553.0
aF1971.0
aF841.0
aF1649.0
aF3447.0
aF2873.0
aF2988.0
aF4092.0
aF1664.0
aF4074.0
aF4264.0
aF8922.0
aF8966.0
aF1219.0
aF1310.0
aF1182.0
aF3565.0
aF4083.0
aF4181.0
aF4920.0
aF5037.0
aF5203.0
aF5316.0
aF5368.0
aF5422.0
aF1126.0
aF1163.0
aF7043.0
aF4656.0
aF1049.0
aF1264.0
aF1467.0
aF1408.0
aF1510.0
aF1641.0
aF9714.0
aF866.0
aF1046.0
aF1286.0
aF1131.0
aF1259.0
aF1493.0
aF7852.0
aF7940.0
aF8025.0
aF8385.0
aF8516.0
aF1915.0
aF1982.0
aF4287.0
aF2582.0
aF3264.0
aF2063.0
aF1471.0
aF2605.0
aF794.0
aF1009.0
aF1166.0
aF1254.0
aF7111.0
aF7223.0
aF6381.0
aF829.0
aF2054.0
aF9175.0
aF4295.0
aF9469.0
aF3845.0
aF1019.0
aF1141.0
aF1035.0
aF1186.0
aF1326.0
aF928.0
aF967.0
aF1016.0
aF2124.0
aF7400.0
aF9285.0
aF1795.0
aF1953.0
aF967.0
aF1124.0
aF615.0
aF695.0
aF853.0
aF1048.0
aF1047.0
aF1099.0
aF1720.0
aF9552.0
aF1236.0
aF2889.0
aF8120.0
aF717.0
aF882.0
aF1030.0
aF1194.0
aF731.0
aF874.0
aF6063.0
aF6228.0
aF6342.0
aF6425.0
aF947.0
aF1254.0
aF1378.0
aF5208.0
aF5250.0
aF640.0
aF715.0
aF1766.0
aF5491.0
aF5816.0
aF7038.0
aF7114.0
aF3845.0
aF8738.0
aF8926.0
aF1539.0
aF1800.0
aF1902.0
aF8253.0
aF1278.0
aF1656.0
aF2021.0
aF1013.0
aF1580.0
aF3082.0
aF3192.0
aF7980.0
aF9308.0
aF9360.0
aF9434.0
aF1906.0
aF2548.0
aF7281.0
aF9916.0
aF9970.0
aF1608.0
aF6133.0
aF1167.0
aF4080.0
aF1833.0
aF1985.0
aF708.0
aF703.0
aF4706.0
aF629.0
aF7141.0
aF7282.0
aF7077.0
aF7139.0
aF818.0
aF1824.0
aF1975.0
aF3462.0
aF3597.0
aF1163.0
asS'R_virs'
p538
(lp539
F169.08
aF169.08
aF169.08
aF169.08
aF207.37
aF187.12
aF180.05
aF187.12
aF187.12
aF187.12
aF342.79
aF181.35
aF181.35
aF195.49
aF110.09
aF228.54
aF168.21
aF168.21
aF222.86
aF110.09
aF209.84
aF209.84
aF200.43
aF200.43
aF260.39
aF260.39
aF173.67
aF174.73
aF209.45
aF209.45
aF110.77
aF110.77
aF110.77
aF110.77
aF110.77
aF110.77
aF207.37
aF207.37
aF268.44
aF203.74
aF171.96
aF171.96
aF115.37
aF115.37
aF115.37
aF115.37
aF249.96
aF195.89
aF195.89
aF195.89
aF116.65
aF116.65
aF115.37
aF189.46
aF189.46
aF201.99
aF216.22
aF216.22
aF144.48
aF144.48
aF153.65
aF196.25
aF311.68
aF144.48
aF155.14
aF128.37
aF148.02
aF148.02
aF148.02
aF212.15
aF274.78
aF274.78
aF213.32
aF247.05
aF161.49
aF278.31
aF153.65
aF262.02
aF212.38
aF161.58
aF116.65
aF112.75
aF112.75
aF112.75
aF118.33
aF118.33
aF118.33
aF198.35
aF189.58
aF243.22
aF153.65
aF153.65
aF149.08
aF149.08
aF124.29
aF124.29
aF114.5
aF114.5
aF240.35
aF240.35
aF198.83
aF239.14
aF260.39
aF329.13
aF200.95
aF148.8
aF148.8
aF148.8
aF65.78
aF81.23
aF81.23
aF167.82
aF167.82
aF167.82
aF231.32
aF161.58
aF75.28
aF75.28
aF153.25
aF153.25
aF124.73
aF124.73
aF230.57
aF207.84
aF207.84
aF197.99
aF197.99
aF212.38
aF278.76
aF227.94
aF66.94
aF66.94
aF124.78
aF245.08
aF148.94
aF185.55
aF133.5
aF207.37
aF180.05
aF311.68
aF311.68
aF251.65
aF241.13
aF241.13
aF241.13
aF249.38
aF249.38
aF192.97
aF204.17
aF204.17
aF216.34
aF222.9
aF146.14
aF165.87
aF144.48
aF144.48
aF140.85
aF177.36
aF151.8
aF188.56
aF204.69
aF204.69
aF189.67
aF189.67
aF162.64
aF144.48
aF144.48
aF217.84
aF217.84
aF116.65
asS'Bmags'
p540
(lp541
F11.3
aF11.3
aF11.3
aF11.3
aF11.1
aF11.4
aF10.6
aF11.4
aF11.4
aF11.4
aF15.1
aF12.6
aF12.6
aF11.6
aF14.4
aF11.6
aF12.7
aF12.7
aF14.1
aF14.4
aF13.8
aF13.8
aF-99.99
aF-99.99
aF9.97
aF9.97
aF11.6
aF14.2
aF13.6
aF13.6
aF14.8
aF14.8
aF14.8
aF14.8
aF14.8
aF14.8
aF11.1
aF11.1
aF15.3
aF13.9
aF11.3
aF11.3
aF12.8
aF12.8
aF12.8
aF12.8
aF-99.99
aF11.0
aF11.0
aF11.0
aF11.0
aF11.0
aF12.8
aF-99.99
aF-99.99
aF-99.99
aF15.1
aF15.1
aF12.2
aF12.2
aF14.8
aF13.4
aF12.7
aF12.2
aF12.8
aF13.8
aF10.3
aF10.3
aF10.3
aF10.1
aF14.1
aF14.1
aF14.6
aF10.2
aF12.1
aF-99.99
aF14.8
aF-99.99
aF13.2
aF11.3
aF11.0
aF11.4
aF11.4
aF11.4
aF11.3
aF11.3
aF11.3
aF12.2
aF14.8
aF-99.99
aF12.3
aF12.3
aF11.1
aF11.1
aF10.8
aF10.8
aF12.2
aF12.2
aF10.3
aF10.3
aF12.6
aF-99.99
aF9.97
aF11.7
aF-99.99
aF9.99
aF9.99
aF9.99
aF14.4
aF13.1
aF13.1
aF15.0
aF15.0
aF15.0
aF13.2
aF10.7
aF14.6
aF14.6
aF-99.99
aF-99.99
aF8.71
aF8.71
aF10.5
aF14.4
aF14.4
aF-99.99
aF-99.99
aF13.2
aF-99.99
aF-99.99
aF13.6
aF13.6
aF12.1
aF15.0
aF12.5
aF11.7
aF13.2
aF11.1
aF10.6
aF12.7
aF12.7
aF15.1
aF15.9
aF15.9
aF15.9
aF11.4
aF11.4
aF-99.99
aF14.7
aF14.7
aF11.2
aF14.4
aF11.4
aF14.1
aF12.2
aF12.2
aF10.7
aF11.7
aF13.8
aF10.6
aF14.2
aF14.2
aF14.4
aF14.4
aF11.1
aF12.2
aF12.2
aF12.9
aF12.9
aF11.0
asS'cuss'
p542
(lp543
F140.608
aF140.608
aF140.608
aF140.608
aF219.1576438890508
aF175.280107165645
aF161.20465603697681
aF175.280107165645
aF175.280107165645
aF175.280107165645
aF653.5502293557856
aF163.74199417681464
aF163.74199417681464
aF192.7677196861549
aF55.328630996980216
aF270.7342453865044
aF139.0508881812698
aF139.0508881812698
aF256.309857155358
aF55.328630996980216
aF224.87975540719532
aF224.87975540719532
aF203.52330579076198
aF203.52330579076198
aF359.509687791581
aF359.509687791581
aF149.0360282985292
aF151.02864978539668
aF223.9682046005638
aF223.9682046005638
aF56.07334148238359
aF56.07334148238359
aF56.07334148238359
aF56.07334148238359
aF56.07334148238359
aF56.07334148238359
aF219.1576438890508
aF219.1576438890508
aF384.09991708408376
aF210.89036015664632
aF145.8662401345836
aF145.8662401345836
aF61.259933594479186
aF61.259933594479186
aF61.259933594479186
aF61.259933594479186
aF328.92308694434934
aF193.6348701112483
aF193.6348701112483
aF193.6348701112483
aF62.74414346375285
aF62.74414346375285
aF61.259933594479186
aF180.0867576169886
aF180.0867576169886
aF206.97405755069886
aF240.00395815069382
aF240.00395815069382
aF99.900128012931
aF99.900128012931
aF114.21146117618844
aF194.41641395725827
aF531.441
aF99.900128012931
aF116.62150146092273
aF77.26021708486199
aF105.30701306180895
aF105.30701306180895
aF105.30701306180895
aF230.28295441260954
aF404.11450691109815
aF404.11450691109815
aF233.04670004743681
aF320.6744753250561
aF127.25673656038803
aF415.47877254078816
aF114.21146117618844
aF364.4271137113703
aF230.83482394777442
aF127.40766369414361
aF62.74414346375285
aF58.26912155679026
aF58.26912155679026
aF58.26912155679026
aF64.72134831722838
aF64.72134831722838
aF64.72134831722838
aF198.9524900874578
aF180.34093791482843
aF309.9546934634157
aF114.21146117618844
aF114.21146117618844
aF106.94039590818804
aF106.94039590818804
aF72.01875374511836
aF72.01875374511836
aF60.25745723974751
aF60.25745723974751
aF302.07044543947035
aF302.07044543947035
aF200.00421995547995
aF298.7552404711924
aF359.509687791581
aF598.2566338955214
aF204.67140693560492
aF106.51348845568808
aF106.51348845568808
aF106.51348845568808
aF18.05787549483604
aF28.567284411105653
aF28.567284411105653
aF138.35207578854752
aF138.35207578854752
aF138.35207578854752
aF277.9466603127298
aF127.40766369414361
aF24.215207060853306
aF24.215207060853306
aF113.55709412009449
aF113.55709412009449
aF72.58115457885744
aF72.58115457885744
aF275.99113014551756
aF220.2437763547474
aF220.2437763547474
aF198.16490657782978
aF198.16490657782978
aF230.83482394777442
aF416.93469265701555
aF269.1831324749008
aF18.762872061094484
aF18.762872061094484
aF72.64373352877728
aF315.14627015244844
aF106.7268710306828
aF172.09983900050577
aF84.1301848327935
aF219.1576438890508
aF161.20465603697681
aF531.441
aF531.441
aF333.801610733082
aF304.18646200480384
aF304.18646200480384
aF304.18646200480384
aF327.26778293776493
aF327.26778293776493
aF187.4204414545009
aF211.87325330017472
aF211.87325330017472
aF240.28366491503328
aF256.4051455333921
aF102.41619632167561
aF134.87567238015907
aF99.900128012931
aF99.900128012931
aF94.5207483836221
aF156.0082523201898
aF111.24063240111501
aF178.22642470464362
aF213.03681668434686
aF213.03681668434686
aF180.51045782447068
aF180.51045782447068
aF129.22343292143262
aF99.900128012931
aF99.900128012931
aF243.92971787791663
aF243.92971787791663
aF62.74414346375285
asS'vcorrs'
p544
(lp545
F902.0
aF902.0
aF902.0
aF902.0
aF1420.0
aF2031.0
aF2103.0
aF2031.0
aF2031.0
aF2031.0
aF8754.0
aF1886.0
aF1886.0
aF789.0
aF1545.0
aF3382.0
aF2973.0
aF2973.0
aF4238.0
aF1545.0
aF4269.0
aF4269.0
aF8677.0
aF8677.0
aF1030.0
aF1030.0
aF1334.0
aF3846.0
aF3860.0
aF3860.0
aF4934.0
aF4934.0
aF4934.0
aF4934.0
aF4934.0
aF4934.0
aF1420.0
aF1420.0
aF7298.0
aF4419.0
aF1582.0
aF1582.0
aF1709.0
aF1709.0
aF1709.0
aF1709.0
aF9912.0
aF1404.0
aF1404.0
aF1404.0
aF1378.0
aF1378.0
aF1709.0
aF8281.0
aF8281.0
aF8319.0
aF8609.0
aF8609.0
aF2143.0
aF2143.0
aF4495.0
aF2320.0
aF3170.0
aF2143.0
aF1782.0
aF2884.0
aF1097.0
aF1097.0
aF1097.0
aF1522.0
aF7782.0
aF7782.0
aF7027.0
aF1145.0
aF2235.0
aF9383.0
aF4495.0
aF9716.0
aF4018.0
aF1217.0
aF1378.0
aF1355.0
aF1355.0
aF1355.0
aF1286.0
aF1286.0
aF1286.0
aF2415.0
aF7689.0
aF9541.0
aF1991.0
aF1991.0
aF1415.0
aF1415.0
aF951.0
aF951.0
aF1171.0
aF1171.0
aF1131.0
aF1131.0
aF2256.0
aF9767.0
aF1030.0
aF2674.0
aF8520.0
aF1170.0
aF1170.0
aF1170.0
aF1399.0
aF985.0
aF985.0
aF5882.0
aF5882.0
aF5882.0
aF6081.0
aF910.0
aF1127.0
aF1127.0
aF5425.0
aF5425.0
aF888.0
aF888.0
aF1191.0
aF5236.0
aF5236.0
aF7330.0
aF7330.0
aF4018.0
aF8893.0
aF9381.0
aF2000.0
aF2000.0
aF1931.0
aF8856.0
aF1815.0
aF2256.0
aF2146.0
aF1420.0
aF2103.0
aF3170.0
aF3170.0
aF8423.0
aF8951.0
aF8951.0
aF8951.0
aF2510.0
aF2510.0
aF7413.0
aF10028.0
aF10028.0
aF1301.0
aF6589.0
aF926.0
aF3907.0
aF2143.0
aF2143.0
aF937.0
aF871.0
aF4375.0
aF882.0
aF7279.0
aF7279.0
aF7388.0
aF7388.0
aF1139.0
aF2143.0
aF2143.0
aF3526.0
aF3526.0
aF1378.0
asS'e_Nas'
p546
(lp547
F1540000000000.0
aF2150000000000.0
aF893000000000.0
aF569000000000.0
aF433000000000.0
aF860000000000.0
aF391000000000.0
aF2590000000000.0
aF2430000000000.0
aF708000000000.0
aF772000000000.0
aF2220000000000.0
aF3610000000000.0
aF5820000000000.0
aF9090000000000.0
aF1280000000000.0
aF1950000000000.0
aF796000000000.0
aF2790000000000.0
aF11400000000000.0
aF2180000000000.0
aF7550000000000.0
aF20800000000000.0
aF25100000000000.0
aF2960000000000.0
aF4910000000000.0
aF31700000000000.0
aF22400000000000.0
aF23600000000000.0
aF23200000000000.0
aF4060000000000.0
aF2950000000000.0
aF54500000000000.0
aF34600000000000.0
aF27100000000000.0
aF26400000000000.0
aF20900000000000.0
aF3510000000000.0
aF12400000000000.0
aF8220000000000.0
aF17600000000000.0
aF22300000000000.0
aF185000000000000.0
aF142000000000000.0
aF102000000000000.0
aF124000000000000.0
aF2720000000000.0
aF5350000000000.0
aF6410000000000.0
aF28400000000000.0
aF12600000000000.0
aF3420000000000.0
aF35600000000000.0
aF15600000000000.0
aF4180000000000.0
aF23200000000000.0
aF45400000000000.0
aF28800000000000.0
aF10100000000000.0
aF8550000000000.0
aF12400000000000.0
aF7250000000000.0
aF10400000000000.0
aF13000000000000.0
aF41300000000000.0
aF24700000000000.0
aF14200000000000.0
aF13100000000000.0
aF13600000000000.0
aF6070000000000.0
aF6530000000000.0
aF2010000000000.0
aF1850000000000.0
aF25500000000000.0
aF7380000000000.0
aF2600000000000.0
aF11900000000000.0
aF2700000000000.0
aF6580000000000.0
aF4730000000000.0
aF7310000000000.0
aF37600000000000.0
aF34800000000000.0
aF6150000000000.0
aF21000000000000.0
aF31600000000000.0
aF22300000000000.0
aF2240000000000.0
aF7830000000000.0
aF3900000000000.0
aF26500000000000.0
aF6920000000000.0
aF24900000000000.0
aF2920000000000.0
aF25800000000000.0
aF37100000000000.0
aF8280000000000.0
aF4430000000000.0
aF36900000000000.0
aF31900000000000.0
aF2190000000000.0
aF31500000000000.0
aF40800000000000.0
aF362000000000000.0
aF5680000000000.0
aF45300000000000.0
aF36300000000000.0
aF11200000000000.0
aF39300000000000.0
aF48500000000000.0
aF47400000000000.0
aF9890000000000.0
aF14100000000000.0
aF25100000000000.0
aF2610000000000.0
aF26500000000000.0
aF34500000000000.0
aF34800000000000.0
aF37600000000000.0
aF40500000000000.0
aF40700000000000.0
aF35300000000000.0
aF14500000000000.0
aF12300000000000.0
aF16200000000000.0
aF31900000000000.0
aF19100000000000.0
aF6580000000000.0
aF45800000000000.0
aF5470000000000.0
aF25900000000000.0
aF7310000000000.0
aF3460000000000.0
aF7270000000000.0
aF44600000000000.0
aF7390000000000.0
aF2630000000000.0
aF1070000000000.0
aF1050000000000.0
aF3790000000000.0
aF2440000000000.0
aF2610000000000.0
aF1090000000000.0
aF3950000000000.0
aF1910000000000.0
aF61700000000000.0
aF1030000000000.0
aF1620000000000.0
aF2550000000000.0
aF1450000000000.0
aF5750000000000.0
aF4610000000000.0
aF3360000000000.0
aF2420000000000.0
aF5970000000000.0
aF3180000000000.0
aF14500000000000.0
aF11600000000000.0
aF6410000000000.0
aF4420000000000.0
aF7720000000000.0
aF9530000000000.0
aF6290000000000.0
aF11200000000000.0
aF26100000000000.0
aF12100000000000.0
aF4960000000000.0
aF3750000000000.0
aF4080000000000.0
aF10800000000000.0
asS'e_bestDists'
p548
(lp549
F5.21
aF5.21
aF5.21
aF5.21
aF2.78
aF3.3
aF2.83
aF3.3
aF3.3
aF3.3
aF13.96
aF9.09
aF9.09
aF5.04
aF2.49
aF9.42
aF5.35
aF5.35
aF17.81
aF2.49
aF6.31
aF6.31
aF12.22
aF12.22
aF5.59
aF5.59
aF1.91
aF8.26
aF7.24
aF7.24
aF10.22
aF10.22
aF10.22
aF10.22
aF10.22
aF10.22
aF2.78
aF2.78
aF7.75
aF6.22
aF5.75
aF5.75
aF2.68
aF2.68
aF2.68
aF2.68
aF13.96
aF3.98
aF3.98
aF3.98
aF6.4
aF6.4
aF2.68
aF11.66
aF11.66
aF11.71
aF12.12
aF12.12
aF4.18
aF4.18
aF6.33
aF1.25
aF7.98
aF4.18
aF10.98
aF1.42
aF2.7
aF2.7
aF2.7
aF4.01
aF4.98
aF4.98
aF13.72
aF6.74
aF0.19
aF13.21
aF6.33
aF13.68
aF13.11
aF2.46
aF6.4
aF3.89
aF3.89
aF3.89
aF3.23
aF3.23
aF3.23
aF6.4
aF13.73
aF13.43
aF4.47
aF4.47
aF2.9
aF2.9
aF3.44
aF3.44
aF3.23
aF3.23
aF2.3
aF2.3
aF5.34
aF13.75
aF5.59
aF12.5
aF12.0
aF1.6
aF1.6
aF1.6
aF7.3
aF2.26
aF2.26
aF2.47
aF2.47
aF2.47
aF5.62
aF3.62
aF1.58
aF1.58
aF7.64
aF7.64
aF1.53
aF1.53
aF3.26
aF7.37
aF7.37
aF10.32
aF10.32
aF13.11
aF12.52
aF28.06
aF2.81
aF2.81
aF3.81
aF18.66
aF9.64
aF4.55
aF3.66
aF2.78
aF2.83
aF7.98
aF7.98
aF20.61
aF12.6
aF12.6
aF12.6
aF3.98
aF3.98
aF10.44
aF14.12
aF14.12
aF3.1
aF9.27
aF4.12
aF5.5
aF4.18
aF4.18
aF3.22
aF4.21
aF11.01
aF2.44
aF7.05
aF7.05
aF10.4
aF10.4
aF1.66
aF4.18
aF4.18
aF11.35
aF11.35
aF6.4
asS'group_mems'
p550
(lp551
S'16'
p552
aS'16'
p553
aS'16'
p554
aS'16'
p555
aS'1'
p556
aS'4'
p557
ag557
ag557
ag557
ag557
ag556
ag556
ag556
ag556
ag556
aS'2'
p558
aS'3'
p559
ag559
ag556
ag556
ag556
ag556
ag557
ag557
ag557
ag557
ag558
ag556
ag556
ag556
ag556
ag556
ag556
ag556
ag556
ag556
ag556
ag556
ag556
ag558
aS'5'
p560
ag560
ag556
ag556
ag556
ag556
ag556
aS'197'
p561
aS'197'
p562
aS'197'
p563
aS'65'
p564
aS'65'
p565
ag556
ag556
ag556
ag556
ag558
ag558
ag556
ag556
ag556
ag556
ag560
ag556
ag560
ag556
ag559
ag559
ag559
ag559
aS'12'
p566
aS'12'
p567
aS'136'
p568
ag557
ag556
ag557
ag556
ag556
ag558
aS'65'
p569
aS'65'
p570
aS'15'
p571
aS'15'
p572
aS'15'
p573
ag558
ag558
ag558
aS'9'
p574
aS'7'
p575
aS'16'
p576
ag559
ag559
ag560
ag560
ag558
ag558
aS'15'
p577
aS'15'
p578
ag560
ag560
aS'39'
p579
ag560
ag557
ag560
ag557
aS'11'
p580
aS'11'
p581
aS'11'
p582
ag556
aS'65'
p583
aS'65'
p584
ag560
ag560
ag560
ag560
ag556
ag557
ag557
ag556
ag556
ag558
ag558
aS'12'
p585
ag559
ag559
aS'8'
p586
ag586
ag558
aS'6'
p587
ag587
ag559
ag559
ag559
ag558
ag575
ag586
ag586
ag556
ag557
ag560
ag560
ag556
ag558
ag558
ag558
aS'39'
p588
aS'39'
p589
ag556
ag559
ag559
ag560
ag556
aS'16'
p590
ag556
ag556
ag556
ag559
ag556
ag556
ag556
ag556
ag556
ag556
ag556
aS'65'
p591
ag556
ag556
ag558
ag558
aS'65'
p592
asS'e_Lstar_meds'
p593
(lp594
F2.3
aF2.3
aF2.3
aF2.3
aF0.72
aF0.91
aF1.8
aF0.91
aF0.91
aF0.91
aF1.4
aF2.0
aF2.0
aF1.6
aF0.075
aF6.5
aF1.4
aF1.4
aF2.8
aF0.075
aF0.77
aF0.77
aF-99.99
aF-99.99
aF6.7
aF6.7
aF0.45
aF0.74
aF1.5
aF1.5
aF0.5
aF0.5
aF0.5
aF0.5
aF0.5
aF0.5
aF0.72
aF0.72
aF0.45
aF0.92
aF3.2
aF3.2
aF0.31
aF0.31
aF0.31
aF0.31
aF-99.99
aF1.8
aF1.8
aF1.8
aF1.5
aF1.5
aF0.31
aF-99.99
aF-99.99
aF-99.99
aF0.99
aF0.99
aF1.3
aF1.3
aF0.4
aF0.16
aF2.2
aF1.3
aF1.9
aF0.14
aF1.1
aF1.1
aF1.1
aF3.1
aF1.1
aF1.1
aF1.4
aF6.8
aF0.075
aF-99.99
aF0.4
aF-99.99
aF2.6
aF0.85
aF1.5
aF1.1
aF1.1
aF1.1
aF1.1
aF1.1
aF1.1
aF2.0
aF1.1
aF-99.99
aF1.1
aF1.1
aF1.4
aF1.4
aF1.5
aF1.5
aF0.52
aF0.52
aF1.3
aF1.3
aF1.3
aF-99.99
aF6.7
aF7.5
aF-99.99
aF1.3
aF1.3
aF1.3
aF0.22
aF0.13
aF0.13
aF0.58
aF0.58
aF0.58
aF2.0
aF1.2
aF0.027
aF0.027
aF-99.99
aF-99.99
aF1.6
aF1.6
aF2.7
aF0.74
aF0.74
aF-99.99
aF-99.99
aF2.6
aF-99.99
aF-99.99
aF0.22
aF0.22
aF0.96
aF1.3
aF2.0
aF2.0
aF0.5
aF0.72
aF1.8
aF2.2
aF2.2
aF1.4
aF0.5
aF0.5
aF0.5
aF2.6
aF2.6
aF-99.99
aF1.9
aF1.9
aF1.3
aF1.1
aF1.1
aF0.67
aF1.3
aF1.3
aF1.3
aF0.72
aF1.6
aF1.4
aF1.2
aF1.2
aF1.5
aF1.5
aF0.69
aF1.3
aF1.3
aF3.1
aF3.1
aF1.5
asS'Dec_targets'
p595
(lp596
F-57.20027777777778
aF-57.20027777777778
aF-57.20027777777778
aF-57.20027777777778
aF1.256388888888889
aF1.256388888888889
aF1.256388888888889
aF1.256388888888889
aF1.256388888888889
aF1.256388888888889
aF-17.581944444444446
aF73.21944444444445
aF73.21944444444445
aF16.163611111111113
aF-52.805
aF-10.555555555555555
aF71.34333333333333
aF71.34333333333333
aF5.216944444444445
aF-53.191944444444445
aF74.13638888888889
aF74.13638888888889
aF-30.6275
aF-30.6275
aF-30.513333333333332
aF-30.513333333333332
aF-23.491944444444446
aF-23.491944444444446
aF2.7680555555555557
aF2.7680555555555557
aF4.805
aF4.805
aF4.805
aF4.805
aF4.805
aF4.805
aF-0.5261111111111111
aF-0.5261111111111111
aF3.958611111111111
aF27.936944444444446
aF3.3005555555555555
aF3.3005555555555555
aF32.400555555555556
aF32.400555555555556
aF32.400555555555556
aF32.400555555555556
aF68.16833333333334
aF12.051944444444445
aF12.051944444444445
aF12.051944444444445
aF53.03055555555556
aF53.03055555555556
aF32.06583333333333
aF32.06583333333333
aF32.06583333333333
aF15.432222222222222
aF58.010555555555555
aF58.010555555555555
aF32.772222222222226
aF32.772222222222226
aF32.772222222222226
aF13.679166666666667
aF57.603611111111114
aF32.89361111111111
aF3.4294444444444445
aF3.4294444444444445
aF26.693333333333335
aF26.693333333333335
aF26.693333333333335
aF26.693333333333335
aF26.693333333333335
aF26.693333333333335
aF28.32888888888889
aF35.25555555555555
aF14.111666666666666
aF47.966944444444444
aF32.60861111111111
aF59.7375
aF7.206666666666667
aF53.305
aF53.305
aF27.830833333333334
aF27.830833333333334
aF27.830833333333334
aF11.613611111111112
aF11.613611111111112
aF11.613611111111112
aF14.053611111111111
aF31.325555555555557
aF25.25638888888889
aF15.017222222222221
aF15.017222222222221
aF4.594722222222222
aF4.594722222222222
aF28.63361111111111
aF28.63361111111111
aF30.116944444444446
aF30.116944444444446
aF11.52138888888889
aF11.52138888888889
aF6.726388888888889
aF25.924444444444443
aF-30.123055555555556
aF59.2075
aF17.00583333333333
aF11.858055555555556
aF11.858055555555556
aF11.858055555555556
aF59.172777777777775
aF46.36805555555556
aF46.36805555555556
aF31.063333333333333
aF31.063333333333333
aF31.063333333333333
aF31.063333333333333
aF55.790277777777774
aF-30.128333333333334
aF-30.128333333333334
aF24.994722222222222
aF24.994722222222222
aF32.240833333333335
aF32.240833333333335
aF-26.899722222222223
aF0.8797222222222222
aF0.8797222222222222
aF5.09
aF5.09
aF7.206666666666667
aF5.2444444444444445
aF5.2444444444444445
aF3.357222222222222
aF3.357222222222222
aF3.357222222222222
aF3.357222222222222
aF75.31055555555555
aF58.05638888888889
aF58.05638888888889
aF2.0525
aF2.0525
aF57.9025
aF57.9025
aF25.64666666666667
aF-38.477777777777774
aF-38.477777777777774
aF-38.477777777777774
aF6.643888888888889
aF6.643888888888889
aF8.329722222222223
aF26.54722222222222
aF26.54722222222222
aF-33.555277777777775
aF25.06
aF-53.61555555555555
aF3.4138888888888888
aF33.49
aF33.49
aF56.82222222222222
aF35.19
aF13.765
aF47.040277777777774
aF27.330833333333334
aF27.330833333333334
aF42.88166666666667
aF42.88166666666667
aF46.41027777777778
aF33.50222222222222
aF33.50222222222222
aF60.74138888888889
aF60.74138888888889
aF52.97611111111111
asS'PAs'
p597
(lp598
F45.0
aF45.0
aF45.0
aF45.0
aF83.0
aF70.0
aF95.0
aF70.0
aF70.0
aF70.0
aF27.0
aF15.0
aF15.0
aF135.0
aF28.0
aF5.0
aF5.0
aF5.0
aF60.0
aF28.0
aF115.0
aF115.0
aF115.0
aF115.0
aF145.0
aF145.0
aF76.0
aF35.0
aF60.0
aF60.0
aF100.0
aF100.0
aF100.0
aF100.0
aF100.0
aF100.0
aF83.0
aF83.0
aF105.0
aF175.0
aF100.0
aF100.0
aF105.0
aF105.0
aF105.0
aF105.0
aF135.0
aF97.0
aF97.0
aF97.0
aF28.0
aF28.0
aF105.0
aF160.0
aF160.0
aF67.0
aF105.0
aF105.0
aF150.0
aF150.0
aF30.0
aF30.0
aF60.0
aF150.0
aF37.0
aF70.0
aF148.0
aF148.0
aF148.0
aF134.0
aF70.0
aF70.0
aF15.0
aF175.0
aF150.0
aF175.0
aF30.0
aF165.0
aF90.0
aF13.0
aF28.0
aF95.0
aF95.0
aF95.0
aF35.0
aF35.0
aF35.0
aF95.0
aF117.0
aF120.0
aF0.0
aF0.0
aF130.0
aF130.0
aF83.0
aF83.0
aF135.0
aF135.0
aF104.0
aF104.0
aF45.0
aF0.0
aF145.0
aF13.0
aF30.0
aF135.0
aF135.0
aF135.0
aF155.0
aF170.0
aF170.0
aF95.0
aF95.0
aF95.0
aF110.0
aF83.0
aF105.0
aF105.0
aF50.0
aF50.0
aF84.0
aF84.0
aF100.0
aF140.0
aF140.0
aF175.0
aF175.0
aF90.0
aF115.0
aF85.0
aF70.0
aF70.0
aF130.0
aF45.0
aF140.0
aF100.0
aF150.0
aF83.0
aF95.0
aF60.0
aF60.0
aF65.0
aF160.0
aF160.0
aF160.0
aF173.0
aF173.0
aF10.0
aF140.0
aF140.0
aF45.0
aF145.0
aF107.0
aF65.0
aF150.0
aF150.0
aF123.0
aF43.0
aF155.0
aF40.0
aF163.0
aF163.0
aF55.0
aF55.0
aF35.0
aF150.0
aF150.0
aF70.0
aF70.0
aF28.0
asS'Lstar_meds'
p599
(lp600
F1.8
aF1.8
aF1.8
aF1.8
aF0.54
aF0.81
aF2.0
aF0.81
aF0.81
aF0.81
aF2.9
aF1.4
aF1.4
aF1.2
aF0.15
aF5.5
aF2.5
aF2.5
aF3.1
aF0.15
aF1.4
aF1.4
aF-99.99
aF-99.99
aF4.2
aF4.2
aF0.64
aF0.95
aF3.1
aF3.1
aF0.52
aF0.52
aF0.52
aF0.52
aF0.52
aF0.52
aF0.54
aF0.54
aF1.1
aF1.9
aF2.7
aF2.7
aF0.5
aF0.5
aF0.5
aF0.5
aF-99.99
aF1.6
aF1.6
aF1.6
aF0.45
aF0.45
aF0.5
aF-99.99
aF-99.99
aF-99.99
aF2.0
aF2.0
aF1.8
aF1.8
aF0.75
aF0.94
aF2.7
aF1.8
aF1.1
aF0.88
aF0.63
aF0.63
aF0.63
aF2.0
aF4.4
aF4.4
aF2.0
aF3.9
aF2.7
aF-99.99
aF0.75
aF-99.99
aF2.3
aF1.2
aF0.45
aF0.9
aF0.9
aF0.9
aF1.2
aF1.2
aF1.2
aF2.2
aF1.8
aF-99.99
aF1.4
aF1.4
aF1.7
aF1.7
aF1.1
aF1.1
aF0.55
aF0.55
aF1.1
aF1.1
aF2.0
aF-99.99
aF4.2
aF5.1
aF-99.99
aF1.8
aF1.8
aF1.8
aF0.15
aF0.17
aF0.17
aF1.2
aF1.2
aF1.2
aF6.5
aF0.62
aF0.057
aF0.057
aF-99.99
aF-99.99
aF0.95
aF0.95
aF3.2
aF1.5
aF1.5
aF-99.99
aF-99.99
aF2.3
aF-99.99
aF-99.99
aF0.47
aF0.47
aF1.3
aF1.4
aF1.3
aF2.8
aF1.1
aF0.54
aF2.0
aF2.7
aF2.7
aF1.6
aF1.1
aF1.1
aF1.1
aF4.4
aF4.4
aF-99.99
aF4.2
aF4.2
aF1.6
aF2.4
aF0.77
aF1.4
aF1.8
aF1.8
aF0.94
aF0.42
aF1.8
aF1.7
aF4.1
aF4.1
aF3.0
aF3.0
aF1.4
aF1.8
aF1.8
aF3.3
aF3.3
aF0.45
asS'RA_galaxies'
p601
(lp602
F65.49508
aF65.49508
aF65.49508
aF65.49508
aF188.18996
aF188.53509
aF188.61271
aF188.53509
aF188.53509
aF188.53509
aF343.42021
aF276.03154
aF276.03154
aF0.81204
aF69.90367
aF196.05996
aF110.64454
aF110.64454
aF151.22461
aF69.90367
aF108.31017
aF108.31017
aF359.90754
aF359.90754
aF41.57937
aF41.57937
aF165.84904
aF165.70883
aF324.8615
aF324.8615
aF28.60129
aF28.60129
aF28.60129
aF28.60129
aF28.60129
aF28.60129
aF188.18996
aF188.18996
aF196.49433
aF38.16596
aF170.27854
aF170.27854
aF149.58783
aF149.58783
aF149.58783
aF149.58783
aF225.56167
aF186.86045
aF186.86045
aF186.86045
aF170.26198
aF170.26198
aF149.58783
aF149.71388
aF149.71388
aF198.85505
aF147.12852
aF147.12852
aF137.39045
aF137.39045
aF137.16024
aF344.80333
aF234.98904
aF137.39045
aF170.07075
aF170.10924
aF188.99019
aF188.99019
aF188.99019
aF189.08658
aF188.94107
aF188.94107
aF194.99
aF198.36444
aF130.66585
aF188.29614
aF137.16024
aF150.2715
aF184.49216
aF173.14522
aF170.26198
aF184.53437
aF184.53437
aF184.53437
aF175.24483
aF175.24483
aF175.24483
aF183.44696
aF202.52721
aF208.94309
aF233.42942
aF233.42942
aF209.03004
aF209.03004
aF165.09945
aF165.09945
aF184.40322
aF184.40322
aF170.07071
aF170.07071
aF184.84267
aF173.61421
aF41.57937
aF234.90454
aF144.38702
aF161.69058
aF161.69058
aF161.69058
aF171.68465
aF174.8365
aF174.8365
aF7.27967
aF7.27967
aF7.27967
aF7.06221
aF167.87904
aF41.54121
aF41.54121
aF128.87154
aF128.87154
aF190.53338
aF190.53338
aF54.71721
aF5.11464
aF5.11464
aF205.34403
aF205.34403
aF184.49216
aF121.99208
aF122.06849
aF217.41259
aF217.41259
aF217.41823
aF217.1388
aF186.11812
aF169.65045
aF170.13058
aF188.18996
aF188.61271
aF234.98904
aF234.98904
aF205.93397
aF324.43825
aF324.43825
aF324.43825
aF184.84675
aF184.84675
aF197.31227
aF243.69459
aF243.69459
aF7.59154
aF175.66438
aF67.91471
aF311.01325
aF137.39045
aF137.39045
aF226.62291
aF163.12971
aF29.8947
aF154.97897
aF139.20608
aF139.20608
aF178.90975
aF178.90975
aF176.53208
aF137.39045
aF137.39045
aF256.98946
aF256.98946
aF170.26198
asS'bs'
p603
(lp604
F28.2
aF26.8
aF29.7
aF32.5
aF18.4
aF33.6
aF17.9
aF34.0
aF33.0
aF41.3
aF45.7
aF34.0
aF107.5
aF49.9
aF52.7
aF29.4
aF58.3
aF22.7
aF46.3
aF55.5
aF49.1
aF46.6
aF51.0
aF53.3
aF23.0
aF32.7
aF69.5
aF56.1
aF50.7
aF54.9
aF39.2
aF21.8
aF94.6
aF23.0
aF21.4
aF35.4
aF42.9
aF19.7
aF51.3
aF37.6
aF41.4
aF54.7
aF386.5
aF212.8
aF70.3
aF191.9
aF22.4
aF21.9
aF34.5
aF56.7
aF46.0
aF21.4
aF68.0
aF38.3
aF28.4
aF50.6
aF94.7
aF39.9
aF27.1
aF42.1
aF56.4
aF35.1
aF63.2
aF39.1
aF25.2
aF43.3
aF48.9
aF54.0
aF38.8
aF24.8
aF57.9
aF20.8
aF18.9
aF54.2
aF41.1
aF27.3
aF40.4
aF29.4
aF31.4
aF27.5
aF38.2
aF58.3
aF64.2
aF30.6
aF40.6
aF33.3
aF28.1
aF55.9
aF46.2
aF31.5
aF62.7
aF26.8
aF37.3
aF24.2
aF42.4
aF44.8
aF48.7
aF36.1
aF40.4
aF34.8
aF24.0
aF71.2
aF60.9
aF885.9
aF39.4
aF92.1
aF67.0
aF48.1
aF84.6
aF54.2
aF58.7
aF44.4
aF45.1
aF51.4
aF27.9
aF25.5
aF44.3
aF48.8
aF78.6
aF41.8
aF65.3
aF71.5
aF57.7
aF56.2
aF128.5
aF67.0
aF40.6
aF31.4
aF80.9
aF24.5
aF52.0
aF26.9
aF10.7
aF32.2
aF69.4
aF55.3
aF45.7
aF44.3
aF42.0
aF60.1
aF40.4
aF47.6
aF17.9
aF31.8
aF25.2
aF272.6
aF13.6
aF27.7
aF33.4
aF20.6
aF82.7
aF47.2
aF25.8
aF33.2
aF36.9
aF28.9
aF42.5
aF54.7
aF38.8
aF38.9
aF83.0
aF37.6
aF27.1
aF24.9
aF47.9
aF39.2
aF24.4
aF49.0
aF39.3
aF64.1
asS'e_Ws'
p605
(lp606
F9.6
aF2.6
aF3.4
aF4.3
aF5.6
aF4.1
aF2.3
aF8.5
aF3.8
aF4.0
aF3.4
aF6.7
aF12.4
aF4.8
aF3.1
aF3.3
aF3.2
aF4.6
aF3.7
aF3.6
aF4.6
aF4.6
aF8.2
aF6.1
aF4.8
aF7.1
aF4.2
aF3.0
aF4.6
aF5.8
aF5.7
aF6.2
aF5.1
aF2.1
aF2.0
aF4.1
aF4.8
aF4.5
aF4.5
aF5.4
aF4.1
aF4.0
aF9.1
aF10.3
aF6.2
aF8.8
aF5.8
aF5.5
aF3.9
aF2.4
aF4.0
aF5.4
aF3.6
aF4.0
aF7.5
aF5.7
aF7.2
aF3.2
aF5.3
aF5.3
aF6.7
aF2.0
aF4.1
aF4.4
aF1.7
aF7.5
aF3.6
aF3.4
aF4.9
aF5.0
aF3.5
aF5.0
aF2.8
aF2.6
aF4.7
aF5.8
aF4.7
aF4.9
aF3.9
aF5.7
aF7.3
aF4.8
aF3.9
aF5.1
aF8.6
aF2.2
aF4.8
aF5.2
aF3.9
aF3.0
aF5.4
aF2.9
aF6.8
aF4.5
aF6.3
aF5.8
aF3.9
aF4.3
aF9.5
aF5.4
aF3.5
aF4.8
aF3.0
aF-99.0
aF5.1
aF6.8
aF4.8
aF6.8
aF2.7
aF5.8
aF6.6
aF3.2
aF2.7
aF4.6
aF3.1
aF2.3
aF3.6
aF3.7
aF8.5
aF3.0
aF6.5
aF5.8
aF6.7
aF8.4
aF6.7
aF5.7
aF5.2
aF3.9
aF4.7
aF5.8
aF4.7
aF5.5
aF4.8
aF6.0
aF6.0
aF4.1
aF4.4
aF3.6
aF3.6
aF4.6
aF6.0
aF4.8
aF5.5
aF2.6
aF4.4
aF9.1
aF2.4
aF3.5
aF4.1
aF3.0
aF4.0
aF4.1
aF4.1
aF2.0
aF4.3
aF4.2
aF3.2
aF5.1
aF4.5
aF6.2
aF6.5
aF4.9
aF3.1
aF4.6
aF3.5
aF6.1
aF5.5
aF4.6
aF4.1
aF6.7
asS'Dec_galaxies'
p607
(lp608
F-56.97475
aF-56.97475
aF-56.97475
aF-56.97475
aF0.11503
aF2.65366
aF2.18814
aF2.65366
aF2.65366
aF2.65366
aF-17.47889
aF73.18322
aF73.18322
aF16.14542
aF-53.01264
aF-10.33961
aF71.59894
aF71.59894
aF5.06264
aF-53.01264
aF73.84314
aF73.84314
aF-30.65583
aF-30.65583
aF-30.27489
aF-30.27489
aF-23.08678
aF-23.59161
aF2.82711
aF2.82711
aF4.80389
aF4.80389
aF4.80389
aF4.80389
aF4.80389
aF4.80389
aF0.11503
aF0.11503
aF3.95644
aF28.06994
aF3.23483
aF3.23483
aF32.36989
aF32.36989
aF32.36989
aF32.36989
aF68.26181
aF11.10771
aF11.10771
aF11.10771
aF53.16957
aF53.16957
aF32.36989
aF32.07308
aF32.07308
aF15.42285
aF57.97071
aF57.97071
aF33.12353
aF33.12353
aF32.59295
aF13.60667
aF58.07953
aF33.12353
aF2.96439
aF3.58561
aF27.95999
aF27.95999
aF27.95999
aF25.98767
aF26.90889
aF26.90889
aF28.24739
aF36.59394
aF14.28562
aF48.0496
aF32.59295
aF59.824
aF7.18591
aF53.06792
aF53.16957
aF28.17539
aF28.17539
aF28.17539
aF11.47114
aF11.47114
aF11.47114
aF13.42481
aF31.38811
aF25.1519
aF15.00728
aF15.00728
aF5.25477
aF5.25477
aF28.97514
aF28.97514
aF29.60801
aF29.60801
aF13.58968
aF13.58968
aF6.09868
aF25.87648
aF-30.27489
aF59.33194
aF17.11244
aF11.81994
aF11.81994
aF11.81994
aF59.15543
aF46.51383
aF46.51383
aF31.00278
aF31.00278
aF31.00278
aF30.80325
aF55.67411
aF-30.22803
aF-30.22803
aF25.0275
aF25.0275
aF32.5415
aF32.5415
aF-26.33783
aF0.83355
aF0.83355
aF5.04011
aF5.04011
aF7.18591
aF5.20667
aF5.21612
aF3.2663
aF3.2663
aF3.23332
aF3.26201
aF75.52892
aF58.0
aF57.78141
aF0.11503
aF2.18814
aF58.07953
aF58.07953
aF25.39215
aF-38.49256
aF-38.49256
aF-38.49256
aF5.82522
aF5.82522
aF8.53172
aF26.55884
aF26.55884
aF-33.24403
aF24.82252
aF-54.60228
aF3.20944
aF33.12353
aF33.12353
aF55.76321
aF36.61878
aF14.0082
aF45.54962
aF27.4896
aF27.4896
aF43.04586
aF43.04586
aF47.49435
aF33.12353
aF33.12353
aF60.99017
aF60.99017
aF53.16957
asS'MajDiams'
p609
(lp610
F27.04
aF27.04
aF27.04
aF27.04
aF36.35
aF31.32
aF29.62
aF31.32
aF31.32
aF31.32
aF75.31
aF29.93
aF29.93
aF33.37
aF14.52
aF41.85
aF26.84
aF26.84
aF40.35
aF14.52
aF36.98
aF36.98
aF34.6
aF34.6
aF50.56
aF50.56
aF28.11
aF28.36
aF36.88
aF36.88
aF14.65
aF14.65
aF14.65
aF14.65
aF14.65
aF14.65
aF36.35
aF36.35
aF52.84
aF35.43
aF27.71
aF27.71
aF15.54
aF15.54
aF15.54
aF15.54
aF47.65
aF33.47
aF33.47
aF33.47
aF15.79
aF15.79
aF15.54
aF31.89
aF31.89
aF34.99
aF38.62
aF38.62
aF21.53
aF21.53
aF23.54
aF33.56
aF65.61
aF21.53
aF23.87
aF18.14
aF22.3
aF22.3
aF22.3
aF37.57
aF54.66
aF54.66
aF37.87
aF46.85
aF25.3
aF55.68
aF23.54
aF51.02
aF37.63
aF25.32
aF15.79
aF15.03
aF15.03
aF15.03
aF16.12
aF16.12
aF16.12
aF34.08
aF31.92
aF45.8
aF23.54
aF23.54
aF22.53
aF22.53
aF17.31
aF17.31
aF15.37
aF15.37
aF45.02
aF45.02
aF34.2
aF44.69
aF50.56
aF71.0
aF34.73
aF22.47
aF22.47
aF22.47
aF6.883
aF9.345
aF9.345
aF26.75
aF26.75
aF26.75
aF42.59
aF25.32
aF8.37
aF8.37
aF23.45
aF23.45
aF17.4
aF17.4
aF42.39
aF36.47
aF36.47
aF33.99
aF33.99
aF37.63
aF55.81
aF41.69
aF7.061
aF7.061
aF17.41
aF46.31
aF22.5
aF30.94
aF19.2
aF36.35
aF29.62
aF65.61
aF65.61
aF48.12
aF45.23
aF45.23
aF45.23
aF47.49
aF47.49
aF32.75
aF35.54
aF35.54
aF38.65
aF40.36
aF21.89
aF26.3
aF21.53
aF21.53
aF20.75
aF28.98
aF23.13
aF31.67
aF35.67
aF35.67
aF31.94
aF31.94
aF25.56
aF21.53
aF21.53
aF39.04
aF39.04
aF15.79
asS'RA_targets'
p611
(lp612
F66.50333333333333
aF66.50333333333333
aF66.50333333333333
aF66.50333333333333
aF187.70833333333334
aF187.70833333333334
aF187.70833333333334
aF187.70833333333334
aF187.70833333333334
aF187.70833333333334
aF343.52458333333334
aF277.59708333333333
aF277.59708333333333
aF1.4970833333333333
aF70.05
aF196.3875
aF110.47291666666666
aF110.47291666666666
aF151.08375
aF69.91125
aF108.65083333333334
aF108.65083333333334
aF359.7825
aF359.7825
aF40.90708333333333
aF40.90708333333333
aF165.90708333333333
aF165.90708333333333
aF324.93416666666667
aF324.93416666666667
aF28.616666666666667
aF28.616666666666667
aF28.616666666666667
aF28.616666666666667
aF28.616666666666667
aF28.616666666666667
aF188.26708333333335
aF188.26708333333335
aF196.35125000000002
aF38.343333333333334
aF170.60041666666666
aF170.60041666666666
aF149.58708333333334
aF149.58708333333334
aF149.58708333333334
aF149.58708333333334
aF225.81875
aF187.80458333333334
aF187.80458333333334
aF187.80458333333334
aF169.41875000000002
aF169.41875000000002
aF149.81166666666667
aF149.81166666666667
aF149.81166666666667
aF198.93833333333333
aF147.16708333333335
aF147.16708333333335
aF137.1616666666667
aF137.1616666666667
aF137.1616666666667
aF344.40916666666664
aF234.54166666666666
aF137.86374999999998
aF170.30916666666667
aF170.30916666666667
aF189.01708333333332
aF189.01708333333332
aF189.01708333333332
aF189.01708333333332
aF189.01708333333332
aF189.01708333333332
aF195.25333333333333
aF198.07375000000002
aF130.49666666666667
aF188.39624999999998
aF137.27541666666667
aF150.26083333333332
aF184.16916666666665
aF171.20125
aF171.20125
aF184.31375
aF184.31375
aF184.31375
aF175.19208333333333
aF175.19208333333333
aF175.19208333333333
aF183.57375000000002
aF202.72166666666666
aF209.10666666666668
aF233.30958333333334
aF233.30958333333334
aF209.35916666666665
aF209.35916666666665
aF165.21833333333333
aF165.21833333333333
aF184.46708333333333
aF184.46708333333333
aF171.16458333333333
aF171.16458333333333
aF184.87875
aF173.74
aF41.25333333333334
aF236.08416666666665
aF144.27875
aF160.89958333333334
aF160.89958333333334
aF160.89958333333334
aF171.47375000000002
aF175.2
aF175.2
aF7.044583333333334
aF7.044583333333334
aF7.044583333333334
aF7.044583333333334
aF167.88375
aF41.70791666666666
aF41.70791666666666
aF128.89958333333334
aF128.89958333333334
aF190.54291666666668
aF190.54291666666668
aF55.58583333333333
aF5.254166666666666
aF5.254166666666666
aF205.52708333333334
aF205.52708333333334
aF184.16916666666665
aF122.16166666666668
aF122.16166666666668
aF217.41958333333335
aF217.41958333333335
aF217.41958333333335
aF217.41958333333335
aF185.43375
aF169.74125
aF169.74125
aF187.27791666666667
aF187.27791666666667
aF233.96791666666667
aF233.96791666666667
aF205.98666666666668
aF324.7079166666667
aF324.7079166666667
aF324.7079166666667
aF184.83708333333334
aF184.83708333333334
aF197.44583333333333
aF243.54458333333335
aF243.54458333333335
aF9.220416666666667
aF175.63208333333333
aF67.66666666666667
aF310.7758333333333
aF137.65416666666667
aF137.65416666666667
aF226.23166666666665
aF163.56708333333336
aF29.970833333333335
aF154.37875
aF139.36916666666667
aF139.36916666666667
aF179.12541666666667
aF179.12541666666667
aF175.67208333333332
aF137.72
aF137.72
aF256.17333333333335
aF256.17333333333335
aF168.68208333333334
asS'e_Lya_vs'
p613
(lp614
F8.0
aF1.0
aF7.0
aF1.0
aF3.0
aF1.0
aF1.0
aF8.0
aF1.0
aF1.0
aF1.0
aF1.0
aF5.0
aF3.0
aF1.0
aF1.0
aF4.0
aF1.0
aF1.0
aF1.0
aF4.0
aF1.0
aF1.0
aF10.0
aF1.0
aF2.0
aF1.0
aF1.0
aF1.0
aF6.0
aF1.0
aF9.0
aF1.0
aF1.0
aF8.0
aF1.0
aF1.0
aF1.0
aF1.0
aF1.0
aF2.0
aF1.0
aF1.0
aF1.0
aF1.0
aF1.0
aF1.0
aF2.0
aF2.0
aF2.0
aF2.0
aF5.0
aF1.0
aF1.0
aF1.0
aF1.0
aF1.0
aF1.0
aF1.0
aF6.0
aF1.0
aF1.0
aF1.0
aF1.0
aF3.0
aF3.0
aF1.0
aF1.0
aF4.0
aF1.0
aF1.0
aF1.0
aF7.0
aF4.0
aF2.0
aF1.0
aF3.0
aF1.0
aF1.0
aF1.0
aF1.0
aF1.0
aF1.0
aF1.0
aF1.0
aF1.0
aF1.0
aF1.0
aF1.0
aF1.0
aF2.0
aF5.0
aF1.0
aF1.0
aF1.0
aF4.0
aF1.0
aF1.0
aF6.0
aF1.0
aF1.0
aF1.0
aF1.0
aF1.0
aF1.0
aF1.0
aF1.0
aF1.0
aF1.0
aF1.0
aF6.0
aF1.0
aF1.0
aF1.0
aF1.0
aF1.0
aF1.0
aF1.0
aF8.0
aF1.0
aF6.0
aF7.0
aF2.0
aF6.0
aF6.0
aF7.0
aF9.0
aF1.0
aF1.0
aF1.0
aF1.0
aF1.0
aF4.0
aF1.0
aF4.0
aF1.0
aF1.0
aF1.0
aF1.0
aF1.0
aF1.0
aF1.0
aF1.0
aF11.0
aF11.0
aF1.0
aF4.0
aF1.0
aF1.0
aF1.0
aF1.0
aF1.0
aF4.0
aF5.0
aF2.0
aF1.0
aF1.0
aF5.0
aF1.0
aF1.0
aF8.0
aF1.0
aF9.0
aF1.0
aF2.0
aF3.0
aF2.0
aF1.0
aF3.0
aF3.0
asS'z_targets'
p615
(lp616
F0.104
aF0.104
aF0.104
aF0.104
aF0.117
aF0.117
aF0.117
aF0.117
aF0.117
aF0.117
aF0.06609
aF0.123
aF0.123
aF0.4509
aF1.053
aF0.2784
aF0.23149
aF0.23149
aF0.161
aF0.243
aF0.371
aF0.371
aF0.16539
aF0.16539
aF0.66929
aF0.66929
aF0.186
aF0.186
aF0.26
aF0.26
aF0.404
aF0.404
aF0.404
aF0.404
aF0.404
aF0.404
aF0.47095
aF0.47095
aF0.54566
aF0.0376
aF0.47528
aF0.47528
aF0.5306
aF0.5306
aF0.5306
aF0.5306
aF0.114
aF0.11612
aF0.11612
aF0.11612
aF0.15871
aF0.15871
aF0.56462
aF0.56462
aF0.56462
aF0.44811
aF0.49179
aF0.49179
aF0.25989
aF0.25989
aF0.25989
aF0.59455
aF0.07342
aF0.29038
aF0.152
aF0.152
aF0.20915
aF0.20915
aF0.20915
aF0.20915
aF0.20915
aF0.20915
aF1.36
aF0.184
aF1.25567
aF0.38223
aF0.81028
aF0.74749
aF0.58756
aF0.53151
aF0.53151
aF0.39566
aF0.39566
aF0.39566
aF0.68736
aF0.68736
aF0.68736
aF0.0809
aF0.24232
aF0.16404
aF0.09
aF0.09
aF1.23453
aF1.23453
aF0.24298
aF0.24298
aF0.13
aF0.13
aF0.14285
aF0.14285
aF0.08058
aF0.70994
aF0.33921
aF0.807
aF0.50567
aF0.794
aF0.794
aF0.794
aF0.85142
aF0.11439
aF0.11439
aF0.5
aF0.5
aF0.5
aF0.5
aF0.76827
aF0.53
aF0.53
aF0.331
aF0.331
aF1.49257
aF1.49257
aF0.283
aF0.0983
aF0.0983
aF0.26608
aF0.26608
aF0.58756
aF0.36061
aF0.36061
aF0.25344
aF0.25344
aF0.25344
aF0.25344
aF0.07085
aF0.0271
aF0.0271
aF0.15834
aF0.15834
aF0.02958
aF0.02958
aF0.087
aF0.18299
aF0.18299
aF0.18299
aF0.3313
aF0.3313
aF0.155
aF0.39233
aF0.39233
aF0.0206
aF0.18417
aF0.04001
aF0.271
aF0.354
aF0.354
aF0.35894
aF0.20466
aF0.50378
aF0.33544
aF0.07564
aF0.07564
aF1.01545
aF1.01545
aF0.11522
aF0.11631
aF0.11631
aF0.37194
aF0.37194
aF0.07921
asS'Lstar_sdsss'
p617
(lp618
F-99.99
aF-99.99
aF-99.99
aF-99.99
aF-99.99
aF-99.99
aF0.11
aF-99.99
aF-99.99
aF-99.99
aF-99.99
aF-99.99
aF-99.99
aF0.28
aF-99.99
aF-99.99
aF-99.99
aF-99.99
aF2.0
aF-99.99
aF-99.99
aF-99.99
aF-99.99
aF-99.99
aF-99.99
aF-99.99
aF-99.99
aF-99.99
aF-99.99
aF-99.99
aF-99.99
aF-99.99
aF-99.99
aF-99.99
aF-99.99
aF-99.99
aF-99.99
aF-99.99
aF1.1
aF-99.99
aF-99.99
aF-99.99
aF0.38
aF0.38
aF0.38
aF0.38
aF-99.99
aF0.61
aF0.61
aF0.61
aF0.055
aF0.055
aF0.38
aF1.5
aF1.5
aF1.0
aF2.4
aF2.4
aF0.46
aF0.46
aF0.73
aF-99.99
aF-99.99
aF0.46
aF0.73
aF0.45
aF0.23
aF0.23
aF0.23
aF-99.99
aF3.8
aF3.8
aF1.4
aF0.51
aF1.1
aF1.8
aF0.73
aF0.2
aF1.1
aF-99.99
aF0.055
aF-99.99
aF-99.99
aF-99.99
aF0.37
aF0.37
aF0.37
aF0.19
aF1.5
aF2.2
aF-99.99
aF-99.99
aF-99.99
aF-99.99
aF0.16
aF0.16
aF-99.99
aF-99.99
aF0.015
aF0.015
aF1.3
aF2.1
aF-99.99
aF-99.99
aF1.1
aF0.46
aF0.46
aF0.46
aF0.13
aF0.097
aF0.097
aF-99.99
aF-99.99
aF-99.99
aF-99.99
aF-99.99
aF-99.99
aF-99.99
aF0.64
aF0.64
aF0.13
aF0.13
aF-99.99
aF0.98
aF0.98
aF1.0
aF1.0
aF1.1
aF2.0
aF1.8
aF0.22
aF0.22
aF0.82
aF1.6
aF-99.99
aF1.4
aF0.38
aF-99.99
aF0.11
aF-99.99
aF-99.99
aF1.4
aF-99.99
aF-99.99
aF-99.99
aF8.0
aF8.0
aF1.6
aF2.1
aF2.1
aF-99.99
aF1.3
aF-99.99
aF-99.99
aF0.46
aF0.46
aF0.62
aF-99.99
aF1.1
aF0.04
aF2.3
aF2.3
aF1.9
aF1.9
aF0.15
aF0.46
aF0.46
aF1.1
aF1.1
aF0.055
asS'Names'
p619
(lp620
S'NGC1574'
p621
aS'NGC1574'
p622
aS'NGC1574'
p623
aS'NGC1574'
p624
aS'NGC4517'
p625
aS'NGC4527'
p626
aS'NGC4536'
p627
aS'NGC4527'
p628
aS'NGC4527'
p629
aS'NGC4527'
p630
aS'MCG-03-58-009'
p631
aS'NGC6654'
p632
aS'NGC6654'
p633
aS'NGC7814'
p634
aS'ESO157-G049'
p635
aS'NGC4939'
p636
aS'UGC03804'
p637
aS'UGC03804'
p638
aS'UGC05432'
p639
aS'ESO157-G049'
p640
aS'UGC03717'
p641
aS'UGC03717'
p642
aS'MCG-05-01-020'
p643
aS'MCG-05-01-020'
p644
aS'NGC1097'
p645
aS'NGC1097'
p646
aS'NGC3511'
p647
aS'MCG-04-26-019'
p648
aS'UGC11785'
p649
aS'UGC11785'
p650
aS'IC1746'
p651
aS'IC1746'
p652
aS'IC1746'
p653
aS'IC1746'
p654
aS'IC1746'
p655
aS'IC1746'
p656
aS'NGC4517'
p657
aS'NGC4517'
p658
aS'UGC08186'
p659
aS'NGC0962'
p660
aS'NGC3640'
p661
aS'NGC3640'
p662
aS'NGC3067'
p663
aS'NGC3067'
p664
aS'NGC3067'
p665
aS'NGC3067'
p666
aS'MCG+11-18-020'
p667
aS'NGC4429'
p668
aS'NGC4429'
p669
aS'NGC4429'
p670
aS'NGC3631'
p671
aS'NGC3631'
p672
aS'NGC3067'
p673
aS'MCG+05-24-007'
p674
aS'MCG+05-24-007'
p675
aS'PGC046123'
p676
aS'MRK0021'
p677
aS'MRK0021'
p678
aS'NGC2770'
p679
aS'NGC2770'
p680
aS'IC2439'
p681
aS'UGC12281'
p682
aS'NGC5987'
p683
aS'NGC2770'
p684
aS'NGC3630'
p685
aS'NGC3633'
p686
aS'NGC4559'
p687
aS'NGC4559'
p688
aS'NGC4559'
p689
aS'NGC4565'
p690
aS'NGC4556'
p691
aS'NGC4556'
p692
aS'NGC4881'
p693
aS'NGC5033'
p694
aS'NGC2648'
p695
aS'UGC07708'
p696
aS'IC2439'
p697
aS'MCG+10-14-058'
p698
aS'NGC4246'
p699
aS'NGC3718'
p700
aS'NGC3631'
p701
aS'NGC4251'
p702
aS'NGC4251'
p703
aS'NGC4251'
p704
aS'NGC3810'
p705
aS'NGC3810'
p706
aS'NGC3810'
p707
aS'NGC4189'
p708
aS'UGC08492'
p709
aS'IC4349'
p710
aS'NGC5951'
p711
aS'NGC5951'
p712
aS'NGC5363'
p713
aS'NGC5363'
p714
aS'NGC3486'
p715
aS'NGC3486'
p716
aS'NGC4245'
p717
aS'NGC4245'
p718
aS'NGC3628'
p719
aS'NGC3628'
p720
aS'NGC4260'
p721
aS'IC0710'
p722
aS'NGC1097'
p723
aS'NGC5985'
p724
aS'PGC027405'
p725
aS'NGC3368'
p726
aS'NGC3368'
p727
aS'NGC3368'
p728
aS'IC0691'
p729
aS'NGC3782'
p730
aS'NGC3782'
p731
aS'PGC001782'
p732
aS'PGC001782'
p733
aS'PGC001782'
p734
aS'UGC00279'
p735
aS'NGC3556'
p736
aS'NGC1097A'
p737
aS'NGC1097A'
p738
aS'NGC2611'
p739
aS'NGC2611'
p740
aS'NGC4631'
p741
aS'NGC4631'
p742
aS'NGC1398'
p743
aS'NGC0078B'
p744
aS'NGC0078B'
p745
aS'PGC048445'
p746
aS'PGC048445'
p747
aS'NGC4246'
p748
aS'UGC04239'
p749
aS'PGC022840'
p750
aS'NGC5636'
p751
aS'NGC5636'
p752
aS'NGC5638'
p753
aS'UGC09277'
p754
aS'NGC4386'
p755
aS'NGC3613'
p756
aS'NGC3625'
p757
aS'NGC4517'
p758
aS'NGC4536'
p759
aS'NGC5987'
p760
aS'NGC5987'
p761
aS'IC4322'
p762
aS'ESO343-G014'
p763
aS'ESO343-G014'
p764
aS'ESO343-G014'
p765
aS'NGC4261'
p766
aS'NGC4261'
p767
aS'PGC045601'
p768
aS'NGC6096'
p769
aS'NGC6096'
p770
aS'NGC0134'
p771
aS'UGC06674'
p772
aS'NGC1617'
p773
aS'NGC6954'
p774
aS'NGC2770'
p775
aS'NGC2770'
p776
aS'NGC5866'
p777
aS'NGC3432'
p778
aS'NGC0774'
p779
aS'NGC3198'
p780
aS'UGC04895'
p781
aS'UGC04895'
p782
aS'UGC06901'
p783
aS'UGC06901'
p784
aS'NGC3877'
p785
aS'NGC2770'
p786
aS'NGC2770'
p787
aS'NGC6310'
p788
aS'NGC6310'
p789
aS'NGC3631'
p790
asS'l_cuss'
p791
(lp792
F0.1295854518205662
aF0.11274634073145963
aF0.07771245364845333
aF0.038475263301534945
aF0.37769820870120324
aF0.0018603795338843314
aF0.003053273177365733
aF0.007465597868870998
aF0.00790251068637981
aF0.005610868483159152
aF0.7443862922690794
aF0.021652232205333362
aF0.07430725215147414
aF0.11731216625286803
aF0.054241827369395416
aF0.024278684523473256
aF0.1274410116579993
aF0.09923875405506993
aF0.13659560930479953
aF0.1598573926146243
aF0.14262179117988127
aF0.17083468074968527
aF0.24724568483227613
aF0.25666776815938336
aF0.737260146418847
aF0.7593902511316547
aF0.601411896928824
aF0.2152564492328844
aF0.7753599145266621
aF0.5835483599541823
aF0.13499683208451052
aF0.4903778969443361
aF0.9447084034720139
aF0.6711893662421229
aF0.46277978385794444
aF0.27261248341946026
aF0.7796065317571103
aF0.7561685839346431
aF0.6355144463081173
aF0.30800589857689015
aF0.09596714453886694
aF0.4392773052589166
aF0.9667587396805518
aF0.8629648590384399
aF0.9411231201477656
aF0.4904625722121118
aF0.3520625674848771
aF0.007008765083009362
aF0.026553498798121116
aF0.012618468824574049
aF0.20627270553517188
aF0.16070961558822927
aF0.013013958963821853
aF0.158116638153008
aF0.30862686075893503
aF0.5284462902567721
aF0.8077350985143265
aF0.7202577660864078
aF0.015042523070363998
aF0.014967123990778965
aF0.049242234309259524
aF0.22964269346810315
aF0.10267039275690415
aF0.002991062785368906
aF0.005942261087603108
aF0.003838374415492265
aF0.0949493672272285
aF0.034379785916676675
aF0.0038020628433831846
aF0.655304364557925
aF0.008543238034894825
aF0.05243320621074266
aF0.0018137181842395186
aF0.1774917372621504
aF0.28407594400843333
aF0.6818090782060168
aF0.40481850005936054
aF0.6385072871717042
aF0.1275688742642566
aF0.0010158859885666296
aF0.1493568788654607
aF0.04682437332700681
aF0.033462615649770426
aF0.00885010094297991
aF0.6136622854727429
aF0.6692915421508484
aF0.6701119266729122
aF0.03846612260965179
aF0.060644446292341544
aF0.15149905539488226
aF0.7889206716407058
aF0.37542764874931245
aF0.008853209700278723
aF0.018444294311802896
aF0.2888736930172505
aF0.3205343811850855
aF0.003506868251582988
aF0.0018337231407231681
aF0.06431062159897022
aF0.035365076928788264
aF0.003362999602782306
aF0.33354365358844634
aF0.9116995442138651
aF0.019157175594628498
aF0.0464751751612597
aF0.0701521049561613
aF0.15681093007548463
aF0.10133590721878788
aF0.0018548172952879307
aF0.002777546181517075
aF0.0017639275219353742
aF0.008522086785955132
aF0.005759128946926418
aF0.0019835461720696264
aF0.10666903388031326
aF0.21084213343680946
aF0.013068364723718057
aF0.018040052106746213
aF0.7446416638145728
aF0.78808276376347
aF0.8807495207577706
aF0.6736079553730341
aF0.009659911628861949
aF0.46309748521570776
aF0.059282406944756054
aF0.0519952598340639
aF0.046747115691324684
aF0.1275688742642566
aF0.43218683334035396
aF0.030329044744165614
aF0.0011516431408347082
aF0.003084731873773721
aF0.16668501524963067
aF0.004536616686235577
aF0.004043366672313407
aF0.019284588789902177
aF0.0010311912457527275
aF0.046450662751090145
aF0.0025302449034422273
aF0.4109959824786632
aF0.20440093638467177
aF0.0596996836428587
aF0.05637276013009144
aF0.03604564548377882
aF0.015108931596556852
aF0.01433778486902463
aF0.008858685153505892
aF0.002104213824746506
aF0.07821326851628879
aF0.061672572819758346
aF0.040818506479764746
aF0.05072511772504136
aF0.004258515809318765
aF0.006937002673479656
aF0.006192574423353538
aF0.008266001525280398
aF0.007614448250100133
aF0.02589311489297857
aF0.00416928775084983
aF0.013100201829098065
aF0.022433217053360176
aF0.008449588691415323
aF0.004875417899913626
aF0.005235727608308113
aF0.0014222743938390357
aF0.0022779612381575837
aF0.0032605824633099544
aF0.027327144920331194
aF0.012961786486552792
aF0.0048807141443616775
as.