(dp0
S'Vhels'
p1
(lp2
F1041.0
aF1041.0
aF1041.0
aF1041.0
aF1128.0
aF1128.0
aF1808.0
aF1808.0
aF9030.0
aF1821.0
aF1821.0
aF1050.0
aF1678.0
aF3110.0
aF2887.0
aF2887.0
aF3995.0
aF1678.0
aF4188.0
aF4188.0
aF8961.0
aF8961.0
aF1271.0
aF1271.0
aF1109.0
aF3623.0
aF4074.0
aF4074.0
aF5199.0
aF5199.0
aF5199.0
aF5199.0
aF5199.0
aF5199.0
aF1128.0
aF1128.0
aF7006.0
aF4608.0
aF1298.0
aF1298.0
aF1476.0
aF1476.0
aF1476.0
aF1476.0
aF9765.0
aF1104.0
aF1104.0
aF1156.0
aF1156.0
aF1476.0
aF8048.0
aF8048.0
aF8026.0
aF8433.0
aF8433.0
aF1947.0
aF1947.0
aF4299.0
aF2568.0
aF3010.0
aF1298.0
aF807.0
aF807.0
aF1230.0
aF1230.0
aF6683.0
aF7312.0
aF7491.0
aF6012.0
aF875.0
aF2060.0
aF9138.0
aF4299.0
aF9540.0
aF1639.0
aF3720.0
aF1156.0
aF1156.0
aF1066.0
aF1066.0
aF992.0
aF992.0
aF992.0
aF2115.0
aF7414.0
aF9267.0
aF9267.0
aF1780.0
aF1780.0
aF1241.0
aF1139.0
aF681.0
aF681.0
aF930.0
aF930.0
aF843.0
aF843.0
aF9482.0
aF1271.0
aF2517.0
aF8294.0
aF897.0
aF897.0
aF897.0
aF866.0
aF6298.0
aF6298.0
aF6298.0
aF6298.0
aF699.0
aF1368.0
aF1368.0
aF5256.0
aF5256.0
aF606.0
aF606.0
aF1396.0
aF5527.0
aF5527.0
aF7048.0
aF7048.0
aF3720.0
aF8763.0
aF9251.0
aF9251.0
aF1676.0
aF1476.0
aF2051.0
aF1128.0
aF1736.0
aF3010.0
aF3010.0
aF8145.0
aF9162.0
aF9162.0
aF9162.0
aF2212.0
aF9855.0
aF9855.0
aF1582.0
aF6300.0
aF667.0
aF616.0
aF660.0
aF7073.0
aF3419.0
aF3419.0
asS'impacts'
p3
(lp4
F199.57
aF199.57
aF199.57
aF199.57
aF209.758
aF209.758
aF337.658
aF337.658
aF355.071
aF233.701
aF233.701
aF197.612
aF94.112
aF253.817
aF199.343
aF199.343
aF339.599
aF74.818
aF286.46
aF286.46
aF237.29
aF237.29
aF175.098
aF175.098
aF91.296
aF181.977
aF112.521
aF112.521
aF13.326
aF13.326
aF13.326
aF13.326
aF13.326
aF13.326
aF109.33
aF109.33
aF248.657
aF223.189
aF129.954
aF129.954
aF10.921
aF10.921
aF10.921
aF10.921
aF325.438
aF364.553
aF364.553
aF78.441
aF78.441
aF127.54
aF169.322
aF169.322
aF165.293
aF94.77
aF94.77
aF204.033
aF204.033
aF198.064
aF235.423
aF432.833
aF78.05
aF161.439
aF161.439
aF147.139
aF147.139
aF365.609
aF366.291
aF433.857
aF159.506
aF415.138
aF142.71
aF245.372
aF108.586
aF206.986
aF83.635
aF298.168
aF86.391
aF86.391
aF101.551
aF101.551
aF40.206
aF40.206
aF40.206
aF358.995
aF301.651
aF424.884
aF424.884
aF54.948
aF54.948
aF164.488
aF213.543
aF76.654
aF76.654
aF145.178
aF145.178
aF394.272
aF394.272
aF295.07
aF89.387
aF421.114
aF311.204
aF144.76
aF144.76
aF144.76
aF369.007
aF376.492
aF376.492
aF376.492
aF376.492
aF17.583
aF48.507
aF48.507
aF55.312
aF55.312
aF22.731
aF22.731
aF304.501
aF189.13
aF189.13
aF340.596
aF340.596
aF298.168
aF378.303
aF248.907
aF248.907
aF52.119
aF4.408
aF37.636
aF362.687
aF330.608
aF463.169
aF463.169
aF488.059
aF465.601
aF465.601
aF465.601
aF451.577
aF331.992
aF331.992
aF428.603
aF387.512
aF413.338
aF290.383
aF370.055
aF408.765
aF459.835
aF459.835
asS'group_dists'
p5
(lp6
F12.3
aF12.3
aF12.3
aF12.3
aF8.6
aF8.6
aF21.0
aF21.0
aF89.0
aF17.5
aF17.5
aF7.0
aF16.9
aF35.7
aF30.7
aF30.7
aF43.5
aF16.9
aF42.4
aF42.4
aF88.1
aF88.1
aF11.9
aF11.9
aF15.2
aF40.4
aF37.7
aF37.7
aF49.8
aF49.8
aF49.8
aF49.8
aF49.8
aF49.8
aF8.6
aF8.6
aF74.7
aF44.2
aF19.4
aF19.4
aF17.3
aF17.3
aF17.3
aF17.3
aF100.5
aF14.9
aF14.9
aF10.5
aF10.5
aF17.3
aF85.6
aF85.6
aF85.0
aF89.4
aF89.4
aF21.9
aF21.9
aF45.6
aF22.1
aF28.5
aF19.4
aF14.2
aF14.2
aF14.2
aF14.2
aF76.7
aF76.7
aF76.7
aF73.3
aF11.8
aF23.5
aF96.4
aF45.6
aF99.2
aF13.9
aF42.0
aF10.5
aF10.5
aF11.1
aF11.1
aF13.4
aF13.4
aF13.4
aF25.3
aF77.2
aF93.8
aF93.8
aF20.5
aF20.5
aF15.6
aF15.6
aF10.0
aF10.0
aF11.1
aF11.1
aF20.3
aF20.3
aF104.4
aF11.9
aF28.5
aF90.1
aF13.2
aF13.2
aF13.2
aF10.5
aF61.4
aF61.4
aF61.4
aF61.4
aF8.7
aF11.9
aF11.9
aF55.6
aF55.6
aF9.0
aF9.0
aF15.0
aF50.5
aF50.5
aF73.4
aF73.4
aF42.0
aF95.4
aF95.4
aF95.4
aF18.4
aF16.6
aF19.8
aF8.6
aF21.0
aF28.5
aF28.5
aF85.6
aF92.4
aF92.4
aF92.4
aF25.7
aF100.5
aF100.5
aF13.6
aF67.2
aF7.7
aF8.9
aF8.9
aF74.8
aF34.1
aF34.1
asS'MTypes'
p7
(lp8
S'SA0^-'
p9
aS'SA0^-'
p10
aS'SA0^-'
p11
aS'SA0^-'
p12
aS'SA(s)cd:_sp_HII'
p13
aS'SA(s)cd:_sp_HII'
p14
aS'SAB(rs)bc;HII_Sbrst'
p15
aS'SAB(rs)bc;HII_Sbrst'
p16
aS'Sc'
p17
aS"(R')SB(s)0/a"
p18
aS"(R')SB(s)0/a"
p19
aS'SA(s)ab:_sp_LINER'
p20
aS'S?'
p21
aS'SA(s)bc_Sy2'
p22
aS'Scd:'
p23
aS'Scd:'
p24
aS'E:'
p25
aS'S?'
p26
aS'Sbc'
p27
aS'Sbc'
p28
aS'E'
p29
ag29
aS"(R'_1:)SB(r'l)bSy1"
p30
aS"(R'_1:)SB(r'l)bSy1"
p31
aS'SAB(s)c;HII_Sy1'
p32
aS'(R:)SA:(s)ab_HII'
p33
aS'Sd'
p34
aS'Sd'
p35
aS'S0'
p36
aS'S0'
p37
aS'S0'
p38
aS'S0'
p39
aS'S0'
p40
aS'S0'
p41
aS'SA(s)cd:_sp_HII'
p42
aS'SA(s)cd:_sp_HII'
p43
aS'Scd(f)'
p44
ag29
aS'E3'
p45
aS'E3'
p46
aS'SAB(s)ab?_HII'
p47
aS'SAB(s)ab?_HII'
p48
aS'SAB(s)ab?_HII'
p49
aS'SAB(s)ab?_HII'
p50
aS'x'
p51
aS'SA(r)0+;LINER_HII'
p52
aS'SA(r)0+;LINER_HII'
p53
aS'SA(s)c'
p54
aS'SA(s)c'
p55
aS'SAB(s)ab?_HII'
p56
aS'(R)SABbc(r)'
p57
aS'(R)SABbc(r)'
p58
aS'Sa'
p59
aS'SBbc_Sbrst'
p60
aS'SBbc_Sbrst'
p61
aS'SA(s)c:'
p62
aS'SA(s)c:'
p63
aS'S0?'
p64
aS'Sd'
p65
aS'Sb'
p66
aS'E3'
p67
aS'SAB(rs)cd_HII'
p68
aS'SAB(rs)cd_HII'
p69
aS'SA(s)b?_sp_Sy3_Sy1.9'
p70
aS'SA(s)b?_sp_Sy3_Sy1.9'
p71
ag29
aS'SA(s)0^0^:'
p72
aS'E+:'
p73
aS'S0-_pec:'
p74
aS'SA(s)c;HII_Sy1'
p75
aS'S(s)b_RET'
p76
aS'Sb'
p77
aS'S0?'
p78
ag51
aS'SB(rs)b?_HII'
p79
aS'SA(s)c'
p80
aS'SA(s)c'
p81
aS'SA(s)c'
p82
aS'SB0?_sp'
p83
aS'SB0?_sp'
p84
aS'SA(rs)c_HII'
p85
aS'SA(rs)c_HII'
p86
aS'SA(rs)c_HII'
p87
aS'SAB(rs)cd?_HII'
p88
aS'S0'
p89
ag51
ag51
aS'SBc:_sp'
p90
aS'SBc:_sp'
p91
aS'SA(rs)bc_pec_HII'
p92
aS'I0?_LINER'
p93
aS'SAB(r)c;HII_Sy2'
p94
aS'SAB(r)c;HII_Sy2'
p95
aS'(R)SB(r)ab_LINER'
p96
aS'(R)SB(r)ab_LINER'
p97
aS'SAb_pec_sp;HII_LINER'
p98
aS'SAb_pec_sp;HII_LINER'
p99
ag51
aS"(R'_1:)SB(r'l)bSy1"
p100
aS'SAB(r)b;LINER_Sy1'
p101
ag51
aS'SAB(rs)ab;Sy_LINER'
p102
aS'SAB(rs)ab;Sy_LINER'
p103
aS'SAB(rs)ab;Sy_LINER'
p104
aS'SAB(r)c_HII'
p105
aS'SB?'
p106
aS'SB?'
p107
aS'SB?'
p108
aS'SB?'
p109
aS'SB(s)cd_HII'
p110
aS'E_pec:'
p111
aS'E_pec:'
p112
aS'SB:(rs)a'
p113
aS'SB:(rs)a'
p114
aS'SB(s)d_HII'
p115
aS'SB(s)d_HII'
p116
aS"(R_1R'_2)SB(rs)ab;Sy"
p117
aS'S0^0^_pec?'
p118
aS'S0^0^_pec?'
p119
aS'Sb(f)'
p120
aS'Sb(f)'
p121
aS'SA(s)c'
p122
aS'S'
p123
aS'S0/a'
p124
aS'S0/a'
p125
aS'E1'
p126
aS'SB(r)ab_AGN'
p127
aS'E6'
p128
aS'SA(s)cd:_sp_HII'
p129
aS'SAB(s)bc;HII_LINER'
p130
aS'Sb'
p131
aS'Sb'
p132
aS'EL'
p133
aS'Sb'
p134
aS'Sb'
p135
aS'Sb'
p136
aS'E2-3;LINER_Sy3'
p137
aS'S?'
p138
aS'S?'
p139
aS'SAB(s)bc_HII'
p140
aS'Scd:'
p141
aS'SA(s)c:_sp_HII:'
p142
aS'SB(s)m;LINER_HII'
p143
aS'SB(rs)c_HII'
p144
aS'Sb'
p145
aS'Sb:_sp'
p146
aS'Sb:_sp'
p147
asS'e_Lya_Ws'
p148
(lp149
F2.0
aF1.0
aF1.0
aF2.0
aF2.0
aF3.0
aF2.0
aF3.0
aF4.0
aF10.0
aF19.0
aF20.0
aF9.0
aF6.0
aF6.0
aF4.0
aF10.0
aF10.0
aF10.0
aF10.0
aF11.0
aF10.0
aF12.0
aF15.0
aF21.0
aF11.0
aF7.0
aF7.0
aF15.0
aF10.0
aF9.0
aF4.0
aF4.0
aF6.0
aF13.0
aF10.0
aF14.0
aF14.0
aF29.0
aF25.0
aF76.0
aF42.0
aF15.0
aF47.0
aF11.0
aF20.0
aF16.0
aF19.0
aF14.0
aF23.0
aF16.0
aF16.0
aF22.0
aF14.0
aF6.0
aF17.0
aF23.0
aF27.0
aF21.0
aF29.0
aF69.0
aF34.0
aF29.0
aF22.0
aF19.0
aF11.0
aF13.0
aF9.0
aF8.0
aF13.0
aF15.0
aF9.0
aF14.0
aF11.0
aF17.0
aF22.0
aF20.0
aF25.0
aF26.0
aF24.0
aF44.0
aF28.0
aF28.0
aF10.0
aF14.0
aF15.0
aF14.0
aF31.0
aF19.0
aF11.0
aF11.0
aF20.0
aF21.0
aF10.0
aF8.0
aF33.0
aF27.0
aF21.0
aF25.0
aF136.0
aF20.0
aF26.0
aF14.0
aF15.0
aF51.0
aF8.0
aF7.0
aF8.0
aF9.0
aF38.0
aF12.0
aF13.0
aF15.0
aF3.0
aF24.0
aF25.0
aF40.0
aF38.0
aF53.0
aF16.0
aF11.0
aF22.0
aF20.0
aF17.0
aF13.0
aF13.0
aF22.0
aF12.0
aF3.0
aF2.0
aF6.0
aF5.0
aF8.0
aF4.0
aF3.0
aF5.0
aF38.0
aF7.0
aF5.0
aF19.0
aF14.0
aF25.0
aF39.0
aF20.0
aF25.0
aF15.0
aF13.0
asS'e_Lstar_sdsss'
p150
(lp151
F-99.99
aF-99.99
aF-99.99
aF-99.99
aF-99.99
aF-99.99
aF0.093
aF0.093
aF-99.99
aF-99.99
aF-99.99
aF0.38
aF-99.99
aF-99.99
aF-99.99
aF-99.99
aF1.8
aF-99.99
aF-99.99
aF-99.99
aF-99.99
aF-99.99
aF-99.99
aF-99.99
aF-99.99
aF-99.99
aF-99.99
aF-99.99
aF-99.99
aF-99.99
aF-99.99
aF-99.99
aF-99.99
aF-99.99
aF-99.99
aF-99.99
aF0.41
aF-99.99
aF-99.99
aF-99.99
aF0.23
aF0.23
aF0.23
aF0.23
aF-99.99
aF0.71
aF0.71
aF0.19
aF0.19
aF0.23
aF0.71
aF0.71
aF0.47
aF1.1
aF1.1
aF0.31
aF0.31
aF0.34
aF-99.99
aF-99.99
aF-99.99
aF0.4
aF0.4
aF-99.99
aF-99.99
aF2.1
aF0.49
aF0.8
aF1.0
aF0.9
aF0.032
aF0.85
aF0.34
aF0.09
aF-99.99
aF1.2
aF0.19
aF0.19
aF-99.99
aF-99.99
aF0.36
aF0.36
aF0.36
aF0.18
aF0.97
aF1.0
aF1.0
aF-99.99
aF-99.99
aF-99.99
aF-99.99
aF0.21
aF0.21
aF-99.99
aF-99.99
aF0.017
aF0.017
aF0.97
aF-99.99
aF-99.99
aF0.52
aF0.32
aF0.32
aF0.32
aF0.014
aF-99.99
aF-99.99
aF-99.99
aF-99.99
aF-99.99
aF-99.99
aF-99.99
aF0.29
aF0.29
aF0.21
aF0.21
aF-99.99
aF0.45
aF0.45
aF0.47
aF0.47
aF1.2
aF0.92
aF1.6
aF1.6
aF0.6
aF-99.99
aF0.99
aF-99.99
aF-99.99
aF-99.99
aF-99.99
aF1.2
aF-99.99
aF-99.99
aF-99.99
aF4.7
aF0.98
aF0.98
aF-99.99
aF0.61
aF0.45
aF-99.99
aF0.033
aF0.7
aF1.0
aF1.0
asS'Bmag_sdsss'
p152
(lp153
F-99.99
aF-99.99
aF-99.99
aF-99.99
aF-99.99
aF-99.99
aF13.8
aF13.8
aF-99.99
aF-99.99
aF-99.99
aF13.1
aF-99.99
aF-99.99
aF-99.99
aF-99.99
aF14.5
aF-99.99
aF-99.99
aF-99.99
aF-99.99
aF-99.99
aF-99.99
aF-99.99
aF-99.99
aF-99.99
aF-99.99
aF-99.99
aF-99.99
aF-99.99
aF-99.99
aF-99.99
aF-99.99
aF-99.99
aF-99.99
aF-99.99
aF15.4
aF-99.99
aF-99.99
aF-99.99
aF13.1
aF13.1
aF13.1
aF13.1
aF-99.99
aF12.0
aF12.0
aF13.3
aF13.3
aF13.1
aF15.3
aF15.3
aF15.8
aF14.9
aF14.9
aF13.7
aF13.7
aF14.8
aF-99.99
aF-99.99
aF-99.99
aF11.4
aF11.4
aF-99.99
aF-99.99
aF13.6
aF15.2
aF14.2
aF14.9
aF12.4
aF13.1
aF15.4
aF14.8
aF17.9
aF-99.99
aF14.0
aF13.3
aF13.3
aF-99.99
aF-99.99
aF12.5
aF12.5
aF12.5
aF14.8
aF15.0
aF15.3
aF15.3
aF-99.99
aF-99.99
aF-99.99
aF-99.99
aF12.9
aF12.9
aF-99.99
aF-99.99
aF15.0
aF15.0
aF15.4
aF-99.99
aF-99.99
aF15.8
aF11.5
aF11.5
aF11.5
aF15.9
aF-99.99
aF-99.99
aF-99.99
aF-99.99
aF-99.99
aF-99.99
aF-99.99
aF15.4
aF15.4
aF10.9
aF10.9
aF-99.99
aF14.9
aF14.9
aF15.6
aF15.6
aF14.0
aF15.3
aF15.7
aF15.7
aF12.6
aF-99.99
aF12.4
aF-99.99
aF-99.99
aF-99.99
aF-99.99
aF15.3
aF-99.99
aF-99.99
aF-99.99
aF10.7
aF15.5
aF15.5
aF-99.99
aF15.0
aF12.1
aF-99.99
aF14.6
aF14.8
aF14.1
aF14.1
asS'Nas'
p154
(lp155
F117000000000000.0
aF162000000000000.0
aF87900000000000.0
aF20200000000000.0
aF1750000000000.0
aF39900000000000.0
aF154000000000000.0
aF16000000000000.0
aF12200000000000.0
aF15000000000000.0
aF13300000000000.0
aF50400000000000.0
aF209000000000000.0
aF15000000000000.0
aF94300000000000.0
aF6620000000000.0
aF53100000000000.0
aF221000000000000.0
aF16900000000000.0
aF172000000000000.0
aF184000000000000.0
aF268000000000000.0
aF17400000000000.0
aF48700000000000.0
aF279000000000000.0
aF279000000000000.0
aF271000000000000.0
aF296000000000000.0
aF38600000000000.0
aF23300000000000.0
aF602000000000000.0
aF164000000000000.0
aF142000000000000.0
aF194000000000000.0
aF182000000000000.0
aF27500000000000.0
aF183000000000000.0
aF114000000000000.0
aF95900000000000.0
aF151000000000000.0
aF1970000000000000.0
aF1130000000000000.0
aF455000000000000.0
aF822000000000000.0
aF13100000000000.0
aF46400000000000.0
aF235000000000000.0
aF129000000000000.0
aF13800000000000.0
aF290000000000000.0
aF119000000000000.0
aF22000000000000.0
aF181000000000000.0
aF534000000000000.0
aF214000000000000.0
aF66500000000000.0
aF62900000000000.0
aF111000000000000.0
aF45900000000000.0
aF92600000000000.0
aF57100000000000.0
aF90800000000000.0
aF107000000000000.0
aF101000000000000.0
aF30400000000000.0
aF8510000000000.0
aF138000000000000.0
aF10700000000000.0
aF10700000000000.0
aF234000000000000.0
aF97700000000000.0
aF23700000000000.0
aF124000000000000.0
aF15100000000000.0
aF290000000000000.0
aF25000000000000.0
aF15100000000000.0
aF41800000000000.0
aF235000000000000.0
aF238000000000000.0
aF74500000000000.0
aF106000000000000.0
aF71900000000000.0
aF26600000000000.0
aF110000000000000.0
aF89700000000000.0
aF26400000000000.0
aF185000000000000.0
aF36300000000000.0
aF180000000000000.0
aF18400000000000.0
aF150000000000000.0
aF195000000000000.0
aF190000000000000.0
aF109000000000000.0
aF143000000000000.0
aF110000000000000.0
aF279000000000000.0
aF248000000000000.0
aF4120000000000000.0
aF36400000000000.0
aF391000000000000.0
aF313000000000000.0
aF136000000000000.0
aF176000000000000.0
aF164000000000000.0
aF202000000000000.0
aF268000000000000.0
aF27800000000000.0
aF62500000000000.0
aF216000000000000.0
aF233000000000000.0
aF399000000000000.0
aF322000000000000.0
aF265000000000000.0
aF252000000000000.0
aF77300000000000.0
aF70700000000000.0
aF131000000000000.0
aF290000000000000.0
aF163000000000000.0
aF25000000000000.0
aF396000000000000.0
aF34000000000000.0
aF13900000000000.0
aF9100000000000.0
aF288000000000000.0
aF187000000000000.0
aF136000000000000.0
aF143000000000000.0
aF203000000000000.0
aF111000000000000.0
aF84000000000000.0
aF14100000000000.0
aF125000000000000.0
aF47200000000000.0
aF1390000000000000.0
aF55900000000000.0
aF16000000000000.0
aF98900000000000.0
aF67600000000000.0
aF97900000000000.0
aF44300000000000.0
aF14600000000000.0
aF94000000000000.0
aF32500000000000.0
aF49600000000000.0
asS'Lya_Ws'
p156
(lp157
F249.0
aF269.0
aF240.0
aF91.0
aF9.0
aF160.0
aF303.0
aF78.0
aF62.0
aF73.0
aF70.0
aF212.0
aF501.0
aF72.0
aF349.0
aF33.0
aF217.0
aF517.0
aF84.0
aF420.0
aF357.0
aF482.0
aF77.0
aF178.0
aF635.0
aF563.0
aF490.0
aF530.0
aF162.0
aF93.0
aF927.0
aF226.0
aF210.0
aF342.0
aF388.0
aF100.0
aF462.0
aF313.0
aF295.0
aF423.0
aF3822.0
aF2092.0
aF700.0
aF1635.0
aF61.0
aF176.0
aF525.0
aF374.0
aF62.0
aF623.0
aF315.0
aF97.0
aF440.0
aF904.0
aF371.0
aF202.0
aF230.0
aF367.0
aF180.0
aF349.0
aF227.0
aF317.0
aF365.0
aF305.0
aF122.0
aF42.0
aF429.0
aF51.0
aF50.0
aF503.0
aF300.0
aF102.0
aF333.0
aF72.0
aF617.0
aF106.0
aF71.0
aF165.0
aF528.0
aF565.0
aF252.0
aF275.0
aF209.0
aF127.0
aF334.0
aF271.0
aF116.0
aF507.0
aF137.0
aF348.0
aF83.0
aF360.0
aF406.0
aF456.0
aF305.0
aF345.0
aF272.0
aF636.0
aF563.0
aF8660.0
aF155.0
aF823.0
aF621.0
aF391.0
aF506.0
aF399.0
aF430.0
aF504.0
aF116.0
aF198.0
aF417.0
aF455.0
aF681.0
aF416.0
aF586.0
aF585.0
aF268.0
aF277.0
aF540.0
aF563.0
aF351.0
aF106.0
aF783.0
aF128.0
aF61.0
aF39.0
aF653.0
aF489.0
aF382.0
aF369.0
aF520.0
aF319.0
aF295.0
aF63.0
aF306.0
aF161.0
aF2560.0
aF205.0
aF71.0
aF391.0
aF257.0
aF301.0
aF184.0
aF71.0
aF384.0
aF147.0
aF195.0
asS'bestDists'
p158
(lp159
F19.3
aF19.3
aF19.3
aF19.3
aF9.7
aF9.7
aF14.9
aF14.9
aF142.0
aF29.5
aF29.5
aF17.2
aF23.9
aF37.5
aF43.7
aF43.7
aF93.3
aF23.9
aF53.3
aF53.3
aF122.21
aF122.21
aF16.0
aF16.0
aF12.8
aF50.3
aF68.9
aF68.9
aF49.7
aF49.7
aF49.7
aF49.7
aF49.7
aF49.7
aF9.7
aF9.7
aF99.8
aF62.24
aF22.7
aF22.7
aF20.4
aF20.4
aF20.4
aF20.4
aF139.6
aF15.8
aF15.8
aF8.56
aF8.56
aF20.4
aF116.63
aF116.63
aF117.17
aF121.25
aF121.25
aF29.2
aF29.2
aF63.3
aF34.6
aF46.6
aF22.7
aF7.3
aF7.3
aF11.9
aF11.9
aF110.0
aF110.0
aF110.0
aF82.0
aF17.5
aF34.2
aF132.15
aF63.3
aF136.84
aF19.7
aF53.2
aF8.56
aF8.56
aF14.7
aF14.7
aF15.2
aF15.2
aF15.2
aF32.1
aF97.4
aF134.37
aF134.37
aF27.1
aF27.1
aF18.1
aF16.6
aF12.3
aF12.3
aF12.6
aF12.6
aF9.7
aF9.7
aF137.56
aF16.0
aF39.2
aF120.0
aF10.7
aF10.7
aF10.7
aF14.7
aF82.8
aF82.8
aF82.8
aF82.8
aF8.67
aF15.86
aF15.86
aF76.41
aF76.41
aF4.33
aF4.33
aF18.2
aF73.74
aF73.74
aF103.23
aF103.23
aF53.2
aF125.25
aF147.0
aF147.0
aF24.1
aF21.0
aF29.1
aF9.7
aF13.6
aF46.6
aF46.6
aF108.0
aF126.07
aF126.07
aF126.07
aF31.6
aF141.23
aF141.23
aF17.6
aF92.79
aF14.9
aF11.3
aF13.7
aF109.0
aF56.2
aF56.2
asS'adjustedIncs'
p160
(lp161
F25.0
aF25.0
aF25.0
aF25.0
aF90.0
aF90.0
aF61.0
aF61.0
aF49.0
aF64.0
aF64.0
aF62.0
aF83.0
aF48.0
aF55.0
aF55.0
aF36.0
aF83.0
aF64.0
aF64.0
aF59.0
aF59.0
aF58.0
aF58.0
aF75.0
aF68.0
aF90.0
aF90.0
aF61.0
aF61.0
aF61.0
aF61.0
aF61.0
aF61.0
aF90.0
aF90.0
aF82.0
aF45.0
aF38.0
aF38.0
aF71.0
aF71.0
aF71.0
aF71.0
aF52.0
aF74.0
aF74.0
aF17.0
aF17.0
aF71.0
aF47.0
aF47.0
aF68.0
aF52.0
aF52.0
aF80.0
aF80.0
aF75.0
aF90.0
aF67.0
aF38.0
aF64.0
aF64.0
aF75.0
aF75.0
aF42.0
aF17.0
aF47.0
aF59.0
aF66.0
aF62.0
aF78.0
aF75.0
aF75.0
aF74.0
aF62.0
aF17.0
aF17.0
aF64.0
aF64.0
aF48.0
aF48.0
aF48.0
aF56.0
aF26.0
aF62.0
aF62.0
aF86.0
aF86.0
aF57.0
aF43.0
aF37.0
aF37.0
aF66.0
aF66.0
aF82.0
aF82.0
aF61.0
aF58.0
aF61.0
aF68.0
aF48.0
aF48.0
aF48.0
aF54.0
aF75.0
aF75.0
aF75.0
aF75.0
aF81.0
aF53.0
aF53.0
aF71.0
aF71.0
aF77.0
aF77.0
aF42.0
aF43.0
aF43.0
aF83.0
aF83.0
aF62.0
aF45.0
aF55.0
aF55.0
aF31.0
aF47.0
aF64.0
aF90.0
aF74.0
aF67.0
aF67.0
aF38.0
aF90.0
aF90.0
aF90.0
aF31.0
aF53.0
aF53.0
aF75.0
aF55.0
aF90.0
aF90.0
aF73.0
aF72.0
aF82.0
aF82.0
asS'targets'
p162
(lp163
S'1H0419-577'
p164
aS'1H0419-577'
p165
aS'1H0419-577'
p166
aS'1H0419-577'
p167
aS'HE1228+0131'
p168
aS'HE1228+0131'
p169
aS'HE1228+0131'
p170
aS'HE1228+0131'
p171
aS'MRC2251-178'
p172
aS'RX_J1830.3+7312'
p173
aS'RX_J1830.3+7312'
p174
aS'PG0003+158'
p175
aS'HE0439-5254'
p176
aS'PG1302-102'
p177
aS'1H0717+714'
p178
aS'1H0717+714'
p179
aS'PG1001+054'
p180
aS'RBS567'
p181
aS'RX_J0714.5+7408'
p182
aS'RX_J0714.5+7408'
p183
aS'RBS2070'
p184
aS'RBS2070'
p185
aS'HE0241-3043'
p186
aS'HE0241-3043'
p187
aS'H1101-232'
p188
aS'H1101-232'
p189
aS'RX_J2139.7+0246'
p190
aS'RX_J2139.7+0246'
p191
aS'PHL1226'
p192
aS'PHL1226'
p193
aS'PHL1226'
p194
aS'PHL1226'
p195
aS'PHL1226'
p196
aS'PHL1226'
p197
aS'LBQS1230-0015'
p198
aS'LBQS1230-0015'
p199
aS'SDSSJ130524.30+035731.0'
p200
aS'MRK1179'
p201
aS'SDSSJ112224.10+031802.0'
p202
aS'SDSSJ112224.10+031802.0'
p203
aS'3C232'
p204
aS'3C232'
p205
aS'3C232'
p206
aS'3C232'
p207
aS'RX_J1503.2+6810'
p208
aS'MS1228.6+1219'
p209
aS'MS1228.6+1219'
p210
aS'RX_J1117.6+5301'
p211
aS'RX_J1117.6+5301'
p212
aS'SDSSJ095914.80+320357.0'
p213
aS'SDSSJ095914.80+320357.0'
p214
aS'SDSSJ095914.80+320357.0'
p215
aS'SDSSJ131545.20+152556.0'
p216
aS'SDSSJ094840.10+580038.0'
p217
aS'SDSSJ094840.10+580038.0'
p218
aS'FBQSJ0908+3246'
p219
aS'FBQSJ0908+3246'
p220
aS'FBQSJ0908+3246'
p221
aS'SDSSJ225738.20+134045.0'
p222
aS'SBS1537+577'
p223
aS'RX_J1121.2+0326'
p224
aS'RX_J1236.0+2641'
p225
aS'RX_J1236.0+2641'
p226
aS'RX_J1236.0+2641'
p227
aS'RX_J1236.0+2641'
p228
aS'RX_J1236.0+2641'
p229
aS'RX_J1236.0+2641'
p230
aS'RX_J1236.0+2641'
p231
aS'US136'
p232
aS'PG1309+355'
p233
aS'SDSSJ084159.20+140642.0'
p234
aS'HS1231+4814'
p235
aS'TON1009'
p236
aS'SBS0957+599'
p237
aS'SDSSJ015530.02-085704.0'
p238
aS'SDSSJ121640.60+071224.0'
p239
aS'SDSSJ112448.30+531818.0'
p240
aS'SDSSJ112448.30+531818.0'
p241
aS'RX_J1217.2+2749'
p242
aS'RX_J1217.2+2749'
p243
aS'SDSSJ114046.10+113649.0'
p244
aS'SDSSJ114046.10+113649.0'
p245
aS'SDSSJ114046.10+113649.0'
p246
aS'PG1211+143'
p247
aS'RX_J1330.8+3119'
p248
aS'RX_J1356.4+2515'
p249
aS'RX_J1356.4+2515'
p250
aS'2E1530+1511'
p251
aS'2E1530+1511'
p252
aS'SDSSJ135726.27+043541.4'
p253
aS'SDSSJ135726.27+043541.4'
p254
aS'RX_J1100.8+2839'
p255
aS'RX_J1100.8+2839'
p256
aS'TON605'
p257
aS'TON605'
p258
aS'SDSSJ112439.50+113117.0'
p259
aS'SDSSJ112439.50+113117.0'
p260
aS'FBQSJ1134+2555'
p261
aS'2dFGRS_S393Z082'
p262
aS'HS1543+5921'
p263
aS'SDSSJ093706.90+170021.0'
p264
aS'SDSSJ104335.90+115129.0'
p265
aS'SDSSJ104335.90+115129.0'
p266
aS'SDSSJ104335.90+115129.0'
p267
aS'CSO1208'
p268
aS'RX_J0028.1+3103'
p269
aS'RX_J0028.1+3103'
p270
aS'RX_J0028.1+3103'
p271
aS'RX_J0028.1+3103'
p272
aS'SBS1108+560'
p273
aS'MS0244.6-3020'
p274
aS'MS0244.6-3020'
p275
aS'PG0832+251'
p276
aS'PG0832+251'
p277
aS'SDSSJ124210.30+321427.0'
p278
aS'SDSSJ124210.30+321427.0'
p279
aS'HE0340-2703'
p280
aS'UM228'
p281
aS'UM228'
p282
aS'RX_J1342.1+0505'
p283
aS'RX_J1342.1+0505'
p284
aS'SDSSJ121640.60+071224.0'
p285
aS'SDSSJ080838.80+051440.0'
p286
aS'SDSSJ080838.80+051440.0'
p287
aS'SDSSJ080838.80+051440.0'
p288
aS'RX_J1429.6+0321'
p289
aS'MRK205'
p290
aS'MCG+10-16-111'
p291
aS'3C273.0'
p292
aS'3C273.0'
p293
aS'MRK290'
p294
aS'MRK290'
p295
aS'PG1341+258'
p296
aS'RBS1768'
p297
aS'RBS1768'
p298
aS'RBS1768'
p299
aS'PG1216+069'
p300
aS'NAB1612+26'
p301
aS'NAB1612+26'
p302
aS'ESO350-IG38'
p303
aS'RX_J1142.5+2503'
p304
aS'SBS1503+570'
p305
aS'RX_J1054.2+3511'
p306
aS'RX_J1017.5+4702'
p307
aS'SDSSJ091728.60+271951.0'
p308
aS'3C351.0'
p309
aS'3C351.0'
p310
asS'e_bs'
p311
(lp312
F5.8
aF1.5
aF2.0
aF2.6
aF3.4
aF2.4
aF2.3
aF2.4
aF2.0
aF4.0
aF7.5
aF2.9
aF1.9
aF2.0
aF1.9
aF2.8
aF2.2
aF2.1
aF2.7
aF2.7
aF4.9
aF3.7
aF2.9
aF4.3
aF2.6
aF1.8
aF2.8
aF3.5
aF3.4
aF3.7
aF3.0
aF1.3
aF1.2
aF2.4
aF2.9
aF2.7
aF2.7
aF3.2
aF2.4
aF2.4
aF5.5
aF6.2
aF3.7
aF5.3
aF3.5
aF2.4
aF1.4
aF2.4
aF3.3
aF2.2
aF2.4
aF4.5
aF3.4
aF4.3
aF1.9
aF3.2
aF3.2
aF4.0
aF1.2
aF2.4
aF1.0
aF2.2
aF2.1
aF2.9
aF3.0
aF2.0
aF2.1
aF3.0
aF1.7
aF1.6
aF2.8
aF3.5
aF2.8
aF3.0
aF1.8
aF2.3
aF3.4
aF4.4
aF2.9
aF2.4
aF5.2
aF1.4
aF2.9
aF3.1
aF2.3
aF2.3
aF1.8
aF3.2
aF1.8
aF4.1
aF2.7
aF3.8
aF3.5
aF2.3
aF2.6
aF5.7
aF3.2
aF2.9
aF1.8
aF16.1
aF3.1
aF4.1
aF2.9
aF4.1
aF3.9
aF1.9
aF1.6
aF2.7
aF1.9
aF1.4
aF2.2
aF2.2
aF5.1
aF1.8
aF3.9
aF3.5
aF6.6
aF5.0
aF4.0
aF3.4
aF3.1
aF2.3
aF2.8
aF3.5
aF2.0
aF2.9
aF3.6
aF2.5
aF2.2
aF2.2
aF2.8
aF3.6
aF2.9
aF3.3
aF1.6
aF2.6
aF5.5
aF2.5
aF1.8
aF2.4
aF2.5
aF1.9
aF3.1
aF3.7
aF3.9
aF2.8
aF2.4
asS'incs'
p313
(lp314
F24.0
aF24.0
aF24.0
aF24.0
aF81.0
aF81.0
aF59.0
aF59.0
aF48.0
aF61.0
aF61.0
aF60.0
aF77.0
aF46.0
aF53.0
aF53.0
aF35.0
aF77.0
aF61.0
aF61.0
aF57.0
aF57.0
aF57.0
aF57.0
aF71.0
aF65.0
aF80.0
aF80.0
aF59.0
aF59.0
aF59.0
aF59.0
aF59.0
aF59.0
aF81.0
aF81.0
aF76.0
aF44.0
aF37.0
aF37.0
aF68.0
aF68.0
aF68.0
aF68.0
aF50.0
aF70.0
aF70.0
aF16.0
aF16.0
aF68.0
aF46.0
aF46.0
aF65.0
aF50.0
aF50.0
aF75.0
aF75.0
aF71.0
aF85.0
aF65.0
aF37.0
aF62.0
aF62.0
aF71.0
aF71.0
aF41.0
aF16.0
aF46.0
aF57.0
aF63.0
aF60.0
aF74.0
aF71.0
aF71.0
aF70.0
aF60.0
aF16.0
aF16.0
aF61.0
aF61.0
aF47.0
aF47.0
aF47.0
aF55.0
aF26.0
aF60.0
aF60.0
aF78.0
aF78.0
aF55.0
aF42.0
aF36.0
aF36.0
aF63.0
aF63.0
aF76.0
aF76.0
aF59.0
aF57.0
aF59.0
aF65.0
aF47.0
aF47.0
aF47.0
aF52.0
aF71.0
aF71.0
aF71.0
aF71.0
aF76.0
aF52.0
aF52.0
aF68.0
aF68.0
aF73.0
aF73.0
aF41.0
aF42.0
aF42.0
aF77.0
aF77.0
aF60.0
aF44.0
aF53.0
aF53.0
aF31.0
aF46.0
aF61.0
aF81.0
aF70.0
aF65.0
aF65.0
aF37.0
aF84.0
aF84.0
aF84.0
aF31.0
aF52.0
aF52.0
aF71.0
aF53.0
aF81.0
aF78.0
aF70.0
aF69.0
aF76.0
aF76.0
asS'azimuths'
p315
(lp316
F67.4
aF67.4
aF67.4
aF67.4
aF74.1
aF74.1
aF50.9
aF50.9
aF71.0
aF70.4
aF70.4
aF46.6
aF4.9
aF61.2
aF7.1
aF7.1
aF77.7
aF29.5
aF82.6
aF82.6
aF10.2
aF10.2
aF77.4
aF77.4
aF83.5
aF26.3
aF69.1
aF69.1
aF14.1
aF14.1
aF14.1
aF14.1
aF14.1
aF14.1
aF89.9
aF89.9
aF14.1
aF44.7
aF21.6
aF21.6
aF73.8
aF73.8
aF73.8
aF73.8
aF0.6
aF52.6
aF52.6
aF46.7
aF46.7
aF43.0
aF65.0
aF65.0
aF16.3
aF77.9
aF77.9
aF58.7
aF58.7
aF29.6
aF70.7
aF33.3
aF88.9
aF30.9
aF30.9
aF41.0
aF41.0
aF86.6
aF45.7
aF87.5
aF86.0
aF15.1
aF73.3
aF34.0
aF50.8
aF18.6
aF72.0
aF3.7
aF48.4
aF48.4
aF65.5
aF65.5
aF54.9
aF54.9
aF54.9
aF83.9
aF6.4
aF65.2
aF65.2
aF85.1
aF85.1
aF84.3
aF23.6
aF80.0
aF80.0
aF39.6
aF39.6
aF48.6
aF48.6
aF67.0
aF26.7
aF88.6
aF14.2
aF42.2
aF42.2
aF42.2
aF87.8
aF66.7
aF66.7
aF66.7
aF66.7
aF81.7
aF49.7
aF49.7
aF87.8
aF87.8
aF85.5
aF85.5
aF26.0
aF68.3
aF68.3
aF79.7
aF79.7
aF3.7
aF37.6
aF12.0
aF12.0
aF50.6
aF38.8
aF59.6
aF71.8
aF5.6
aF11.9
aF11.9
aF54.4
aF74.0
aF74.0
aF74.0
aF6.3
aF54.9
aF54.9
aF57.9
aF28.0
aF46.8
aF57.0
aF55.3
aF25.4
aF12.0
aF12.0
asS'group_nums'
p317
(lp318
S'200054'
p319
aS'200054'
p320
aS'200054'
p321
aS'200054'
p322
aS'0'
p323
ag323
aS'170002'
p324
aS'170002'
p325
aS'207780'
p326
aS'111804'
p327
aS'111804'
p328
aS'211714'
p329
aS'212158'
p330
aS'102770'
p331
aS'101152'
p332
aS'101152'
p333
aS'111223'
p334
aS'212158'
p335
aS'110299'
p336
aS'110299'
p337
aS'200664'
p338
aS'200664'
p339
aS'200774'
p340
aS'200774'
p341
aS'102618'
p342
aS'112048'
p343
aS'211783'
p344
aS'211783'
p345
aS'211161'
p346
aS'211161'
p347
aS'211161'
p348
aS'211161'
p349
aS'211161'
p350
aS'211161'
p351
ag323
ag323
aS'108467'
p352
aS'202838'
p353
aS'100444'
p354
aS'100444'
p355
aS'112220'
p356
aS'112220'
p357
aS'112220'
p358
aS'112220'
p359
aS'106220'
p360
aS'100002'
p361
aS'100002'
p362
aS'100008'
p363
aS'100008'
p364
aS'112220'
p365
aS'108533'
p366
aS'108533'
p367
aS'109182'
p368
aS'101559'
p369
aS'101559'
p370
aS'112343'
p371
aS'112343'
p372
aS'111476'
p373
aS'212240'
p374
aS'100429'
p375
aS'100444'
p376
aS'120065'
p377
aS'120065'
p378
aS'120065'
p379
aS'120065'
p380
aS'100082'
p381
aS'100082'
p382
aS'100082'
p383
aS'100001'
p384
aS'100704'
p385
aS'111009'
p386
aS'100689'
p387
aS'111476'
p388
aS'107368'
p389
aS'212210'
p390
aS'101961'
p391
aS'100008'
p392
aS'100008'
p393
aS'100065'
p394
aS'100065'
p395
aS'103119'
p396
aS'103119'
p397
aS'103119'
p398
aS'130002'
p399
aS'100667'
p400
aS'100052'
p401
aS'100052'
p402
aS'101190'
p403
aS'101190'
p404
aS'100480'
p405
aS'100480'
p406
aS'102880'
p407
aS'102880'
p408
aS'100065'
p409
aS'100065'
p410
aS'110122'
p411
aS'110122'
p412
aS'100671'
p413
aS'200774'
p414
aS'100429'
p415
aS'100580'
p416
aS'100122'
p417
aS'100122'
p418
aS'100122'
p419
aS'100008'
p420
aS'200470'
p421
aS'200470'
p422
aS'200470'
p423
aS'200470'
p424
aS'111795'
p425
aS'200774'
p426
aS'200774'
p427
aS'111290'
p428
aS'111290'
p429
aS'102705'
p430
aS'102705'
p431
aS'200100'
p432
aS'200988'
p433
aS'200988'
p434
aS'100369'
p435
aS'100369'
p436
aS'101961'
p437
aS'100337'
p438
aS'100337'
p439
aS'100337'
p440
aS'101166'
p441
aS'100263'
p442
aS'100201'
p443
ag323
aS'170002'
p444
aS'100429'
p445
aS'100429'
p446
aS'108041'
p447
aS'201920'
p448
aS'201920'
p449
aS'201920'
p450
aS'120002'
p451
aS'101216'
p452
aS'101216'
p453
aS'200497'
p454
aS'110775'
p455
aS'101322'
p456
aS'112910'
p457
aS'112476'
p458
aS'109077'
p459
aS'102935'
p460
aS'102935'
p461
asS'Ws'
p462
(lp463
F47.0
aF44.6
aF49.4
aF54.1
aF30.6
aF55.9
aF54.9
aF68.7
aF76.1
aF56.7
aF179.0
aF83.1
aF87.7
aF49.0
aF97.0
aF37.8
aF77.1
aF92.4
aF81.8
aF77.6
aF84.9
aF88.8
aF38.3
aF54.4
aF115.8
aF93.5
aF84.4
aF91.4
aF65.4
aF36.4
aF157.5
aF38.3
aF35.6
aF59.0
aF71.4
aF32.8
aF85.5
aF62.6
aF68.9
aF91.1
aF643.5
aF354.4
aF117.1
aF319.5
aF37.3
aF57.5
aF94.4
aF76.6
aF35.7
aF113.3
aF63.7
aF47.2
aF84.2
aF157.7
aF66.4
aF45.1
aF70.1
aF93.9
aF58.4
aF105.3
aF41.9
aF81.5
aF89.9
aF64.7
aF41.3
aF48.8
aF96.5
aF34.6
aF31.4
aF90.3
aF68.4
aF45.5
aF67.3
aF49.0
aF107.5
aF52.3
aF45.8
aF63.6
aF97.0
aF106.8
aF67.7
aF55.5
aF46.8
aF93.0
aF77.0
aF60.1
aF52.4
aF104.5
aF44.7
aF62.1
aF40.3
aF70.6
aF74.7
aF81.0
aF60.2
aF67.3
aF58.0
aF118.6
aF101.4
aF-99.0
aF65.6
aF153.4
aF111.6
aF80.2
aF97.7
aF73.9
aF75.0
aF85.6
aF46.5
aF42.5
aF73.7
aF81.2
aF130.8
aF69.6
aF108.7
aF119.0
aF80.1
aF93.6
aF214.0
aF111.6
aF67.6
aF52.3
aF134.6
aF40.7
aF31.1
aF17.8
aF115.5
aF92.0
aF75.2
aF70.0
aF100.0
aF67.3
aF79.3
aF29.8
aF53.0
aF41.9
aF453.8
aF55.6
aF34.4
aF137.6
aF78.6
aF70.7
aF91.0
aF64.7
aF138.2
aF81.7
aF65.4
asS'ls'
p464
(lp465
F0.2412126988688143
aF0.20986807356334825
aF0.14465536383063377
aF0.07161854953827904
aF0.3393362053497067
aF0.012395907429292505
aF0.0245710023574696
aF0.028159702924856957
aF0.3419941169478868
aF0.03154689047980427
aF0.10826425299929779
aF0.12077181062035958
aF0.47150866295816457
aF0.017031989186412282
aF0.24430828845276858
aF0.1902437044084589
aF0.0775169322874955
aF0.6270264955836847
aF0.11208536619678722
aF0.1342576586125557
aF0.2370094858475638
aF0.24604148625026231
aF0.5946498595876576
aF0.6124992764102714
aF0.6639347177849689
aF0.3107486015521821
aF0.7477910248515222
aF0.5627995695482366
aF0.14078830616618077
aF0.5114155082462011
aF0.9852371636581724
aF0.6999839368884212
aF0.4826334136235407
aF0.2843077810622611
aF0.757249185736013
aF0.7344833850648919
aF0.40972716803428294
aF0.2843264036259184
aF0.11989473425048579
aF0.5488027806741405
aF0.9890744817959992
aF0.8828847216252096
aF0.9628471139283052
aF0.5017839451974557
aF0.1720232463127217
aF0.028797880426177855
aF0.013685019783428653
aF0.6263721284117868
aF0.48801427077357484
aF0.2924896981937694
aF0.17219723123491426
aF0.33611068087587587
aF0.5118738742071529
aF0.7790266462633908
aF0.6946584257530615
aF0.13267185336149795
aF0.13200684951982158
aF0.189138727386674
aF0.2359917344957821
aF0.028972323095995994
aF0.38510615624123307
aF0.30308045899294267
aF0.10974102935061361
aF0.5579828331457032
aF0.6093106260907495
aF0.028788190730148273
aF0.026432483582333483
aF0.013724070411467367
aF0.01434621098119152
aF0.056327151781851444
aF0.4575634225191655
aF0.4441772210676325
aF0.6066282569575034
aF0.4723354216588317
aF0.5439480549275602
aF0.09426340371926996
aF0.36142038853898695
aF0.574581409381374
aF0.43377090274175484
aF0.3099904593945614
aF0.8042464820784145
aF0.8771524354718803
aF0.8782276056125922
aF0.03771160627301106
aF0.07912934665510472
aF0.04012613361265254
aF0.0468969589913281
aF0.8750138121886285
aF0.41639722464105794
aF0.07542717277192865
aF0.12778446686103237
aF0.6130786007360942
aF0.6802722942757788
aF0.3819179425416468
aF0.3127270531496813
aF0.0239607656899954
aF0.013176273231868846
aF0.1930204374385414
aF0.8620284499832263
aF0.006117147822879036
aF0.04262732880444474
aF0.1726591124866712
aF0.3859447415293091
aF0.2494090207893454
aF0.02071623755764815
aF0.017780651771234862
aF0.06256686888491905
aF0.0673791677937653
aF0.04725275159049534
aF0.2123665241205521
aF0.4770697339809935
aF0.6585646361666662
aF0.8287240884792079
aF0.8770704108878459
aF0.9397776107102342
aF0.7187533571533776
aF0.163797090819099
aF0.4229668504192399
aF0.05414517191561861
aF0.05172446483724641
aF0.0465036534010071
aF0.09426340371926996
aF0.15608976379282247
aF0.021643379745524903
aF0.08560122743685622
aF0.23425089479944536
aF0.37460554300873744
aF0.01941388082458011
aF0.03372306676138514
aF0.023991275666620748
aF0.09652865370912786
aF0.048006666846486176
aF0.011771947264260793
aF0.014103614234931918
aF0.009018076772880338
aF0.0037800267761958564
aF0.0036250317750345395
aF0.06475881502177781
aF0.05106349358510814
aF0.019411806753123075
aF0.02424335524587844
aF0.07747946474916453
aF0.05670919910278913
aF0.020742798662628775
aF0.01651327207115157
aF0.011086170681119509
aF0.005258382379172126
asS'Lya_vs'
p466
(lp467
F1075.0
aF1123.0
aF1188.0
aF1264.0
aF1176.0
aF1495.0
aF1721.0
aF1854.0
aF9029.0
aF1553.0
aF1971.0
aF841.0
aF1649.0
aF3447.0
aF2873.0
aF2988.0
aF4092.0
aF1664.0
aF4074.0
aF4264.0
aF8922.0
aF8966.0
aF1219.0
aF1310.0
aF1182.0
aF3565.0
aF4083.0
aF4181.0
aF4920.0
aF5037.0
aF5203.0
aF5316.0
aF5368.0
aF5422.0
aF1126.0
aF1163.0
aF7043.0
aF4656.0
aF1049.0
aF1264.0
aF1467.0
aF1408.0
aF1510.0
aF1641.0
aF9714.0
aF1046.0
aF1286.0
aF1131.0
aF1259.0
aF1493.0
aF7852.0
aF7940.0
aF8025.0
aF8385.0
aF8516.0
aF1915.0
aF1982.0
aF4287.0
aF2582.0
aF3264.0
aF1471.0
aF794.0
aF1009.0
aF1166.0
aF1254.0
aF6404.0
aF7111.0
aF7223.0
aF6381.0
aF829.0
aF2054.0
aF9175.0
aF4295.0
aF9469.0
aF1642.0
aF3845.0
aF1019.0
aF1141.0
aF1035.0
aF1186.0
aF928.0
aF967.0
aF1016.0
aF2124.0
aF7400.0
aF9186.0
aF9285.0
aF1795.0
aF1953.0
aF967.0
aF1124.0
aF615.0
aF695.0
aF853.0
aF1048.0
aF1047.0
aF1099.0
aF9552.0
aF1236.0
aF2889.0
aF8120.0
aF717.0
aF882.0
aF1030.0
aF874.0
aF6063.0
aF6228.0
aF6342.0
aF6425.0
aF947.0
aF1254.0
aF1378.0
aF5208.0
aF5250.0
aF640.0
aF715.0
aF1345.0
aF5491.0
aF5816.0
aF7038.0
aF7114.0
aF3845.0
aF8738.0
aF8926.0
aF9476.0
aF1902.0
aF1278.0
aF1656.0
aF1013.0
aF1580.0
aF3082.0
aF3192.0
aF7980.0
aF9308.0
aF9360.0
aF9434.0
aF1906.0
aF9916.0
aF9970.0
aF1608.0
aF6133.0
aF708.0
aF703.0
aF629.0
aF7141.0
aF3462.0
aF3597.0
asS'R_virs'
p468
(lp469
F169.08
aF169.08
aF169.08
aF169.08
aF207.37
aF207.37
aF180.05
aF180.05
aF342.79
aF181.35
aF181.35
aF195.49
aF110.09
aF228.54
aF168.21
aF168.21
aF222.86
aF110.09
aF209.84
aF209.84
aF200.43
aF200.43
aF260.39
aF260.39
aF173.67
aF174.73
aF209.45
aF209.45
aF110.77
aF110.77
aF110.77
aF110.77
aF110.77
aF110.77
aF207.37
aF207.37
aF268.44
aF203.74
aF171.96
aF171.96
aF115.37
aF115.37
aF115.37
aF115.37
aF249.96
aF195.89
aF195.89
aF116.65
aF116.65
aF115.37
aF189.46
aF189.46
aF201.99
aF216.22
aF216.22
aF144.48
aF144.48
aF153.65
aF196.25
aF311.68
aF171.96
aF148.02
aF148.02
aF212.15
aF212.15
aF288.88
aF226.16
aF274.78
aF174.01
aF247.05
aF161.49
aF278.31
aF153.65
aF262.02
aF107.2
aF212.38
aF116.65
aF116.65
aF112.75
aF112.75
aF118.33
aF118.33
aF118.33
aF198.35
aF189.58
aF243.22
aF243.22
aF153.65
aF153.65
aF195.53
aF149.08
aF124.29
aF124.29
aF160.88
aF160.88
aF240.35
aF240.35
aF239.14
aF260.39
aF329.13
aF200.95
aF148.8
aF148.8
aF148.8
aF187.45
aF231.32
aF231.32
aF231.32
aF231.32
aF161.58
aF75.28
aF75.28
aF153.25
aF153.25
aF124.73
aF124.73
aF230.57
aF207.84
aF207.84
aF197.99
aF197.99
aF212.38
aF278.76
aF227.94
aF227.94
aF124.78
aF104.43
aF185.55
aF207.37
aF187.12
aF311.68
aF311.68
aF251.65
aF241.13
aF241.13
aF241.13
aF249.38
aF204.17
aF204.17
aF216.34
aF222.9
aF260.6
aF177.36
aF188.56
aF204.69
aF217.84
aF217.84
asS'Bmags'
p470
(lp471
F11.3
aF11.3
aF11.3
aF11.3
aF11.1
aF11.1
aF10.6
aF10.6
aF15.1
aF12.6
aF12.6
aF11.6
aF14.4
aF11.6
aF12.7
aF12.7
aF14.1
aF14.4
aF13.8
aF13.8
aF-99.99
aF-99.99
aF9.97
aF9.97
aF11.6
aF14.2
aF13.6
aF13.6
aF14.8
aF14.8
aF14.8
aF14.8
aF14.8
aF14.8
aF11.1
aF11.1
aF15.3
aF13.9
aF11.3
aF11.3
aF12.8
aF12.8
aF12.8
aF12.8
aF-99.99
aF11.0
aF11.0
aF11.0
aF11.0
aF12.8
aF-99.99
aF-99.99
aF-99.99
aF15.1
aF15.1
aF12.2
aF12.2
aF14.8
aF13.4
aF12.7
aF11.3
aF10.3
aF10.3
aF10.1
aF10.1
aF13.0
aF14.3
aF14.1
aF14.9
aF10.2
aF12.1
aF-99.99
aF14.8
aF-99.99
aF13.1
aF13.2
aF11.0
aF11.0
aF11.4
aF11.4
aF11.3
aF11.3
aF11.3
aF12.2
aF14.8
aF-99.99
aF-99.99
aF12.3
aF12.3
aF11.1
aF11.1
aF10.8
aF10.8
aF11.1
aF11.1
aF10.3
aF10.3
aF-99.99
aF9.97
aF11.7
aF-99.99
aF9.99
aF9.99
aF9.99
aF10.9
aF13.2
aF13.2
aF13.2
aF13.2
aF10.7
aF14.6
aF14.6
aF-99.99
aF-99.99
aF8.71
aF8.71
aF10.5
aF14.4
aF14.4
aF-99.99
aF-99.99
aF13.2
aF-99.99
aF-99.99
aF-99.99
aF12.1
aF12.6
aF11.7
aF11.1
aF11.4
aF12.7
aF12.7
aF15.1
aF15.9
aF15.9
aF15.9
aF11.4
aF14.7
aF14.7
aF11.2
aF14.4
aF11.1
aF11.7
aF10.6
aF14.2
aF12.9
aF12.9
asS'cuss'
p472
(lp473
F140.608
aF140.608
aF140.608
aF140.608
aF219.1576438890508
aF219.1576438890508
aF161.20465603697681
aF161.20465603697681
aF653.5502293557856
aF163.74199417681464
aF163.74199417681464
aF192.7677196861549
aF55.328630996980216
aF270.7342453865044
aF139.0508881812698
aF139.0508881812698
aF256.309857155358
aF55.328630996980216
aF224.87975540719532
aF224.87975540719532
aF203.52330579076198
aF203.52330579076198
aF359.509687791581
aF359.509687791581
aF149.0360282985292
aF151.02864978539668
aF223.9682046005638
aF223.9682046005638
aF56.07334148238359
aF56.07334148238359
aF56.07334148238359
aF56.07334148238359
aF56.07334148238359
aF56.07334148238359
aF219.1576438890508
aF219.1576438890508
aF384.09991708408376
aF210.89036015664632
aF145.8662401345836
aF145.8662401345836
aF61.259933594479186
aF61.259933594479186
aF61.259933594479186
aF61.259933594479186
aF328.92308694434934
aF193.6348701112483
aF193.6348701112483
aF62.74414346375285
aF62.74414346375285
aF61.259933594479186
aF180.0867576169886
aF180.0867576169886
aF206.97405755069886
aF240.00395815069382
aF240.00395815069382
aF99.900128012931
aF99.900128012931
aF114.21146117618844
aF194.41641395725827
aF531.441
aF145.8662401345836
aF105.30701306180895
aF105.30701306180895
aF230.28295441260954
aF230.28295441260954
aF450.54018814418765
aF264.6439567569983
aF404.11450691109815
aF149.67270712791964
aF320.6744753250561
aF127.25673656038803
aF415.47877254078816
aF114.21146117618844
aF364.4271137113703
aF52.21491906533994
aF230.83482394777442
aF62.74414346375285
aF62.74414346375285
aF58.26912155679026
aF58.26912155679026
aF64.72134831722838
aF64.72134831722838
aF64.72134831722838
aF198.9524900874578
aF180.34093791482843
aF309.9546934634157
aF309.9546934634157
aF114.21146117618844
aF114.21146117618844
aF192.85437633613608
aF106.94039590818804
aF72.01875374511836
aF72.01875374511836
aF126.20191795689954
aF126.20191795689954
aF302.07044543947035
aF302.07044543947035
aF298.7552404711924
aF359.509687791581
aF598.2566338955214
aF204.67140693560492
aF106.51348845568808
aF106.51348845568808
aF106.51348845568808
aF175.95210712009106
aF277.9466603127298
aF277.9466603127298
aF277.9466603127298
aF277.9466603127298
aF127.40766369414361
aF24.215207060853306
aF24.215207060853306
aF113.55709412009449
aF113.55709412009449
aF72.58115457885744
aF72.58115457885744
aF275.99113014551756
aF220.2437763547474
aF220.2437763547474
aF198.16490657782978
aF198.16490657782978
aF230.83482394777442
aF416.93469265701555
aF269.1831324749008
aF269.1831324749008
aF72.64373352877728
aF49.32685500820014
aF172.09983900050577
aF219.1576438890508
aF175.280107165645
aF531.441
aF531.441
aF333.801610733082
aF304.18646200480384
aF304.18646200480384
aF304.18646200480384
aF327.26778293776493
aF211.87325330017472
aF211.87325330017472
aF240.28366491503328
aF256.4051455333921
aF360.1498276106765
aF156.0082523201898
aF178.22642470464362
aF213.03681668434686
aF243.92971787791663
aF243.92971787791663
asS'vcorrs'
p474
(lp475
F902.0
aF902.0
aF902.0
aF902.0
aF1420.0
aF1420.0
aF2103.0
aF2103.0
aF8754.0
aF1886.0
aF1886.0
aF789.0
aF1545.0
aF3382.0
aF2973.0
aF2973.0
aF4238.0
aF1545.0
aF4269.0
aF4269.0
aF8677.0
aF8677.0
aF1030.0
aF1030.0
aF1334.0
aF3846.0
aF3860.0
aF3860.0
aF4934.0
aF4934.0
aF4934.0
aF4934.0
aF4934.0
aF4934.0
aF1420.0
aF1420.0
aF7298.0
aF4419.0
aF1582.0
aF1582.0
aF1709.0
aF1709.0
aF1709.0
aF1709.0
aF9912.0
aF1404.0
aF1404.0
aF1378.0
aF1378.0
aF1709.0
aF8281.0
aF8281.0
aF8319.0
aF8609.0
aF8609.0
aF2143.0
aF2143.0
aF4495.0
aF2320.0
aF3170.0
aF1582.0
aF1097.0
aF1097.0
aF1522.0
aF1522.0
aF6974.0
aF7603.0
aF7782.0
aF6298.0
aF1145.0
aF2235.0
aF9383.0
aF4495.0
aF9716.0
aF1361.0
aF4018.0
aF1378.0
aF1378.0
aF1355.0
aF1355.0
aF1286.0
aF1286.0
aF1286.0
aF2415.0
aF7689.0
aF9541.0
aF9541.0
aF1991.0
aF1991.0
aF1516.0
aF1415.0
aF951.0
aF951.0
aF1217.0
aF1217.0
aF1131.0
aF1131.0
aF9767.0
aF1030.0
aF2674.0
aF8520.0
aF1170.0
aF1170.0
aF1170.0
aF1109.0
aF6081.0
aF6081.0
aF6081.0
aF6081.0
aF910.0
aF1127.0
aF1127.0
aF5425.0
aF5425.0
aF888.0
aF888.0
aF1191.0
aF5236.0
aF5236.0
aF7330.0
aF7330.0
aF4018.0
aF8893.0
aF9381.0
aF9381.0
aF1931.0
aF1615.0
aF2256.0
aF1420.0
aF2031.0
aF3170.0
aF3170.0
aF8423.0
aF8951.0
aF8951.0
aF8951.0
aF2510.0
aF10028.0
aF10028.0
aF1301.0
aF6589.0
aF843.0
aF871.0
aF882.0
aF7279.0
aF3526.0
aF3526.0
asS'e_Nas'
p476
(lp477
F1540000000000.0
aF2150000000000.0
aF893000000000.0
aF569000000000.0
aF433000000000.0
aF860000000000.0
aF2430000000000.0
aF708000000000.0
aF772000000000.0
aF2220000000000.0
aF3610000000000.0
aF5820000000000.0
aF9090000000000.0
aF1280000000000.0
aF1950000000000.0
aF796000000000.0
aF2790000000000.0
aF11400000000000.0
aF2180000000000.0
aF7550000000000.0
aF20800000000000.0
aF25100000000000.0
aF2960000000000.0
aF4910000000000.0
aF31700000000000.0
aF22400000000000.0
aF23600000000000.0
aF23200000000000.0
aF4060000000000.0
aF2950000000000.0
aF54500000000000.0
aF34600000000000.0
aF27100000000000.0
aF26400000000000.0
aF20900000000000.0
aF3510000000000.0
aF12400000000000.0
aF8220000000000.0
aF17600000000000.0
aF22300000000000.0
aF185000000000000.0
aF142000000000000.0
aF102000000000000.0
aF124000000000000.0
aF2720000000000.0
aF6410000000000.0
aF28400000000000.0
aF12600000000000.0
aF3420000000000.0
aF35600000000000.0
aF15600000000000.0
aF4180000000000.0
aF23200000000000.0
aF45400000000000.0
aF28800000000000.0
aF10100000000000.0
aF8550000000000.0
aF12400000000000.0
aF7250000000000.0
aF10400000000000.0
aF41300000000000.0
aF14200000000000.0
aF13100000000000.0
aF13600000000000.0
aF6070000000000.0
aF2450000000000.0
aF6530000000000.0
aF2010000000000.0
aF1850000000000.0
aF25500000000000.0
aF7380000000000.0
aF2600000000000.0
aF11900000000000.0
aF2700000000000.0
aF32000000000000.0
aF6580000000000.0
aF4730000000000.0
aF7310000000000.0
aF37600000000000.0
aF34800000000000.0
aF21000000000000.0
aF31600000000000.0
aF22300000000000.0
aF2240000000000.0
aF7830000000000.0
aF8570000000000.0
aF3900000000000.0
aF26500000000000.0
aF6920000000000.0
aF24900000000000.0
aF2920000000000.0
aF25800000000000.0
aF37100000000000.0
aF8280000000000.0
aF4430000000000.0
aF36900000000000.0
aF31900000000000.0
aF31500000000000.0
aF40800000000000.0
aF362000000000000.0
aF5680000000000.0
aF45300000000000.0
aF36300000000000.0
aF11200000000000.0
aF47400000000000.0
aF9890000000000.0
aF14100000000000.0
aF25100000000000.0
aF2610000000000.0
aF26500000000000.0
aF34500000000000.0
aF34800000000000.0
aF37600000000000.0
aF40500000000000.0
aF40700000000000.0
aF35300000000000.0
aF14200000000000.0
aF12300000000000.0
aF16200000000000.0
aF31900000000000.0
aF19100000000000.0
aF6580000000000.0
aF45800000000000.0
aF5470000000000.0
aF3440000000000.0
aF3460000000000.0
aF44600000000000.0
aF7390000000000.0
aF1070000000000.0
aF1050000000000.0
aF3790000000000.0
aF2440000000000.0
aF2610000000000.0
aF1090000000000.0
aF3950000000000.0
aF1910000000000.0
aF61700000000000.0
aF2550000000000.0
aF1450000000000.0
aF5750000000000.0
aF4610000000000.0
aF14500000000000.0
aF11600000000000.0
aF4420000000000.0
aF7720000000000.0
aF3750000000000.0
aF4080000000000.0
asS'e_bestDists'
p478
(lp479
F5.21
aF5.21
aF5.21
aF5.21
aF2.78
aF2.78
aF2.83
aF2.83
aF13.96
aF9.09
aF9.09
aF5.04
aF2.49
aF9.42
aF5.35
aF5.35
aF17.81
aF2.49
aF6.31
aF6.31
aF12.22
aF12.22
aF5.59
aF5.59
aF1.91
aF8.26
aF7.24
aF7.24
aF10.22
aF10.22
aF10.22
aF10.22
aF10.22
aF10.22
aF2.78
aF2.78
aF7.75
aF6.22
aF5.75
aF5.75
aF2.68
aF2.68
aF2.68
aF2.68
aF13.96
aF3.98
aF3.98
aF6.4
aF6.4
aF2.68
aF11.66
aF11.66
aF11.71
aF12.12
aF12.12
aF4.18
aF4.18
aF6.33
aF1.25
aF7.98
aF5.75
aF2.7
aF2.7
aF4.01
aF4.01
aF7.34
aF7.34
aF4.98
aF16.47
aF6.74
aF0.19
aF13.21
aF6.33
aF13.68
aF3.12
aF13.11
aF6.4
aF6.4
aF3.89
aF3.89
aF3.23
aF3.23
aF3.23
aF6.4
aF13.73
aF13.43
aF13.43
aF4.47
aF4.47
aF4.42
aF2.9
aF3.44
aF3.44
aF4.28
aF4.28
aF2.3
aF2.3
aF13.75
aF5.59
aF12.5
aF12.0
aF1.6
aF1.6
aF1.6
aF3.03
aF5.62
aF5.62
aF5.62
aF5.62
aF3.62
aF1.58
aF1.58
aF7.64
aF7.64
aF1.53
aF1.53
aF3.26
aF7.37
aF7.37
aF10.32
aF10.32
aF13.11
aF12.52
aF28.06
aF28.06
aF3.81
aF3.6
aF4.55
aF2.78
aF3.3
aF7.98
aF7.98
aF20.61
aF12.6
aF12.6
aF12.6
aF3.98
aF14.12
aF14.12
aF3.1
aF9.27
aF2.92
aF4.21
aF2.44
aF7.05
aF11.35
aF11.35
asS'group_mems'
p480
(lp481
S'16'
p482
aS'16'
p483
aS'16'
p484
aS'16'
p485
aS'1'
p486
ag486
aS'4'
p487
ag487
ag486
ag486
ag486
ag486
ag486
aS'2'
p488
aS'3'
p489
ag489
ag486
ag486
ag486
ag486
ag487
ag487
ag487
ag487
ag488
ag486
ag486
ag486
ag486
ag486
ag486
ag486
ag486
ag486
ag486
ag486
ag486
ag488
aS'5'
p490
ag490
ag486
ag486
ag486
ag486
ag486
aS'197'
p491
aS'197'
p492
aS'65'
p493
aS'65'
p494
ag486
ag486
ag486
ag486
ag488
ag488
ag486
ag486
ag486
ag486
ag490
ag490
ag489
ag489
ag489
ag489
aS'12'
p495
aS'12'
p496
aS'12'
p497
aS'136'
p498
ag487
ag486
ag487
ag486
ag486
ag486
ag488
aS'65'
p499
aS'65'
p500
aS'15'
p501
aS'15'
p502
ag488
ag488
ag488
aS'9'
p503
aS'7'
p504
aS'16'
p505
aS'16'
p506
ag489
ag489
ag490
ag490
ag488
ag488
aS'15'
p507
aS'15'
p508
ag490
ag490
ag490
ag487
ag490
ag487
aS'11'
p509
aS'11'
p510
aS'11'
p511
aS'65'
p512
ag490
ag490
ag490
ag490
ag486
ag487
ag487
ag486
ag486
ag488
ag488
aS'12'
p513
ag489
ag489
aS'8'
p514
ag514
ag488
aS'6'
p515
ag515
ag515
ag489
ag504
ag514
ag486
ag487
ag490
ag490
ag486
ag488
ag488
ag488
aS'39'
p516
ag489
ag489
ag490
ag486
ag489
ag486
ag486
ag486
ag488
ag488
asS'e_Lstar_meds'
p517
(lp518
F2.3
aF2.3
aF2.3
aF2.3
aF0.72
aF0.72
aF1.8
aF1.8
aF1.4
aF2.0
aF2.0
aF1.6
aF0.075
aF6.5
aF1.4
aF1.4
aF2.8
aF0.075
aF0.77
aF0.77
aF-99.99
aF-99.99
aF6.7
aF6.7
aF0.45
aF0.74
aF1.5
aF1.5
aF0.5
aF0.5
aF0.5
aF0.5
aF0.5
aF0.5
aF0.72
aF0.72
aF0.45
aF0.92
aF3.2
aF3.2
aF0.31
aF0.31
aF0.31
aF0.31
aF-99.99
aF1.8
aF1.8
aF1.5
aF1.5
aF0.31
aF-99.99
aF-99.99
aF-99.99
aF0.99
aF0.99
aF1.3
aF1.3
aF0.4
aF0.16
aF2.2
aF3.2
aF1.1
aF1.1
aF3.1
aF3.1
aF3.7
aF1.2
aF1.1
aF1.1
aF6.8
aF0.075
aF-99.99
aF0.4
aF-99.99
aF0.26
aF2.6
aF1.5
aF1.5
aF1.1
aF1.1
aF1.1
aF1.1
aF1.1
aF2.0
aF1.1
aF-99.99
aF-99.99
aF1.1
aF1.1
aF2.2
aF1.4
aF1.5
aF1.5
aF1.4
aF1.4
aF1.3
aF1.3
aF-99.99
aF6.7
aF7.5
aF-99.99
aF1.3
aF1.3
aF1.3
aF1.4
aF2.0
aF2.0
aF2.0
aF2.0
aF1.2
aF0.027
aF0.027
aF-99.99
aF-99.99
aF1.6
aF1.6
aF2.7
aF0.74
aF0.74
aF-99.99
aF-99.99
aF2.6
aF-99.99
aF-99.99
aF-99.99
aF0.96
aF0.55
aF2.0
aF0.72
aF0.91
aF2.2
aF2.2
aF1.4
aF0.5
aF0.5
aF0.5
aF2.6
aF1.9
aF1.9
aF1.3
aF1.1
aF1.1
aF0.72
aF1.4
aF1.2
aF3.1
aF3.1
asS'Dec_targets'
p519
(lp520
F-57.20027777777778
aF-57.20027777777778
aF-57.20027777777778
aF-57.20027777777778
aF1.256388888888889
aF1.256388888888889
aF1.256388888888889
aF1.256388888888889
aF-17.581944444444446
aF73.21944444444445
aF73.21944444444445
aF16.163611111111113
aF-52.805
aF-10.555555555555555
aF71.34333333333333
aF71.34333333333333
aF5.216944444444445
aF-53.191944444444445
aF74.13638888888889
aF74.13638888888889
aF-30.6275
aF-30.6275
aF-30.513333333333332
aF-30.513333333333332
aF-23.491944444444446
aF-23.491944444444446
aF2.7680555555555557
aF2.7680555555555557
aF4.805
aF4.805
aF4.805
aF4.805
aF4.805
aF4.805
aF-0.5261111111111111
aF-0.5261111111111111
aF3.958611111111111
aF27.936944444444446
aF3.3005555555555555
aF3.3005555555555555
aF32.400555555555556
aF32.400555555555556
aF32.400555555555556
aF32.400555555555556
aF68.16833333333334
aF12.051944444444445
aF12.051944444444445
aF53.03055555555556
aF53.03055555555556
aF32.06583333333333
aF32.06583333333333
aF32.06583333333333
aF15.432222222222222
aF58.010555555555555
aF58.010555555555555
aF32.772222222222226
aF32.772222222222226
aF32.772222222222226
aF13.679166666666667
aF57.603611111111114
aF3.4294444444444445
aF26.693333333333335
aF26.693333333333335
aF26.693333333333335
aF26.693333333333335
aF26.693333333333335
aF26.693333333333335
aF26.693333333333335
aF28.32888888888889
aF35.25555555555555
aF14.111666666666666
aF47.966944444444444
aF32.60861111111111
aF59.7375
aF-8.95111111111111
aF7.206666666666667
aF53.305
aF53.305
aF27.830833333333334
aF27.830833333333334
aF11.613611111111112
aF11.613611111111112
aF11.613611111111112
aF14.053611111111111
aF31.325555555555557
aF25.25638888888889
aF25.25638888888889
aF15.017222222222221
aF15.017222222222221
aF4.594722222222222
aF4.594722222222222
aF28.63361111111111
aF28.63361111111111
aF30.116944444444446
aF30.116944444444446
aF11.52138888888889
aF11.52138888888889
aF25.924444444444443
aF-30.123055555555556
aF59.2075
aF17.00583333333333
aF11.858055555555556
aF11.858055555555556
aF11.858055555555556
aF46.36805555555556
aF31.063333333333333
aF31.063333333333333
aF31.063333333333333
aF31.063333333333333
aF55.790277777777774
aF-30.128333333333334
aF-30.128333333333334
aF24.994722222222222
aF24.994722222222222
aF32.240833333333335
aF32.240833333333335
aF-26.899722222222223
aF0.8797222222222222
aF0.8797222222222222
aF5.09
aF5.09
aF7.206666666666667
aF5.2444444444444445
aF5.2444444444444445
aF5.2444444444444445
aF3.357222222222222
aF75.31055555555555
aF58.05638888888889
aF2.0525
aF2.0525
aF57.9025
aF57.9025
aF25.64666666666667
aF-38.477777777777774
aF-38.477777777777774
aF-38.477777777777774
aF6.643888888888889
aF26.54722222222222
aF26.54722222222222
aF-33.555277777777775
aF25.06
aF56.82222222222222
aF35.19
aF47.040277777777774
aF27.330833333333334
aF60.74138888888889
aF60.74138888888889
asS'PAs'
p521
(lp522
F45.0
aF45.0
aF45.0
aF45.0
aF83.0
aF83.0
aF95.0
aF95.0
aF27.0
aF15.0
aF15.0
aF135.0
aF28.0
aF5.0
aF5.0
aF5.0
aF60.0
aF28.0
aF115.0
aF115.0
aF115.0
aF115.0
aF145.0
aF145.0
aF76.0
aF35.0
aF60.0
aF60.0
aF100.0
aF100.0
aF100.0
aF100.0
aF100.0
aF100.0
aF83.0
aF83.0
aF105.0
aF175.0
aF100.0
aF100.0
aF105.0
aF105.0
aF105.0
aF105.0
aF135.0
aF97.0
aF97.0
aF28.0
aF28.0
aF105.0
aF160.0
aF160.0
aF67.0
aF105.0
aF105.0
aF150.0
aF150.0
aF30.0
aF30.0
aF60.0
aF100.0
aF148.0
aF148.0
aF134.0
aF134.0
aF120.0
aF90.0
aF70.0
aF5.0
aF175.0
aF150.0
aF175.0
aF30.0
aF165.0
aF45.0
aF90.0
aF28.0
aF28.0
aF95.0
aF95.0
aF35.0
aF35.0
aF35.0
aF95.0
aF117.0
aF120.0
aF120.0
aF0.0
aF0.0
aF48.0
aF130.0
aF83.0
aF83.0
aF100.0
aF100.0
aF104.0
aF104.0
aF0.0
aF145.0
aF13.0
aF30.0
aF135.0
aF135.0
aF135.0
aF25.0
aF110.0
aF110.0
aF110.0
aF110.0
aF83.0
aF105.0
aF105.0
aF50.0
aF50.0
aF84.0
aF84.0
aF100.0
aF140.0
aF140.0
aF175.0
aF175.0
aF90.0
aF115.0
aF85.0
aF85.0
aF130.0
aF140.0
aF100.0
aF83.0
aF70.0
aF60.0
aF60.0
aF65.0
aF160.0
aF160.0
aF160.0
aF173.0
aF140.0
aF140.0
aF45.0
aF145.0
aF155.0
aF43.0
aF40.0
aF163.0
aF70.0
aF70.0
asS'Lstar_meds'
p523
(lp524
F1.8
aF1.8
aF1.8
aF1.8
aF0.54
aF0.54
aF2.0
aF2.0
aF2.9
aF1.4
aF1.4
aF1.2
aF0.15
aF5.5
aF2.5
aF2.5
aF3.1
aF0.15
aF1.4
aF1.4
aF-99.99
aF-99.99
aF4.2
aF4.2
aF0.64
aF0.95
aF3.1
aF3.1
aF0.52
aF0.52
aF0.52
aF0.52
aF0.52
aF0.52
aF0.54
aF0.54
aF1.1
aF1.9
aF2.7
aF2.7
aF0.5
aF0.5
aF0.5
aF0.5
aF-99.99
aF1.6
aF1.6
aF0.45
aF0.45
aF0.5
aF-99.99
aF-99.99
aF-99.99
aF2.0
aF2.0
aF1.8
aF1.8
aF0.75
aF0.94
aF2.7
aF2.7
aF0.63
aF0.63
aF2.0
aF2.0
aF12.0
aF3.8
aF4.4
aF1.1
aF3.9
aF2.7
aF-99.99
aF0.75
aF-99.99
aF0.35
aF2.3
aF0.45
aF0.45
aF0.9
aF0.9
aF1.2
aF1.2
aF1.2
aF2.2
aF1.8
aF-99.99
aF-99.99
aF1.4
aF1.4
aF1.9
aF1.7
aF1.1
aF1.1
aF0.92
aF0.92
aF1.1
aF1.1
aF-99.99
aF4.2
aF5.1
aF-99.99
aF1.8
aF1.8
aF1.8
aF1.5
aF6.5
aF6.5
aF6.5
aF6.5
aF0.62
aF0.057
aF0.057
aF-99.99
aF-99.99
aF0.95
aF0.95
aF3.2
aF1.5
aF1.5
aF-99.99
aF-99.99
aF2.3
aF-99.99
aF-99.99
aF-99.99
aF1.3
aF0.69
aF2.8
aF0.54
aF0.81
aF2.7
aF2.7
aF1.6
aF1.1
aF1.1
aF1.1
aF4.4
aF4.2
aF4.2
aF1.6
aF2.4
aF1.2
aF0.42
aF1.7
aF4.1
aF3.3
aF3.3
asS'RA_galaxies'
p525
(lp526
F65.49508
aF65.49508
aF65.49508
aF65.49508
aF188.18996
aF188.18996
aF188.61271
aF188.61271
aF343.42021
aF276.03154
aF276.03154
aF0.81204
aF69.90367
aF196.05996
aF110.64454
aF110.64454
aF151.22461
aF69.90367
aF108.31017
aF108.31017
aF359.90754
aF359.90754
aF41.57937
aF41.57937
aF165.84904
aF165.70883
aF324.8615
aF324.8615
aF28.60129
aF28.60129
aF28.60129
aF28.60129
aF28.60129
aF28.60129
aF188.18996
aF188.18996
aF196.49433
aF38.16596
aF170.27854
aF170.27854
aF149.58783
aF149.58783
aF149.58783
aF149.58783
aF225.56167
aF186.86045
aF186.86045
aF170.26198
aF170.26198
aF149.58783
aF149.71388
aF149.71388
aF198.85505
aF147.12852
aF147.12852
aF137.39045
aF137.39045
aF137.16024
aF344.80333
aF234.98904
aF170.27854
aF188.99019
aF188.99019
aF189.08658
aF189.08658
aF188.92157
aF189.16625
aF188.94107
aF195.12825
aF198.36444
aF130.66585
aF188.29614
aF137.16024
aF150.2715
aF29.0945
aF184.49216
aF170.26198
aF170.26198
aF184.53437
aF184.53437
aF175.24483
aF175.24483
aF175.24483
aF183.44696
aF202.52721
aF208.94309
aF208.94309
aF233.42942
aF233.42942
aF209.05
aF209.03004
aF165.09945
aF165.09945
aF184.9608
aF184.9608
aF170.07071
aF170.07071
aF173.61421
aF41.57937
aF234.90454
aF144.38702
aF161.69058
aF161.69058
aF161.69058
aF173.33801
aF7.06221
aF7.06221
aF7.06221
aF7.06221
aF167.87904
aF41.54121
aF41.54121
aF128.87154
aF128.87154
aF190.53338
aF190.53338
aF54.71721
aF5.11464
aF5.11464
aF205.34403
aF205.34403
aF184.49216
aF121.99208
aF122.06849
aF122.06849
aF217.41823
aF185.43279
aF169.65045
aF188.18996
aF188.53509
aF234.98904
aF234.98904
aF205.93397
aF324.43825
aF324.43825
aF324.43825
aF184.84675
aF243.69459
aF243.69459
aF7.59154
aF175.66438
aF228.97404
aF163.12971
aF154.97897
aF139.20608
aF256.98946
aF256.98946
asS'bs'
p527
(lp528
F28.2
aF26.8
aF29.7
aF32.5
aF18.4
aF33.6
aF33.0
aF41.3
aF45.7
aF34.0
aF107.5
aF49.9
aF52.7
aF29.4
aF58.3
aF22.7
aF46.3
aF55.5
aF49.1
aF46.6
aF51.0
aF53.3
aF23.0
aF32.7
aF69.5
aF56.1
aF50.7
aF54.9
aF39.2
aF21.8
aF94.6
aF23.0
aF21.4
aF35.4
aF42.9
aF19.7
aF51.3
aF37.6
aF41.4
aF54.7
aF386.5
aF212.8
aF70.3
aF191.9
aF22.4
aF34.5
aF56.7
aF46.0
aF21.4
aF68.0
aF38.3
aF28.4
aF50.6
aF94.7
aF39.9
aF27.1
aF42.1
aF56.4
aF35.1
aF63.2
aF25.2
aF48.9
aF54.0
aF38.8
aF24.8
aF29.3
aF57.9
aF20.8
aF18.9
aF54.2
aF41.1
aF27.3
aF40.4
aF29.4
aF64.5
aF31.4
aF27.5
aF38.2
aF58.3
aF64.2
aF40.6
aF33.3
aF28.1
aF55.9
aF46.2
aF36.1
aF31.5
aF62.7
aF26.8
aF37.3
aF24.2
aF42.4
aF44.8
aF48.7
aF36.1
aF40.4
aF34.8
aF71.2
aF60.9
aF885.9
aF39.4
aF92.1
aF67.0
aF48.1
aF58.7
aF44.4
aF45.1
aF51.4
aF27.9
aF25.5
aF44.3
aF48.8
aF78.6
aF41.8
aF65.3
aF71.5
aF48.1
aF56.2
aF128.5
aF67.0
aF40.6
aF31.4
aF80.9
aF24.5
aF18.7
aF10.7
aF69.4
aF55.3
aF44.3
aF42.0
aF60.1
aF40.4
aF47.6
aF17.9
aF31.8
aF25.2
aF272.6
aF33.4
aF20.6
aF82.7
aF47.2
aF42.5
aF54.7
aF38.9
aF83.0
aF49.0
aF39.3
asS'e_Ws'
p529
(lp530
F9.6
aF2.6
aF3.4
aF4.3
aF5.6
aF4.1
aF3.8
aF4.0
aF3.4
aF6.7
aF12.4
aF4.8
aF3.1
aF3.3
aF3.2
aF4.6
aF3.7
aF3.6
aF4.6
aF4.6
aF8.2
aF6.1
aF4.8
aF7.1
aF4.2
aF3.0
aF4.6
aF5.8
aF5.7
aF6.2
aF5.1
aF2.1
aF2.0
aF4.1
aF4.8
aF4.5
aF4.5
aF5.4
aF4.1
aF4.0
aF9.1
aF10.3
aF6.2
aF8.8
aF5.8
aF3.9
aF2.4
aF4.0
aF5.4
aF3.6
aF4.0
aF7.5
aF5.7
aF7.2
aF3.2
aF5.3
aF5.3
aF6.7
aF2.0
aF4.1
aF1.7
aF3.6
aF3.4
aF4.9
aF5.0
aF3.4
aF3.5
aF5.0
aF2.8
aF2.6
aF4.7
aF5.8
aF4.7
aF4.9
aF3.0
aF3.9
aF5.7
aF7.3
aF4.8
aF3.9
aF8.6
aF2.2
aF4.8
aF5.2
aF3.9
aF3.8
aF3.0
aF5.4
aF2.9
aF6.8
aF4.5
aF6.3
aF5.8
aF3.9
aF4.3
aF9.5
aF5.4
aF4.8
aF3.0
aF-99.0
aF5.1
aF6.8
aF4.8
aF6.8
aF6.6
aF3.2
aF2.7
aF4.6
aF3.1
aF2.3
aF3.6
aF3.7
aF8.5
aF3.0
aF6.5
aF5.8
aF11.0
aF8.4
aF6.7
aF5.7
aF5.2
aF3.9
aF4.7
aF5.8
aF3.4
aF4.8
aF6.0
aF4.1
aF3.6
aF3.6
aF4.6
aF6.0
aF4.8
aF5.5
aF2.6
aF4.4
aF9.1
aF4.1
aF3.0
aF4.0
aF4.1
aF3.2
aF5.1
aF6.2
aF6.5
aF4.6
aF4.1
asS'Dec_galaxies'
p531
(lp532
F-56.97475
aF-56.97475
aF-56.97475
aF-56.97475
aF0.11503
aF0.11503
aF2.18814
aF2.18814
aF-17.47889
aF73.18322
aF73.18322
aF16.14542
aF-53.01264
aF-10.33961
aF71.59894
aF71.59894
aF5.06264
aF-53.01264
aF73.84314
aF73.84314
aF-30.65583
aF-30.65583
aF-30.27489
aF-30.27489
aF-23.08678
aF-23.59161
aF2.82711
aF2.82711
aF4.80389
aF4.80389
aF4.80389
aF4.80389
aF4.80389
aF4.80389
aF0.11503
aF0.11503
aF3.95644
aF28.06994
aF3.23483
aF3.23483
aF32.36989
aF32.36989
aF32.36989
aF32.36989
aF68.26181
aF11.10771
aF11.10771
aF53.16957
aF53.16957
aF32.36989
aF32.07308
aF32.07308
aF15.42285
aF57.97071
aF57.97071
aF33.12353
aF33.12353
aF32.59295
aF13.60667
aF58.07953
aF3.23483
aF27.95999
aF27.95999
aF25.98767
aF25.98767
aF26.52312
aF26.82994
aF26.90889
aF28.34623
aF36.59394
aF14.28562
aF48.0496
aF32.59295
aF59.824
aF-9.06142
aF7.18591
aF53.16957
aF53.16957
aF28.17539
aF28.17539
aF11.47114
aF11.47114
aF11.47114
aF13.42481
aF31.38811
aF25.1519
aF25.1519
aF15.00728
aF15.00728
aF5.01447
aF5.25477
aF28.97514
aF28.97514
aF29.61448
aF29.61448
aF13.58968
aF13.58968
aF25.87648
aF-30.27489
aF59.33194
aF17.11244
aF11.81994
aF11.81994
aF11.81994
aF47.02921
aF30.80325
aF30.80325
aF30.80325
aF30.80325
aF55.67411
aF-30.22803
aF-30.22803
aF25.0275
aF25.0275
aF32.5415
aF32.5415
aF-26.33783
aF0.83355
aF0.83355
aF5.04011
aF5.04011
aF7.18591
aF5.20667
aF5.21612
aF5.21612
aF3.23332
aF75.32258
aF58.0
aF0.11503
aF2.65366
aF58.07953
aF58.07953
aF25.39215
aF-38.49256
aF-38.49256
aF-38.49256
aF5.82522
aF26.55884
aF26.55884
aF-33.24403
aF24.82252
aF56.32877
aF36.61878
aF45.54962
aF27.4896
aF60.99017
aF60.99017
asS'MajDiams'
p533
(lp534
F27.04
aF27.04
aF27.04
aF27.04
aF36.35
aF36.35
aF29.62
aF29.62
aF75.31
aF29.93
aF29.93
aF33.37
aF14.52
aF41.85
aF26.84
aF26.84
aF40.35
aF14.52
aF36.98
aF36.98
aF34.6
aF34.6
aF50.56
aF50.56
aF28.11
aF28.36
aF36.88
aF36.88
aF14.65
aF14.65
aF14.65
aF14.65
aF14.65
aF14.65
aF36.35
aF36.35
aF52.84
aF35.43
aF27.71
aF27.71
aF15.54
aF15.54
aF15.54
aF15.54
aF47.65
aF33.47
aF33.47
aF15.79
aF15.79
aF15.54
aF31.89
aF31.89
aF34.99
aF38.62
aF38.62
aF21.53
aF21.53
aF23.54
aF33.56
aF65.61
aF27.71
aF22.3
aF22.3
aF37.57
aF37.57
aF58.77
aF41.22
aF54.66
aF28.19
aF46.85
aF25.3
aF55.68
aF23.54
aF51.02
aF13.97
aF37.63
aF15.79
aF15.79
aF15.03
aF15.03
aF16.12
aF16.12
aF16.12
aF34.08
aF31.92
aF45.8
aF45.8
aF23.54
aF23.54
aF33.38
aF22.53
aF17.31
aF17.31
aF25.16
aF25.16
aF45.02
aF45.02
aF44.69
aF50.56
aF71.0
aF34.73
aF22.47
aF22.47
aF22.47
aF31.4
aF42.59
aF42.59
aF42.59
aF42.59
aF25.32
aF8.37
aF8.37
aF23.45
aF23.45
aF17.4
aF17.4
aF42.39
aF36.47
aF36.47
aF33.99
aF33.99
aF37.63
aF55.81
aF41.69
aF41.69
aF17.41
aF13.45
aF30.94
aF36.35
aF31.32
aF65.61
aF65.61
aF48.12
aF45.23
aF45.23
aF45.23
aF47.49
aF35.54
aF35.54
aF38.65
aF40.36
aF50.62
aF28.98
aF31.67
aF35.67
aF39.04
aF39.04
asS'RA_targets'
p535
(lp536
F66.50333333333333
aF66.50333333333333
aF66.50333333333333
aF66.50333333333333
aF187.70833333333334
aF187.70833333333334
aF187.70833333333334
aF187.70833333333334
aF343.52458333333334
aF277.59708333333333
aF277.59708333333333
aF1.4970833333333333
aF70.05
aF196.3875
aF110.47291666666666
aF110.47291666666666
aF151.08375
aF69.91125
aF108.65083333333334
aF108.65083333333334
aF359.7825
aF359.7825
aF40.90708333333333
aF40.90708333333333
aF165.90708333333333
aF165.90708333333333
aF324.93416666666667
aF324.93416666666667
aF28.616666666666667
aF28.616666666666667
aF28.616666666666667
aF28.616666666666667
aF28.616666666666667
aF28.616666666666667
aF188.26708333333335
aF188.26708333333335
aF196.35125000000002
aF38.343333333333334
aF170.60041666666666
aF170.60041666666666
aF149.58708333333334
aF149.58708333333334
aF149.58708333333334
aF149.58708333333334
aF225.81875
aF187.80458333333334
aF187.80458333333334
aF169.41875000000002
aF169.41875000000002
aF149.81166666666667
aF149.81166666666667
aF149.81166666666667
aF198.93833333333333
aF147.16708333333335
aF147.16708333333335
aF137.1616666666667
aF137.1616666666667
aF137.1616666666667
aF344.40916666666664
aF234.54166666666666
aF170.30916666666667
aF189.01708333333332
aF189.01708333333332
aF189.01708333333332
aF189.01708333333332
aF189.01708333333332
aF189.01708333333332
aF189.01708333333332
aF195.25333333333333
aF198.07375000000002
aF130.49666666666667
aF188.39624999999998
aF137.27541666666667
aF150.26083333333332
aF28.875
aF184.16916666666665
aF171.20125
aF171.20125
aF184.31375
aF184.31375
aF175.19208333333333
aF175.19208333333333
aF175.19208333333333
aF183.57375000000002
aF202.72166666666666
aF209.10666666666668
aF209.10666666666668
aF233.30958333333334
aF233.30958333333334
aF209.35916666666665
aF209.35916666666665
aF165.21833333333333
aF165.21833333333333
aF184.46708333333333
aF184.46708333333333
aF171.16458333333333
aF171.16458333333333
aF173.74
aF41.25333333333334
aF236.08416666666665
aF144.27875
aF160.89958333333334
aF160.89958333333334
aF160.89958333333334
aF175.2
aF7.044583333333334
aF7.044583333333334
aF7.044583333333334
aF7.044583333333334
aF167.88375
aF41.70791666666666
aF41.70791666666666
aF128.89958333333334
aF128.89958333333334
aF190.54291666666668
aF190.54291666666668
aF55.58583333333333
aF5.254166666666666
aF5.254166666666666
aF205.52708333333334
aF205.52708333333334
aF184.16916666666665
aF122.16166666666668
aF122.16166666666668
aF122.16166666666668
aF217.41958333333335
aF185.43375
aF169.74125
aF187.27791666666667
aF187.27791666666667
aF233.96791666666667
aF233.96791666666667
aF205.98666666666668
aF324.7079166666667
aF324.7079166666667
aF324.7079166666667
aF184.83708333333334
aF243.54458333333335
aF243.54458333333335
aF9.220416666666667
aF175.63208333333333
aF226.23166666666665
aF163.56708333333336
aF154.37875
aF139.36916666666667
aF256.17333333333335
aF256.17333333333335
asS'e_Lya_vs'
p537
(lp538
F8.0
aF1.0
aF7.0
aF1.0
aF3.0
aF1.0
aF1.0
aF1.0
aF1.0
aF1.0
aF5.0
aF3.0
aF1.0
aF1.0
aF4.0
aF1.0
aF1.0
aF1.0
aF4.0
aF1.0
aF1.0
aF10.0
aF1.0
aF2.0
aF1.0
aF1.0
aF1.0
aF6.0
aF1.0
aF9.0
aF1.0
aF1.0
aF8.0
aF1.0
aF1.0
aF1.0
aF1.0
aF1.0
aF2.0
aF1.0
aF1.0
aF1.0
aF1.0
aF1.0
aF1.0
aF2.0
aF2.0
aF2.0
aF5.0
aF1.0
aF1.0
aF1.0
aF1.0
aF1.0
aF1.0
aF1.0
aF6.0
aF1.0
aF1.0
aF1.0
aF3.0
aF1.0
aF1.0
aF4.0
aF1.0
aF1.0
aF1.0
aF1.0
aF7.0
aF4.0
aF2.0
aF1.0
aF3.0
aF1.0
aF1.0
aF1.0
aF1.0
aF1.0
aF1.0
aF1.0
aF1.0
aF1.0
aF1.0
aF1.0
aF1.0
aF1.0
aF1.0
aF2.0
aF5.0
aF1.0
aF1.0
aF1.0
aF4.0
aF1.0
aF1.0
aF6.0
aF1.0
aF1.0
aF1.0
aF1.0
aF1.0
aF1.0
aF1.0
aF1.0
aF6.0
aF1.0
aF1.0
aF1.0
aF1.0
aF1.0
aF1.0
aF1.0
aF8.0
aF1.0
aF6.0
aF7.0
aF1.0
aF6.0
aF6.0
aF7.0
aF9.0
aF1.0
aF1.0
aF1.0
aF1.0
aF4.0
aF4.0
aF1.0
aF1.0
aF1.0
aF1.0
aF1.0
aF1.0
aF1.0
aF11.0
aF11.0
aF1.0
aF1.0
aF1.0
aF1.0
aF1.0
aF1.0
aF5.0
aF1.0
aF8.0
aF1.0
aF3.0
asS'z_targets'
p539
(lp540
F0.104
aF0.104
aF0.104
aF0.104
aF0.117
aF0.117
aF0.117
aF0.117
aF0.06609
aF0.123
aF0.123
aF0.4509
aF1.053
aF0.2784
aF0.23149
aF0.23149
aF0.161
aF0.243
aF0.371
aF0.371
aF0.16539
aF0.16539
aF0.66929
aF0.66929
aF0.186
aF0.186
aF0.26
aF0.26
aF0.404
aF0.404
aF0.404
aF0.404
aF0.404
aF0.404
aF0.47095
aF0.47095
aF0.54566
aF0.0376
aF0.47528
aF0.47528
aF0.5306
aF0.5306
aF0.5306
aF0.5306
aF0.114
aF0.11612
aF0.11612
aF0.15871
aF0.15871
aF0.56462
aF0.56462
aF0.56462
aF0.44811
aF0.49179
aF0.49179
aF0.25989
aF0.25989
aF0.25989
aF0.59455
aF0.07342
aF0.152
aF0.20915
aF0.20915
aF0.20915
aF0.20915
aF0.20915
aF0.20915
aF0.20915
aF1.36
aF0.184
aF1.25567
aF0.38223
aF0.81028
aF0.74749
aF0.16443
aF0.58756
aF0.53151
aF0.53151
aF0.39566
aF0.39566
aF0.68736
aF0.68736
aF0.68736
aF0.0809
aF0.24232
aF0.16404
aF0.16404
aF0.09
aF0.09
aF1.23453
aF1.23453
aF0.24298
aF0.24298
aF0.13
aF0.13
aF0.14285
aF0.14285
aF0.70994
aF0.33921
aF0.807
aF0.50567
aF0.794
aF0.794
aF0.794
aF0.11439
aF0.5
aF0.5
aF0.5
aF0.5
aF0.76827
aF0.53
aF0.53
aF0.331
aF0.331
aF1.49257
aF1.49257
aF0.283
aF0.0983
aF0.0983
aF0.26608
aF0.26608
aF0.58756
aF0.36061
aF0.36061
aF0.36061
aF0.25344
aF0.07085
aF0.0271
aF0.15834
aF0.15834
aF0.02958
aF0.02958
aF0.087
aF0.18299
aF0.18299
aF0.18299
aF0.3313
aF0.39233
aF0.39233
aF0.0206
aF0.18417
aF0.35894
aF0.20466
aF0.33544
aF0.07564
aF0.37194
aF0.37194
asS'Lstar_sdsss'
p541
(lp542
F-99.99
aF-99.99
aF-99.99
aF-99.99
aF-99.99
aF-99.99
aF0.11
aF0.11
aF-99.99
aF-99.99
aF-99.99
aF0.28
aF-99.99
aF-99.99
aF-99.99
aF-99.99
aF2.0
aF-99.99
aF-99.99
aF-99.99
aF-99.99
aF-99.99
aF-99.99
aF-99.99
aF-99.99
aF-99.99
aF-99.99
aF-99.99
aF-99.99
aF-99.99
aF-99.99
aF-99.99
aF-99.99
aF-99.99
aF-99.99
aF-99.99
aF1.1
aF-99.99
aF-99.99
aF-99.99
aF0.38
aF0.38
aF0.38
aF0.38
aF-99.99
aF0.61
aF0.61
aF0.055
aF0.055
aF0.38
aF1.5
aF1.5
aF1.0
aF2.4
aF2.4
aF0.46
aF0.46
aF0.73
aF-99.99
aF-99.99
aF-99.99
aF0.23
aF0.23
aF-99.99
aF-99.99
aF7.0
aF1.6
aF3.8
aF1.1
aF0.51
aF1.1
aF1.8
aF0.73
aF0.2
aF-99.99
aF1.1
aF0.055
aF0.055
aF-99.99
aF-99.99
aF0.37
aF0.37
aF0.37
aF0.19
aF1.5
aF2.2
aF2.2
aF-99.99
aF-99.99
aF-99.99
aF-99.99
aF0.16
aF0.16
aF-99.99
aF-99.99
aF0.015
aF0.015
aF2.1
aF-99.99
aF-99.99
aF1.1
aF0.46
aF0.46
aF0.46
aF0.015
aF-99.99
aF-99.99
aF-99.99
aF-99.99
aF-99.99
aF-99.99
aF-99.99
aF0.64
aF0.64
aF0.13
aF0.13
aF-99.99
aF0.98
aF0.98
aF1.0
aF1.0
aF1.1
aF2.0
aF1.8
aF1.8
aF0.82
aF-99.99
aF1.4
aF-99.99
aF-99.99
aF-99.99
aF-99.99
aF1.4
aF-99.99
aF-99.99
aF-99.99
aF8.0
aF2.1
aF2.1
aF-99.99
aF1.3
aF0.49
aF-99.99
aF0.04
aF2.3
aF1.1
aF1.1
asS'Names'
p543
(lp544
S'NGC1574'
p545
aS'NGC1574'
p546
aS'NGC1574'
p547
aS'NGC1574'
p548
aS'NGC4517'
p549
aS'NGC4517'
p550
aS'NGC4536'
p551
aS'NGC4536'
p552
aS'MCG-03-58-009'
p553
aS'NGC6654'
p554
aS'NGC6654'
p555
aS'NGC7814'
p556
aS'ESO157-G049'
p557
aS'NGC4939'
p558
aS'UGC03804'
p559
aS'UGC03804'
p560
aS'UGC05432'
p561
aS'ESO157-G049'
p562
aS'UGC03717'
p563
aS'UGC03717'
p564
aS'MCG-05-01-020'
p565
aS'MCG-05-01-020'
p566
aS'NGC1097'
p567
aS'NGC1097'
p568
aS'NGC3511'
p569
aS'MCG-04-26-019'
p570
aS'UGC11785'
p571
aS'UGC11785'
p572
aS'IC1746'
p573
aS'IC1746'
p574
aS'IC1746'
p575
aS'IC1746'
p576
aS'IC1746'
p577
aS'IC1746'
p578
aS'NGC4517'
p579
aS'NGC4517'
p580
aS'UGC08186'
p581
aS'NGC0962'
p582
aS'NGC3640'
p583
aS'NGC3640'
p584
aS'NGC3067'
p585
aS'NGC3067'
p586
aS'NGC3067'
p587
aS'NGC3067'
p588
aS'MCG+11-18-020'
p589
aS'NGC4429'
p590
aS'NGC4429'
p591
aS'NGC3631'
p592
aS'NGC3631'
p593
aS'NGC3067'
p594
aS'MCG+05-24-007'
p595
aS'MCG+05-24-007'
p596
aS'PGC046123'
p597
aS'MRK0021'
p598
aS'MRK0021'
p599
aS'NGC2770'
p600
aS'NGC2770'
p601
aS'IC2439'
p602
aS'UGC12281'
p603
aS'NGC5987'
p604
aS'NGC3640'
p605
aS'NGC4559'
p606
aS'NGC4559'
p607
aS'NGC4565'
p608
aS'NGC4565'
p609
aS'NGC4555'
p610
aS'IC3585'
p611
aS'NGC4556'
p612
aS'NGC4896'
p613
aS'NGC5033'
p614
aS'NGC2648'
p615
aS'UGC07708'
p616
aS'IC2439'
p617
aS'MCG+10-14-058'
p618
aS'NGC0755'
p619
aS'NGC4246'
p620
aS'NGC3631'
p621
aS'NGC3631'
p622
aS'NGC4251'
p623
aS'NGC4251'
p624
aS'NGC3810'
p625
aS'NGC3810'
p626
aS'NGC3810'
p627
aS'NGC4189'
p628
aS'UGC08492'
p629
aS'IC4349'
p630
aS'IC4349'
p631
aS'NGC5951'
p632
aS'NGC5951'
p633
aS'NGC5364'
p634
aS'NGC5363'
p635
aS'NGC3486'
p636
aS'NGC3486'
p637
aS'NGC4274'
p638
aS'NGC4274'
p639
aS'NGC3628'
p640
aS'NGC3628'
p641
aS'IC0710'
p642
aS'NGC1097'
p643
aS'NGC5985'
p644
aS'PGC027405'
p645
aS'NGC3368'
p646
aS'NGC3368'
p647
aS'NGC3368'
p648
aS'NGC3726'
p649
aS'UGC00279'
p650
aS'UGC00279'
p651
aS'UGC00279'
p652
aS'UGC00279'
p653
aS'NGC3556'
p654
aS'NGC1097A'
p655
aS'NGC1097A'
p656
aS'NGC2611'
p657
aS'NGC2611'
p658
aS'NGC4631'
p659
aS'NGC4631'
p660
aS'NGC1398'
p661
aS'NGC0078B'
p662
aS'NGC0078B'
p663
aS'PGC048445'
p664
aS'PGC048445'
p665
aS'NGC4246'
p666
aS'UGC04239'
p667
aS'PGC022840'
p668
aS'PGC022840'
p669
aS'NGC5638'
p670
aS'NGC4319'
p671
aS'NGC3613'
p672
aS'NGC4517'
p673
aS'NGC4527'
p674
aS'NGC5987'
p675
aS'NGC5987'
p676
aS'IC4322'
p677
aS'ESO343-G014'
p678
aS'ESO343-G014'
p679
aS'ESO343-G014'
p680
aS'NGC4261'
p681
aS'NGC6096'
p682
aS'NGC6096'
p683
aS'NGC0134'
p684
aS'UGC06674'
p685
aS'NGC5907'
p686
aS'NGC3432'
p687
aS'NGC3198'
p688
aS'UGC04895'
p689
aS'NGC6310'
p690
aS'NGC6310'
p691
asS'l_cuss'
p692
(lp693
F0.1295854518205662
aF0.11274634073145963
aF0.07771245364845333
aF0.038475263301534945
aF0.37769820870120324
aF0.013797266420318222
aF0.010290428466428102
aF0.011793389800233964
aF0.7443862922690794
aF0.021652232205333362
aF0.07430725215147414
aF0.11731216625286803
aF0.054241827369395416
aF0.024278684523473256
aF0.1274410116579993
aF0.09923875405506993
aF0.13659560930479953
aF0.1598573926146243
aF0.14262179117988127
aF0.17083468074968527
aF0.24724568483227613
aF0.25666776815938336
aF0.737260146418847
aF0.7593902511316547
aF0.601411896928824
aF0.2152564492328844
aF0.7753599145266621
aF0.5835483599541823
aF0.13499683208451052
aF0.4903778969443361
aF0.9447084034720139
aF0.6711893662421229
aF0.46277978385794444
aF0.27261248341946026
aF0.7796065317571103
aF0.7561685839346431
aF0.6355144463081173
aF0.30800589857689015
aF0.09596714453886694
aF0.4392773052589166
aF0.9667587396805518
aF0.8629648590384399
aF0.9411231201477656
aF0.4904625722121118
aF0.3520625674848771
aF0.026553498798121116
aF0.012618468824574049
aF0.20627270553517188
aF0.16070961558822927
aF0.013013958963821853
aF0.158116638153008
aF0.30862686075893503
aF0.5284462902567721
aF0.8077350985143265
aF0.7202577660864078
aF0.015042523070363998
aF0.014967123990778965
aF0.049242234309259524
aF0.22964269346810315
aF0.10267039275690415
aF0.35539166509119796
aF0.0949493672272285
aF0.034379785916676675
aF0.6001020994081873
aF0.655304364557925
aF0.07393702702429511
aF0.05362555446403974
aF0.05243320621074266
aF0.010676197105168723
aF0.1774917372621504
aF0.28407594400843333
aF0.6818090782060168
aF0.40481850005936054
aF0.6385072871717042
aF0.07685667676587495
aF0.1275688742642566
aF0.0939477336181895
aF0.1493568788654607
aF0.04682437332700681
aF0.033462615649770426
aF0.6136622854727429
aF0.6692915421508484
aF0.6701119266729122
aF0.03846612260965179
aF0.060644446292341544
aF0.12962613077086296
aF0.15149905539488226
aF0.7889206716407058
aF0.37542764874931245
aF0.07395041010468052
aF0.018444294311802896
aF0.2888736930172505
aF0.3205343811850855
aF0.22956714468850623
aF0.18797717693138866
aF0.06431062159897022
aF0.035365076928788264
aF0.33354365358844634
aF0.9116995442138651
aF0.019157175594628498
aF0.0464751751612597
aF0.0701521049561613
aF0.15681093007548463
aF0.10133590721878788
aF0.012279137636279377
aF0.040138296339580874
aF0.14123934019141818
aF0.15210269223064984
aF0.10666903388031326
aF0.21084213343680946
aF0.013068364723718057
aF0.018040052106746213
aF0.7446416638145728
aF0.78808276376347
aF0.8807495207577706
aF0.6736079553730341
aF0.27739972042280453
aF0.46309748521570776
aF0.059282406944756054
aF0.0519952598340639
aF0.046747115691324684
aF0.1275688742642566
aF0.43218683334035396
aF0.030329044744165614
aF0.11995369889606608
aF0.16668501524963067
aF0.3722886587658452
aF0.019284588789902177
aF0.046450662751090145
aF0.015513641382541077
aF0.4109959824786632
aF0.20440093638467177
aF0.0596996836428587
aF0.05637276013009144
aF0.03604564548377882
aF0.015108931596556852
aF0.01433778486902463
aF0.07821326851628879
aF0.061672572819758346
aF0.040818506479764746
aF0.05072511772504136
aF0.25686559112333834
aF0.02589311489297857
aF0.013100201829098065
aF0.022433217053360176
aF0.027327144920331194
aF0.012961786486552792
as.