(dp0
S'e_bs'
p1
(lp2
F2.4
aF1.4
aF2.8
aF1.9
aF2.5
aF2.1
aF2.9
aF2.1
aF1.8
aF1.5
aF2.3
aF2.2
aF1.5
aF2.2
aF2.9
aF2.5
aF3.5
aF3.1
aF3.9
aF1.9
aF3.1
aF1.8
aF2.9
aF2.6
aF1.6
aF3.2
aF2.2
aF4.9
aF1.7
aF1.6
aF1.9
aF3.5
aF2.3
aF2.8
aF1.4
aF2.5
aF3.0
aF2.4
aF4.0
aF5.0
aF1.9
aF3.3
aF3.2
aF3.8
aF2.7
aF1.7
aF5.1
aF2.8
aF3.6
aF2.2
aF3.4
aF2.4
aF3.3
aF2.6
aF2.8
aF3.2
aF2.4
aF2.4
aF3.7
aF3.6
aF2.0
aF2.4
aF3.0
aF3.4
aF2.6
aF2.8
aF4.1
aF2.5
aF3.2
aF5.0
aF2.7
aF2.7
aF1.9
aF4.1
aF2.5
aF2.4
aF2.0
aF3.6
aF2.3
aF2.5
aF2.7
aF3.5
aF3.0
aF3.7
aF2.1
aF3.4
aF3.2
aF3.2
aF2.8
aF4.0
aF2.8
aF3.2
aF4.3
aF16.1
asS'e_Ws'
p3
(lp4
F3.9
aF2.3
aF4.6
aF3.2
aF4.1
aF3.5
aF4.8
aF3.5
aF3.0
aF2.6
aF3.8
aF3.7
aF2.4
aF3.7
aF4.8
aF4.2
aF5.8
aF5.2
aF6.6
aF3.1
aF5.1
aF3.0
aF4.9
aF4.4
aF2.6
aF5.4
aF3.7
aF8.2
aF2.8
aF2.6
aF3.1
aF5.8
aF3.9
aF4.6
aF2.3
aF4.2
aF5.0
aF3.9
aF6.7
aF8.3
aF3.2
aF5.4
aF5.4
aF6.2
aF4.4
aF2.8
aF8.5
aF4.6
aF6.0
aF3.7
aF5.6
aF4.0
aF5.5
aF4.3
aF4.6
aF5.3
aF4.0
aF4.1
aF6.2
aF6.0
aF3.3
aF3.9
aF5.0
aF5.7
aF4.3
aF4.6
aF6.8
aF4.2
aF5.3
aF8.3
aF4.5
aF4.5
aF3.2
aF6.9
aF4.2
aF4.0
aF3.2
aF5.9
aF3.8
aF4.1
aF4.4
aF5.8
aF4.9
aF6.2
aF3.5
aF5.6
aF5.4
aF5.4
aF4.6
aF6.6
aF4.7
aF5.4
aF7.1
aF-99.0
asS'RA_targets'
p5
(lp6
F66.50291667
aF187.7083333
aF187.7083333
aF187.7083333
aF343.5245833
aF343.5245833
aF70.05
aF70.05
aF70.05
aF70.05
aF70.05
aF131.18875
aF131.18875
aF131.18875
aF196.3875
aF196.3875
aF196.3875
aF208.64875
aF151.08375
aF151.08375
aF69.91125
aF69.91125
aF217.2458333
aF217.2458333
aF141.4779167
aF141.4779167
aF152.5029167
aF108.6508333
aF108.6508333
aF40.90708333
aF40.90708333
aF165.9070833
aF213.92875
aF205.6304167
aF188.2670833
aF188.2670833
aF196.35125
aF196.35125
aF38.34333333
aF38.34333333
aF38.34333333
aF38.34333333
aF170.6004167
aF151.85875
aF151.85875
aF151.85875
aF149.5870833
aF169.41875
aF169.41875
aF164.9383333
aF164.9383333
aF164.9383333
aF149.8116667
aF149.8116667
aF198.9383333
aF198.9383333
aF147.1670833
aF162.7529167
aF234.5416667
aF234.5416667
aF137.86375
aF195.9416667
aF195.25375
aF195.25375
aF195.25375
aF195.25375
aF141.4766667
aF141.4766667
aF141.4766667
aF141.4766667
aF150.2608333
aF150.2608333
aF150.2608333
aF150.2608333
aF179.3433333
aF171.20125
aF184.31375
aF184.31375
aF184.31375
aF183.57375
aF183.57375
aF183.57375
aF202.7220833
aF209.1066667
aF209.3595833
aF33.07625
aF302.3558333
aF302.3558333
aF171.1641667
aF184.87875
aF184.87875
aF173.74
aF175.55125
aF236.0845833
asS'e_Nas'
p7
(lp8
F550000000000.0
aF391000000000.0
aF1410000000000.0
aF348000000000.0
aF963000000000.0
aF1770000000000.0
aF4710000000000.0
aF2210000000000.0
aF2430000000000.0
aF1550000000000.0
aF1510000000000.0
aF1380000000000.0
aF1200000000000.0
aF1300000000000.0
aF4690000000000.0
aF953000000000.0
aF1010000000000.0
aF1370000000000.0
aF3470000000000.0
aF3300000000000.0
aF3730000000000.0
aF2000000000000.0
aF2450000000000.0
aF6440000000000.0
aF3900000000000.0
aF4760000000000.0
aF1380000000000.0
aF1650000000000.0
aF2140000000000.0
aF2830000000000.0
aF1910000000000.0
aF2290000000000.0
aF1770000000000.0
aF2470000000000.0
aF2780000000000.0
aF3970000000000.0
aF13300000000000.0
aF25200000000000.0
aF15600000000000.0
aF9330000000000.0
aF3770000000000.0
aF5210000000000.0
aF3560000000000.0
aF4590000000000.0
aF12200000000000.0
aF7590000000000.0
aF5700000000000.0
aF13100000000000.0
aF4350000000000.0
aF3690000000000.0
aF5010000000000.0
aF4190000000000.0
aF5170000000000.0
aF3800000000000.0
aF6330000000000.0
aF9640000000000.0
aF4940000000000.0
aF5930000000000.0
aF9560000000000.0
aF4060000000000.0
aF6010000000000.0
aF8440000000000.0
aF2320000000000.0
aF4280000000000.0
aF3270000000000.0
aF1880000000000.0
aF1970000000000.0
aF2540000000000.0
aF11800000000000.0
aF3250000000000.0
aF3740000000000.0
aF4590000000000.0
aF4260000000000.0
aF6080000000000.0
aF10900000000000.0
aF4800000000000.0
aF5710000000000.0
aF4640000000000.0
aF5520000000000.0
aF1530000000000.0
aF1640000000000.0
aF1930000000000.0
aF4510000000000.0
aF4070000000000.0
aF1580000000000.0
aF34900000000000.0
aF2780000000000.0
aF3790000000000.0
aF7130000000000.0
aF3600000000000.0
aF2860000000000.0
aF4940000000000.0
aF5690000000000.0
aF362000000000000.0
asS'e_Lya_vs'
p9
(lp10
F1.0
aF1.0
aF1.0
aF1.0
aF1.0
aF1.0
aF4.0
aF3.0
aF1.0
aF5.0
aF1.0
aF1.0
aF1.0
aF1.0
aF1.0
aF1.0
aF1.0
aF1.0
aF3.0
aF5.0
aF2.0
aF1.0
aF3.0
aF1.0
aF6.0
aF1.0
aF1.0
aF4.0
aF3.0
aF4.0
aF3.0
aF5.0
aF4.0
aF5.0
aF1.0
aF1.0
aF7.0
aF6.0
aF1.0
aF2.0
aF1.0
aF1.0
aF-99.0
aF2.0
aF7.0
aF12.0
aF5.0
aF1.0
aF1.0
aF1.0
aF1.0
aF1.0
aF1.0
aF5.0
aF1.0
aF1.0
aF1.0
aF2.0
aF5.0
aF1.0
aF1.0
aF1.0
aF7.0
aF11.0
aF1.0
aF1.0
aF1.0
aF1.0
aF1.0
aF1.0
aF2.0
aF1.0
aF3.0
aF1.0
aF1.0
aF1.0
aF2.0
aF2.0
aF5.0
aF1.0
aF1.0
aF1.0
aF1.0
aF1.0
aF1.0
aF1.0
aF6.0
aF1.0
aF2.0
aF1.0
aF1.0
aF1.0
aF1.0
aF1.0
asS'e_Lya_Ws'
p11
(lp12
F2.0
aF2.0
aF3.0
aF2.0
aF4.0
aF5.0
aF20.0
aF10.0
aF11.0
aF7.0
aF7.0
aF7.0
aF5.0
aF6.0
aF8.0
aF4.0
aF5.0
aF7.0
aF16.0
aF15.0
aF17.0
aF8.0
aF11.0
aF11.0
aF11.0
aF13.0
aF6.0
aF8.0
aF9.0
aF13.0
aF8.0
aF11.0
aF7.0
aF11.0
aF9.0
aF13.0
aF25.0
aF22.0
aF41.0
aF35.0
aF15.0
aF23.0
aF16.0
aF16.0
aF20.0
aF17.0
aF26.0
aF25.0
aF18.0
aF13.0
aF17.0
aF13.0
aF15.0
aF16.0
aF17.0
aF19.0
aF18.0
aF17.0
aF37.0
aF17.0
aF20.0
aF31.0
aF11.0
aF9.0
aF10.0
aF8.0
aF10.0
aF10.0
aF13.0
aF15.0
aF14.0
aF12.0
aF15.0
aF16.0
aF25.0
aF17.0
aF24.0
aF18.0
aF23.0
aF6.0
aF6.0
aF9.0
aF19.0
aF18.0
aF7.0
aF15.0
aF8.0
aF6.0
aF25.0
aF16.0
aF14.0
aF19.0
aF24.0
aF136.0
asS'z_targets'
p13
(lp14
F0.104
aF0.117
aF0.117
aF0.117
aF0.06609
aF0.06609
aF1.053
aF1.053
aF1.053
aF1.053
aF1.053
aF0.131
aF0.131
aF0.131
aF0.2784
aF0.2784
aF0.2784
aF0.152
aF0.161
aF0.161
aF0.243
aF0.243
aF0.62717
aF0.62717
aF0.19
aF0.19
aF0.25643
aF0.371
aF0.371
aF0.66929
aF0.66929
aF0.186
aF0.7435
aF0.1719
aF0.47095
aF0.47095
aF0.54566
aF0.54566
aF0.0376
aF0.0376
aF0.0376
aF0.0376
aF0.47528
aF0.24
aF0.24
aF0.24
aF0.5306
aF0.15871
aF0.15871
aF0.63171
aF0.63171
aF0.63171
aF0.56462
aF0.56462
aF0.44811
aF0.44811
aF0.49179
aF0.03251
aF0.07342
aF0.07342
aF0.29038
aF0.437
aF1.36
aF1.36
aF1.36
aF1.36
aF0.329
aF0.329
aF0.329
aF0.329
aF0.74749
aF0.74749
aF0.74749
aF0.74749
aF0.291
aF0.53151
aF0.3941
aF0.3941
aF0.3941
aF0.0809
aF0.0809
aF0.0809
aF0.24232
aF0.16404
aF1.23453
aF0.17392
aF0.071
aF0.071
aF0.143
aF0.08058
aF0.08058
aF0.70994
aF0.4819
aF0.807
asS'Dec_targets'
p15
(lp16
F-57.20055556
aF1.256388889
aF1.256388889
aF1.256388889
aF-17.58194444
aF-17.58194444
aF-52.805
aF-52.805
aF-52.805
aF-52.805
aF-52.805
aF76.88583333
aF76.88583333
aF76.88583333
aF-10.55555556
aF-10.55555556
aF-10.55555556
aF18.08805556
aF5.216666667
aF5.216666667
aF-53.19194444
aF-53.19194444
aF32.41861111
aF32.41861111
aF19.90138889
aF19.90138889
aF30.05611111
aF74.13611111
aF74.13611111
aF-30.51333333
aF-30.51333333
aF-23.49194444
aF16.57055556
aF38.48444444
aF-0.526111111
aF-0.526111111
aF3.958611111
aF3.958611111
aF27.93694444
aF27.93694444
aF27.93694444
aF27.93694444
aF3.300555556
aF12.81555556
aF12.81555556
aF12.81555556
aF32.40055556
aF53.03083333
aF53.03083333
aF14.69527778
aF14.69527778
aF14.69527778
aF32.06583333
aF32.06583333
aF15.43222222
aF15.43222222
aF58.01083333
aF65.99444444
aF57.60361111
aF57.60361111
aF32.89361111
aF26.55388889
aF28.32916667
aF28.32916667
aF28.32916667
aF28.32916667
aF45.59555556
aF45.59555556
aF45.59555556
aF45.59555556
aF59.73722222
aF59.73722222
aF59.73722222
aF59.73722222
aF11.67805556
aF53.30527778
aF27.83083333
aF27.83083333
aF27.83083333
aF14.05361111
aF14.05361111
aF14.05361111
aF31.32527778
aF25.25666667
aF4.594722222
aF-7.622222222
aF-48.83166667
aF-48.83166667
aF11.52138889
aF6.726388889
aF6.726388889
aF25.92444444
aF30.27027778
aF59.2075
asS'Nas'
p17
(lp18
F26100000000000.0
aF4570000000000.0
aF126000000000000.0
aF2070000000000.0
aF13900000000000.0
aF93800000000000.0
aF32700000000000.0
aF11000000000000.0
aF14600000000000.0
aF7490000000000.0
aF8590000000000.0
aF8720000000000.0
aF12400000000000.0
aF11700000000000.0
aF125000000000000.0
aF8910000000000.0
aF5160000000000.0
aF8710000000000.0
aF8190000000000.0
aF15400000000000.0
aF18200000000000.0
aF20100000000000.0
aF16000000000000.0
aF130000000000000.0
aF61800000000000.0
aF110000000000000.0
aF6940000000000.0
aF3940000000000.0
aF19700000000000.0
aF13000000000000.0
aF11100000000000.0
aF9290000000000.0
aF14400000000000.0
aF9590000000000.0
aF25500000000000.0
aF47100000000000.0
aF64600000000000.0
aF204000000000000.0
aF48100000000000.0
aF53000000000000.0
aF12600000000000.0
aF29200000000000.0
aF14400000000000.0
aF31900000000000.0
aF107000000000000.0
aF65400000000000.0
aF25700000000000.0
aF109000000000000.0
aF25800000000000.0
aF33500000000000.0
aF62900000000000.0
aF56000000000000.0
aF40200000000000.0
aF15900000000000.0
aF52700000000000.0
aF85500000000000.0
aF40400000000000.0
aF60300000000000.0
aF30000000000000.0
aF10500000000000.0
aF35500000000000.0
aF31900000000000.0
aF11600000000000.0
aF57600000000000.0
aF46900000000000.0
aF8250000000000.0
aF4990000000000.0
aF23500000000000.0
aF199000000000000.0
aF23600000000000.0
aF32900000000000.0
aF62900000000000.0
aF50600000000000.0
aF88600000000000.0
aF85900000000000.0
aF28000000000000.0
aF19200000000000.0
aF20400000000000.0
aF24700000000000.0
aF21100000000000.0
aF29600000000000.0
aF32300000000000.0
aF36300000000000.0
aF17500000000000.0
aF6600000000000.0
aF277000000000000.0
aF83500000000000.0
aF118000000000000.0
aF46200000000000.0
aF18600000000000.0
aF10600000000000.0
aF24100000000000.0
aF21700000000000.0
aF4120000000000000.0
asS'Ws'
p19
(lp20
F73.1
aF29.7
aF65.4
aF35.0
aF71.8
aF88.0
aF102.1
aF51.9
aF70.8
aF48.2
aF39.6
aF54.9
aF41.8
aF61.2
aF62.5
aF38.5
aF49.7
aF55.5
aF35.6
aF74.7
aF65.5
aF54.4
aF68.1
aF71.1
aF81.9
aF106.9
aF26.7
aF31.5
aF66.6
aF75.6
aF38.7
aF57.6
aF40.6
aF43.6
aF41.5
aF63.1
aF56.1
aF111.5
aF56.3
aF102.2
aF33.4
aF95.2
aF54.7
aF45.8
aF66.3
aF58.0
aF127.8
aF84.2
aF83.6
aF68.1
aF105.7
aF69.2
aF46.8
aF51.2
aF54.1
aF61.8
aF79.0
aF70.1
aF66.7
aF34.4
aF57.4
aF70.9
aF50.3
aF39.5
aF69.9
aF32.8
aF32.4
aF49.8
aF92.9
aF97.0
aF63.5
aF60.2
aF81.6
aF72.7
aF79.8
aF52.5
aF63.5
aF42.8
aF80.7
aF50.8
aF54.3
aF111.7
aF95.7
aF72.1
aF26.1
aF95.0
aF80.8
aF59.1
aF69.0
aF78.2
aF76.0
aF53.8
aF61.9
aF-99.0
asS'Lya_Ws'
p21
(lp22
F122.0
aF23.0
aF343.0
aF11.0
aF69.0
aF335.0
aF154.0
aF55.0
aF72.0
aF38.0
aF42.0
aF44.0
aF60.0
aF59.0
aF332.0
aF44.0
aF27.0
aF44.0
aF40.0
aF76.0
aF87.0
aF93.0
aF78.0
aF363.0
aF245.0
aF387.0
aF34.0
aF20.0
aF94.0
aF65.0
aF53.0
aF46.0
aF67.0
aF47.0
aF107.0
aF186.0
aF210.0
aF531.0
aF178.0
aF230.0
aF58.0
aF137.0
aF70.0
aF129.0
aF312.0
aF228.0
aF128.0
aF342.0
aF120.0
aF146.0
aF262.0
aF220.0
aF154.0
aF76.0
aF192.0
aF266.0
aF172.0
aF230.0
aF132.0
aF50.0
aF148.0
aF139.0
aF57.0
aF179.0
aF192.0
aF40.0
aF25.0
aF105.0
aF487.0
aF116.0
aF143.0
aF226.0
aF211.0
aF293.0
aF294.0
aF121.0
aF89.0
aF89.0
aF114.0
aF96.0
aF128.0
aF155.0
aF166.0
aF84.0
aF32.0
aF528.0
aF293.0
aF316.0
aF188.0
aF89.0
aF54.0
aF106.0
aF100.0
aF8660.0
asS'Lya_vs'
p23
(lp24
F7801.0
aF1571.0
aF2311.0
aF9716.0
aF3061.0
aF3205.0
aF613.0
aF1005.0
aF1148.0
aF5879.0
aF6348.0
aF1341.0
aF1522.0
aF2911.0
aF1314.0
aF7573.0
aF7744.0
aF5276.0
aF640.0
aF1306.0
aF613.0
aF3947.0
aF1994.0
aF3423.0
aF2512.0
aF4244.0
aF5729.0
aF1339.0
aF2650.0
aF2299.0
aF4979.0
aF2117.0
aF5355.0
aF5664.0
aF2406.0
aF6828.0
aF374.0
aF425.0
aF1023.0
aF1567.0
aF2007.0
aF2665.0
aF6606.0
aF1253.0
aF9036.0
aF9500.0
aF4528.0
aF685.0
aF2874.0
aF5757.0
aF5853.0
aF8076.0
aF4493.0
aF4781.0
aF6528.0
aF6702.0
aF1196.0
aF1795.0
aF739.0
aF4077.0
aF3855.0
aF7853.0
aF4747.0
aF9182.0
aF9304.0
aF9691.0
aF1817.0
aF5109.0
aF7826.0
aF8072.0
aF2198.0
aF2870.0
aF3066.0
aF3273.0
aF2755.0
aF5752.0
aF1472.0
aF2574.0
aF2963.0
aF6617.0
aF7000.0
aF7745.0
aF1727.0
aF7080.0
aF4540.0
aF4756.0
aF4967.0
aF5070.0
aF3255.0
aF1084.0
aF3784.0
aF3070.0
aF1800.0
aF2889.0
asS'bs'
p25
(lp26
F43.9
aF17.9
aF39.3
aF21.0
aF43.1
aF52.9
aF61.3
aF31.2
aF42.5
aF28.9
aF23.8
aF33.0
aF25.1
aF36.8
aF37.5
aF23.1
aF29.8
aF33.3
aF21.4
aF44.8
aF39.4
aF32.7
aF40.9
aF42.7
aF49.2
aF64.2
aF16.0
aF18.9
aF40.0
aF45.4
aF23.3
aF34.6
aF24.4
aF26.2
aF24.9
aF37.9
aF33.7
aF67.0
aF33.8
aF61.4
aF20.0
aF57.2
aF32.9
aF27.5
aF39.8
aF34.9
aF76.8
aF50.6
aF50.2
aF40.9
aF63.5
aF41.5
aF28.1
aF30.7
aF32.5
aF37.1
aF47.5
aF42.1
aF40.1
aF20.7
aF34.4
aF42.6
aF30.2
aF23.7
aF42.0
aF19.7
aF19.5
aF29.9
aF55.8
aF58.2
aF38.1
aF36.2
aF49.0
aF43.7
aF47.9
aF31.6
aF38.2
aF25.7
aF48.5
aF30.5
aF32.6
aF67.1
aF57.5
aF43.3
aF15.7
aF57.0
aF48.5
aF35.5
aF41.4
aF47.0
aF45.6
aF32.3
aF37.2
aF885.9
asS'targets'
p27
(lp28
S'1H0419-577'
p29
aS'HE1228+0131'
p30
aS'HE1228+0131'
p31
aS'HE1228+0131'
p32
aS'MRC2251-178'
p33
aS'MRC2251-178'
p34
aS'HE0439-5254'
p35
aS'HE0439-5254'
p36
aS'HE0439-5254'
p37
aS'HE0439-5254'
p38
aS'HE0439-5254'
p39
aS'PG0838+770'
p40
aS'PG0838+770'
p41
aS'PG0838+770'
p42
aS'PG1302-102'
p43
aS'PG1302-102'
p44
aS'PG1302-102'
p45
aS'PG1352+183'
p46
aS'PG1001+054'
p47
aS'PG1001+054'
p48
aS'RBS567'
p49
aS'RBS567'
p50
aS'SDSSJ142859.10+322507.0'
p51
aS'SDSSJ142859.10+322507.0'
p52
aS'PG0923+201'
p53
aS'PG0923+201'
p54
aS'TON488'
p55
aS'RX_J0714.5+7408'
p56
aS'RX_J0714.5+7408'
p57
aS'HE0241-3043'
p58
aS'HE0241-3043'
p59
aS'H1101-232'
p60
aS'SDSSJ141542.90+163414.0'
p61
aS'RBS1307'
p62
aS'LBQS1230-0015'
p63
aS'LBQS1230-0015'
p64
aS'SDSSJ130524.30+035731.0'
p65
aS'SDSSJ130524.30+035731.0'
p66
aS'MRK1179'
p67
aS'MRK1179'
p68
aS'MRK1179'
p69
aS'MRK1179'
p70
aS'SDSSJ112224.10+031802.0'
p71
aS'PG1004+130'
p72
aS'PG1004+130'
p73
aS'PG1004+130'
p74
aS'3C232'
p75
aS'RX_J1117.6+5301'
p76
aS'RX_J1117.6+5301'
p77
aS'SDSSJ105945.30+144142.0'
p78
aS'SDSSJ105945.30+144142.0'
p79
aS'SDSSJ105945.30+144142.0'
p80
aS'SDSSJ095914.80+320357.0'
p81
aS'SDSSJ095914.80+320357.0'
p82
aS'SDSSJ131545.20+152556.0'
p83
aS'SDSSJ131545.20+152556.0'
p84
aS'SDSSJ094840.10+580038.0'
p85
aS'VIIZw348'
p86
aS'SBS1537+577'
p87
aS'SBS1537+577'
p88
aS'SDSSJ091127.30+325337.0'
p89
aS'RX_J1303.7+2633'
p90
aS'US136'
p91
aS'US136'
p92
aS'US136'
p93
aS'US136'
p94
aS'RX_J0925.9+4535'
p95
aS'RX_J0925.9+4535'
p96
aS'RX_J0925.9+4535'
p97
aS'RX_J0925.9+4535'
p98
aS'SBS0957+599'
p99
aS'SBS0957+599'
p100
aS'SBS0957+599'
p101
aS'SBS0957+599'
p102
aS'SDSSJ115722.40+114040.0'
p103
aS'SDSSJ112448.30+531818.0'
p104
aS'RX_J1217.2+2749'
p105
aS'RX_J1217.2+2749'
p106
aS'RX_J1217.2+2749'
p107
aS'PG1211+143'
p108
aS'PG1211+143'
p109
aS'PG1211+143'
p110
aS'RX_J1330.8+3119'
p111
aS'RX_J1356.4+2515'
p112
aS'SDSSJ135726.27+043541.4'
p113
aS'SDSSJ021218.32-073719.8'
p114
aS'PKS2005-489'
p115
aS'PKS2005-489'
p116
aS'SDSSJ112439.50+113117.0'
p117
aS'MS1217.0+0700'
p118
aS'MS1217.0+0700'
p119
aS'FBQSJ1134+2555'
p120
aS'US2816'
p121
aS'HS1543+5921'
p122
as.