(dp0
S'Vhels'
p1
(lp2
F1128.0
aF4955.0
aF3838.0
aF1999.0
aF6300.0
asS'impacts'
p3
(lp4
F209.758
aF214.386
aF277.326
aF180.324
aF387.512
asS'group_dists'
p5
(lp6
F8.6
aF-99.99
aF-99.99
aF-99.99
aF67.2
asS'MTypes'
p7
(lp8
S'SA(s)cd:_sp_HII'
p9
aS'Sc(f)'
p10
aS'Im:'
p11
aS'Sc_(on_edge)'
p12
aS'Scd:'
p13
asS'e_Lya_Ws'
p14
(lp15
F3.0
aF17.0
aF6.0
aF10.0
aF14.0
asS'e_Lstar_sdsss'
p16
(lp17
F-99.99
aF0.046
aF0.025
aF0.12
aF0.61
asS'Bmag_sdsss'
p18
(lp19
F-99.99
aF17.1
aF17.5
aF15.9
aF15.0
asS'Nas'
p20
(lp21
F39900000000000.0
aF252000000000000.0
aF86800000000000.0
aF7290000000000.0
aF67600000000000.0
asS'Lya_Ws'
p22
(lp23
F160.0
aF500.0
aF268.0
aF36.0
aF257.0
asS'bestDists'
p24
(lp25
F9.7
aF66.0
aF58.08
aF47.6
aF92.79
asS'adjustedIncs'
p26
(lp27
F90.0
aF80.0
aF0.0
aF75.0
aF55.0
asS'targets'
p28
(lp29
S'HE1228+0131'
p30
aS'SDSSJ021218.32-073719.8'
p31
aS'TON605'
p32
aS'MS1217.0+0700'
p33
aS'RX_J1142.5+2503'
p34
asS'e_bs'
p35
(lp36
F2.4
aF3.0
aF2.2
aF2.1
aF2.5
asS'incs'
p37
(lp38
F81.0
aF75.0
aF0.0
aF71.0
aF53.0
asS'azimuths'
p39
(lp40
F74.1
aF16.4
aF24.0
aF74.8
aF28.0
asS'group_nums'
p41
(lp42
S'0'
p43
aS'-99'
p44
aS'-99'
p45
aS'-99'
p46
aS'110775'
p47
asS'Ws'
p48
(lp49
F55.9
aF98.0
aF61.6
aF39.9
aF78.6
asS'ls'
p50
(lp51
F0.012395907429292505
aF0.018545498217265474
aF0.014066292800413004
aF0.013780555128751287
aF0.02424335524587844
asS'Lya_vs'
p52
(lp53
F1495.0
aF4833.0
aF3781.0
aF1720.0
aF6133.0
asS'R_virs'
p54
(lp55
F207.37
aF112.75
aF135.6
aF117.92
aF222.9
asS'Bmags'
p56
(lp57
F11.1
aF17.3
aF-99.99
aF15.4
aF14.4
asS'cuss'
p58
(lp59
F219.1576438890508
aF58.26912155679026
aF87.03866579859782
aF64.24014993755851
aF256.4051455333921
asS'vcorrs'
p60
(lp61
F1420.0
aF4686.0
aF4124.0
aF2297.0
aF6589.0
asS'e_Nas'
p62
(lp63
F860000000000.0
aF33600000000000.0
aF2740000000000.0
aF2190000000000.0
aF4610000000000.0
asS'e_bestDists'
p64
(lp65
F2.78
aF6.6
aF5.8
aF7.92
aF9.27
asS'group_mems'
p66
(lp67
S'1'
p68
aS'-99'
p69
aS'-99'
p70
aS'-99'
p71
ag68
asS'e_Lstar_meds'
p72
(lp73
F0.72
aF0.039
aF-99.99
aF0.19
aF1.1
asS'Dec_targets'
p74
(lp75
F1.256388888888889
aF-7.622222222222222
aF30.116944444444446
aF6.726388888888889
aF25.06
asS'PAs'
p76
(lp77
F83.0
aF4.0
aF148.0
aF160.0
aF145.0
asS'Lstar_meds'
p78
(lp79
F0.54
aF0.082
aF-99.99
aF0.25
aF2.4
asS'RA_galaxies'
p80
(lp81
F188.18996
aF33.0107
aF184.2047
aF184.66095
aF175.66438
asS'bs'
p82
(lp83
F33.6
aF58.8
aF37.0
aF24.0
aF47.2
asS'e_Ws'
p84
(lp85
F4.1
aF5.0
aF3.7
aF3.5
aF4.1
asS'Dec_galaxies'
p86
(lp87
F0.11503
aF-7.79663
aF30.26996
aF6.70838
aF24.82252
asS'MajDiams'
p88
(lp89
F36.35
aF15.03
aF19.64
aF16.04
aF40.36
asS'RA_targets'
p90
(lp91
F187.70833333333334
aF33.07625
aF184.46708333333333
aF184.87875
aF175.63208333333333
asS'e_Lya_vs'
p92
(lp93
F1.0
aF1.0
aF1.0
aF1.0
aF1.0
asS'z_targets'
p94
(lp95
F0.117
aF0.17392
aF0.13
aF0.08058
aF0.18417
asS'Lstar_sdsss'
p96
(lp97
F-99.99
aF0.1
aF0.055
aF0.15
aF1.3
asS'Names'
p98
(lp99
S'NGC4517'
p100
aS'SDSSJ021202.56-074747.8'
p101
aS'UGC07302'
p102
aS'PGC039556'
p103
aS'UGC06674'
p104
asS'l_cuss'
p105
(lp106
F0.013797266420318222
aF9.108418805240421e-07
aF3.5951326024299546e-05
aF5.405870528438405e-05
aF0.05072511772504136
asS'others'
p107
(lp108
(lp109
(dp110
S'RAm'
p111
S'32'
p112
sS'RAh'
p113
S'12'
p114
sS'RID_median'
p115
S'24.1'
p116
sS'group_num'
p117
S'-99'
p118
sS'impact'
p119
F403.143
sS'cus'
p120
F170.0181681732867
sS'adjustedInc'
p121
S'58'
p122
sS'z'
p123
S'0.005087'
p124
sS'Bmag_max_key'
p125
S'B_(m_B)'
p126
sS'e_W'
p127
S'4.1'
p128
sS'GLON'
p129
S'292.484881'
p130
sS'Bmag_min_key'
p131
S'B_(Johnson)'
p132
sS'group_dist'
p133
S'-99.99'
p134
sS'rmag_sdss'
p135
S'13.865'
p136
sS'identified'
p137
S'Lya'
p138
sS'e_b'
p139
S'2.4'
p140
sS'zmag_sdss'
p141
S'14.01'
p142
sS'bestDist'
p143
S'24.1'
p144
sS'RAs'
p145
S'28.1568'
p146
sS'RC3_pa'
p147
S'30'
p148
sS'distIndicator'
p149
S'TF'
p150
sS'e_Lstar_min'
p151
S'0.051'
p152
sS'l'
p153
F0.008258963476947786
sS'MajDiam'
p154
S'30.69'
p155
sS'distvcorr'
p156
S'25.602'
p157
sS'R_vir'
p158
S'184.51'
p159
sS'Name'
p160
S'NGC4517A'
p161
sS'e_MajDiam'
p162
S'4.2'
p163
sS'DEdeg'
p164
S'0.38967'
p165
sS'DEs'
p166
S'22.812'
p167
sS'RID_mean'
p168
S'22.68'
p169
sS'PA'
p170
S'30'
p171
sS'DEm'
p172
S'23'
p173
sS'lumClass'
p174
S'LC_IV-V'
p175
sS'DEd'
p176
g43
sS'Lstar_med'
p177
S'0.77'
p178
sS'W'
p179
S'55.9'
p180
sS'e_Lya_W'
p181
S'3'
p182
sS'l_cus'
p183
F0.0035352345723019653
sS'RC3_r25'
p184
S'0.66'
p185
sS'e_inc'
p186
S'2'
p187
sS'gmag_sdss'
p188
S'14.289'
p189
sS'e_Lya_v'
p190
g68
sS'e_Na'
p191
S'8.60E+11'
p192
sS'Bmag'
p193
S'12.7'
p194
sS'Lya_v'
p195
F1495.0
sS'RID_min'
p196
S'14.5'
p197
sS'Na'
p198
S'3.99E+13'
p199
sS'e_MinDiam_ang'
p200
S'9.4'
p201
sS'Lstar_sdss'
p202
S'0.13'
p203
sS'MType'
p204
S'SB(rs)dm:_HII'
p205
sS'Bmag_max'
p206
S'12.5'
p207
sS'Bmag_key'
p208
S'B_J'
p209
sS'MinDiam_ang'
p210
S'144.5'
p211
sS'Lya_W'
p212
S'160'
p213
sS'NEDname'
p214
S'NGC4517A'
p215
sS'RID_max'
p216
S'26.7'
p217
sS'Dec_target'
p218
S'1.256388888888889'
p219
sS'Bmag_min'
p220
S'15.4'
p221
sS'z_target'
p222
S'0.11700'
p223
sS'paKey'
p224
S'poss_103a-O'
p225
sS'diameterKey'
p226
S'poss_103a-O'
p227
sS'flag'
p228
g43
sS'b'
p229
S'33.6'
p230
sS'target'
p231
g30
sS'e_bestDist'
p232
S'4.22'
p233
sS'e_Lstar_max'
p234
S'0.78'
p235
sS'RC3_type'
p236
S'.SBT8*.'
p237
sS'RA_target'
p238
S'187.70833333333334'
p239
sS'altNames'
p240
S"['NGC4517A', 'UGC07685', 'SDSSJ123227.94+002326.2']"
p241
sS'RAdeg'
p242
S'188.11732'
p243
sS'e_Lstar_med'
p244
S'0.62'
p245
sS'vcorr'
p246
S'1818'
p247
sS'e_Lstar_sdss'
p248
S'0.1'
p249
sS'inc'
p250
S'57'
p251
sS'ratioKey'
p252
S'poss_103a-O'
p253
sS'e_MajDiam_ang'
p254
S'2.4'
p255
sS'group_mem'
p256
S'-99'
p257
sS'Bmag_sdss'
p258
S'14.6'
p259
sS'Vhel'
p260
S'1525'
p261
sS'MajDiam_ang'
p262
S'262.6'
p263
sS'DE-'
p264
S'+'
p265
sS'e_MinDiam'
p266
g163
sS'E(B-V)'
p267
S'0.0193'
p268
sS'Lstar_max'
p269
S'0.93'
p270
sS'RID_std'
p271
S'4.225'
p272
sS'GLAT'
p273
S'62.876024'
p274
sS'RC3_d25'
p275
S'238.86'
p276
sS'azimuth'
p277
F55.3
sS'Lstar_min'
p278
S'0.063'
p279
sS'MinDiam'
p280
S'16.88'
p281
sa(dp282
g111
S'34'
p283
sg113
S'12'
p284
sg115
S'13.6'
p285
sg117
S'170002'
p286
sg119
F385.415
sg120
F175.280107165645
sg121
S'74'
p287
sg123
S'0.005791'
p288
sg125
S'B_(B_T^0)'
p289
sg127
g128
sg129
S'292.59582'
p290
sg131
S'B_(m_B)'
p291
sg133
S'21'
p292
sg135
S'-99.99'
p293
sg137
g138
sg139
g140
sg141
S'-99.99'
p294
sg143
S'13.6'
p295
sg145
S'8.4216'
p296
sg147
S'67'
p297
sg149
S'SBF'
p298
sg151
S'0.9'
p299
sg153
F0.0033645005882420548
sg154
S'31.32'
p300
sg156
S'28.606'
p301
sg158
S'187.12'
p302
sg160
S'NGC4527'
p303
sg162
S'2.6'
p304
sg164
S'2.65366'
p305
sg166
S'13.176'
p306
sg168
S'14.243'
p307
sg170
S'70'
p308
sg172
S'39'
p309
sg174
S'LC_II-III'
p310
sg176
g187
sg177
S'0.81'
p311
sg179
g180
sg181
g182
sg183
F0.0018603795338843314
sg184
S'0.34'
p312
sg186
g68
sg188
S'-99.99'
p313
sg190
g68
sg191
g192
sg193
S'11.4'
p314
sg195
F1495.0
sg196
S'10.1'
p315
sg198
g199
sg200
S'8.1'
p316
sg202
S'-99.99'
p317
sg204
S'SAB(s)bc;HII_LINER'
p318
sg206
S'10.7'
p319
sg208
S'B_(B_T)'
p320
sg210
S'161.5'
p321
sg212
g213
sg214
S'NGC4527'
p322
sg216
S'29.4'
p323
sg218
g219
sg220
S'11.4'
p324
sg222
g223
sg224
S'K_lga2mass_tot'
p325
sg226
S'K_lga2mass_tot'
p326
sg228
g43
sg229
g230
sg231
g30
sg232
S'3.3'
p327
sg234
S'1.8'
p328
sg236
S'.SXS4..'
p329
sg238
g239
sg240
S"['NGC4527', 'UGC07721', '2MASXJ12340849+0239137', 'SDSSJ123408.44+023913.7']"
p330
sg242
S'188.53509'
p331
sg244
S'0.91'
p332
sg246
S'2031'
p333
sg248
S'-99.99'
p334
sg250
S'70'
p335
sg252
S'K_lga2mass_tot'
p336
sg254
S'24.0'
p337
sg256
S'4'
p338
sg258
S'-99.99'
p339
sg260
S'1736'
p340
sg262
S'475.0'
p341
sg264
g265
sg266
g304
sg267
S'0.0189'
p342
sg269
S'1.6'
p343
sg271
S'3.307'
p344
sg273
S'65.177691'
p345
sg275
S'369.96'
p346
sg277
F39.4
sg278
S'0.8'
p347
sg280
S'10.65'
p348
sa(dp349
g111
S'34'
p350
sg113
S'12'
p351
sg115
S'14.9'
p352
sg117
S'170002'
p353
sg119
F337.658
sg120
F161.20465603697681
sg121
S'61'
p354
sg123
S'0.006031'
p355
sg125
S'B'
p356
sg127
g128
sg129
S'292.949501'
p357
sg131
S'B_(B_T)'
p358
sg133
S'21'
p359
sg135
S'12'
p360
sg137
g138
sg139
g140
sg141
S'11.106'
p361
sg143
S'14.9'
p362
sg145
S'27.0504'
p363
sg147
S'130'
p364
sg149
S'Ceph'
p365
sg151
S'1.0'
p366
sg153
F0.002563996006912428
sg154
S'29.62'
p367
sg156
S'29.614'
p368
sg158
S'180.05'
p369
sg160
S'NGC4536'
p370
sg162
S'2.9'
p371
sg164
S'2.18814'
p372
sg166
S'17.304'
p373
sg168
S'15.363'
p374
sg170
S'95'
p375
sg172
S'11'
p376
sg174
S'LC_II-III'
p377
sg176
g187
sg177
S'2.0'
p378
sg179
g180
sg181
g182
sg183
F0.0010738111988060058
sg184
S'0.43'
p379
sg186
g182
sg188
S'13.181'
p380
sg190
g68
sg191
g192
sg193
S'10.6'
p381
sg195
F1495.0
sg196
S'8.67'
p382
sg198
g199
sg200
S'11.0'
p383
sg202
S'0.11'
p384
sg204
S'SAB(rs)bc;HII_Sbrst'
p385
sg206
S'9.89'
p386
sg208
S'B_(B_T^0)'
p387
sg210
S'213.2'
p388
sg212
g213
sg214
S'NGC4536'
p389
sg216
S'28.0'
p390
sg218
g219
sg220
S'11.2'
p391
sg222
g223
sg224
S'K_lga2mass_tot'
p392
sg226
S'K_lga2mass_tot'
p393
sg228
g43
sg229
g230
sg231
g30
sg232
S'2.83'
p394
sg234
S'3.3'
p395
sg236
S'.SXT4..'
p396
sg238
g239
sg240
S"['NGC4536', 'UGC07732', '2MASXJ12342712+0211163', 'SDSSJ123427.04+021117.2']"
p397
sg242
S'188.61271'
p398
sg244
S'1.8'
p399
sg246
S'2103'
p400
sg248
S'0.093'
p401
sg250
S'59'
p402
sg252
S'K_lga2mass_tot'
p403
sg254
S'21.0'
p404
sg256
g338
sg258
S'13.8'
p405
sg260
S'1808'
p406
sg262
S'410.0'
p407
sg264
g265
sg266
g371
sg267
S'0.0157'
p408
sg269
S'3.8'
p409
sg271
S'2.83'
p410
sg273
S'64.730132'
p411
sg275
S'455.15'
p412
sg277
F50.9
sg278
S'1.2'
p413
sg280
S'15.4'
p414
saa(lp415
(dp416
g111
S'13'
p417
sg113
g187
sg115
S'-99.99'
p418
sg117
S'-99'
p419
sg119
F268.145
sg120
F72.70633045340689
sg121
S'52'
p420
sg123
S'0.016011'
p421
sg125
S'x'
p422
sg127
S'5'
p423
sg129
S'171.589161'
p424
sg131
g422
sg133
S'-99.99'
p425
sg135
S'13.476'
p426
sg137
S'f:Lya'
p427
sg139
g182
sg141
S'12.873'
p428
sg143
S'63.82'
p429
sg145
S'15.7968'
p430
sg147
S'-99'
p431
sg149
g422
sg151
S'-99.99'
p432
sg153
F0.009643427719152282
sg154
S'17.42'
p433
sg156
S'63.828'
p434
sg158
S'124.83'
p435
sg160
S'SDSSJ021315.79-073942.7'
p436
sg162
S'1.7'
p437
sg164
S'-7.66188'
p438
sg166
S'42.768'
p439
sg168
S'-99.99'
p440
sg170
S'129'
p441
sg172
S'39'
p442
sg174
g422
sg176
S'7'
p443
sg177
S'-99.99'
p444
sg179
S'98'
p445
sg181
S'17'
p446
sg183
F1.205061197542848e-06
sg184
S'-99.99'
p447
sg186
g187
sg188
S'14.241'
p448
sg190
g68
sg191
S'3.36E+13'
p449
sg193
S'-99.99'
p450
sg195
F4833.0
sg196
S'-99.99'
p451
sg198
S'2.52E+14'
p452
sg200
S'1.7'
p453
sg202
S'0.84'
p454
sg204
S'Sb'
p455
sg206
S'-99.99'
p456
sg208
g422
sg210
S'36.02'
p457
sg212
S'500'
p458
sg214
S'SDSSJ021315.79-073942.7'
p459
sg216
S'-99.99'
p460
sg218
S'-7.622222222222222'
p461
sg220
S'-99.99'
p462
sg222
S'0.17392'
p463
sg224
S'r_sdss_dev'
p464
sg226
S'r_sdss_pet'
p465
sg228
g43
sg229
S'58.8'
p466
sg231
g31
sg232
S'6.38'
p467
sg234
S'-99.99'
p468
sg236
g422
sg238
S'33.07625'
p469
sg240
S"['SDSSJ021315.79-073942.7']"
p470
sg242
S'33.31582'
p471
sg244
S'-99.99'
p472
sg246
S'4532'
p473
sg248
S'0.39'
p474
sg250
S'50'
p475
sg252
S'r_sdss_iso'
p476
sg254
S'0.56'
p477
sg256
S'-99'
p478
sg258
S'14.7'
p479
sg260
S'4800'
p480
sg262
S'56.29'
p481
sg264
S'-'
p482
sg266
g437
sg267
S'0.0224'
p483
sg269
S'-99.99'
p484
sg271
S'-99.99'
p485
sg273
S'-62.525293'
p486
sg275
S'-99.99'
p487
sg277
F29.5
sg278
S'-99.99'
p488
sg280
S'11.15'
p489
saa(lp490
(dp491
g111
S'18'
p492
sg113
S'12'
p493
sg115
S'-99.99'
p494
sg117
S'110580'
p495
sg119
F336.118
sg120
F106.58460016343825
sg121
S'52'
p496
sg123
S'0.012929'
p497
sg125
S'B_(m_B^0)'
p498
sg127
S'3.7'
p499
sg129
S'190.681271'
p500
sg131
g356
sg133
S'42.1'
p501
sg135
S'13.022'
p502
sg137
S'Lya'
p503
sg139
S'2.2'
p504
sg141
S'12.406'
p505
sg143
S'58.63'
p506
sg145
S'26.5104'
p507
sg147
S'-99'
p508
sg149
g422
sg151
S'0.091'
p509
sg153
F0.004870128301349112
sg154
S'22.48'
p510
sg156
S'58.632'
p511
sg158
S'148.85'
p512
sg160
S'NGC4253'
p513
sg162
S'1.4'
p514
sg164
S'29.81287'
p515
sg166
S'46.332'
p516
sg168
S'-99.99'
p517
sg170
S'110'
p518
sg172
S'48'
p519
sg174
S'LC_I'
p520
sg176
S'29'
p521
sg177
S'1.4'
p522
sg179
S'61.6'
p523
sg181
S'6'
p524
sg183
F3.828730449058177e-05
sg184
S'0.87'
p525
sg186
g182
sg188
S'13.622'
p526
sg190
g68
sg191
S'2.74E+12'
p527
sg193
S'13.9'
p528
sg195
F3781.0
sg196
S'-99.99'
p529
sg198
S'8.68E+13'
p530
sg200
S'2.5'
p531
sg202
S'1.3'
p532
sg204
S"(R')SB(s)a:_Sy1.5"
p533
sg206
S'13.7'
p534
sg208
S'B_T(25)_'
p535
sg210
S'50.62'
p536
sg212
S'268'
p537
sg214
S'NGC4253'
p538
sg216
S'-99.99'
p539
sg218
S'30.116944444444446'
p540
sg220
S'16.1'
p541
sg222
S'0.13000'
p542
sg224
S'K_2mass_tot'
p543
sg226
S'K_2mass_tot'
p544
sg228
g43
sg229
S'37'
p545
sg231
g32
sg232
S'5.86'
p546
sg234
S'0.79'
p547
sg236
S'PSBS1*.'
p548
sg238
S'184.46708333333333'
p549
sg240
S"['NGC4253', 'UGC07344', 'MRK0766', '2MASXJ12182648+2948461', 'SDSSJ121826.51+294846.5']"
p550
sg242
S'184.61046'
p551
sg244
S'0.68'
p552
sg246
S'4163'
p553
sg248
S'0.6'
p554
sg250
S'50'
p555
sg252
S'K_2mass_tot'
p556
sg254
S'4.0'
p557
sg256
g68
sg258
S'14'
p558
sg260
S'3876'
p559
sg262
S'79.1'
p560
sg264
g265
sg266
g514
sg267
S'0.017'
p561
sg269
S'1.7'
p562
sg271
S'-99.99'
p563
sg273
S'82.270131'
p564
sg275
S'57.3'
p565
sg277
F47.8
sg278
S'0.2'
p566
sg280
S'14.39'
p567
saa(lp568
(dp569
g111
S'19'
p570
sg113
S'12'
p571
sg115
S'37.7'
p572
sg117
S'120002'
p573
sg119
F413.715
sg120
F200.00421995547995
sg121
S'64'
p574
sg123
S'0.006531'
p575
sg125
S'B_(B_T^0)'
p576
sg127
S'3.5'
p577
sg129
S'281.562899'
p578
sg131
S'B_(B_T)'
p579
sg133
S'25.7'
p580
sg135
S'11.935'
p581
sg137
S'Lya'
p582
sg139
S'2.1'
p583
sg141
S'11.009'
p584
sg143
S'37.7'
p585
sg145
S'22.2408'
p586
sg147
S'58'
p587
sg149
S'TF'
p588
sg151
S'1.2'
p589
sg153
F0.0031967851122073608
sg154
S'34.2'
p590
sg156
S'31.77'
p591
sg158
S'198.83'
p592
sg160
S'NGC4260'
p593
sg162
S'2.3'
p594
sg164
S'6.09868'
p595
sg166
S'55.248'
p596
sg168
S'38.317'
p597
sg170
S'45'
p598
sg172
g423
sg174
S'LC_I'
p599
sg176
g524
sg177
S'2.0'
p600
sg179
S'39.9'
p601
sg181
S'10'
p602
sg183
F0.003362999602782306
sg184
S'0.5'
p603
sg186
g187
sg188
S'12.615'
p604
sg190
g68
sg191
S'2.19E+12'
p605
sg193
S'12.6'
p606
sg195
F1720.0
sg196
S'30.7'
p607
sg198
S'7.29E+12'
p608
sg200
S'4.5'
p609
sg202
S'1.3'
p610
sg204
S'SB(s)a;Sy_LINER'
p611
sg206
S'12.3'
p612
sg208
S'B_(m_B)'
p613
sg210
S'89.81'
p614
sg212
S'36'
p615
sg214
S'NGC4260'
p616
sg216
S'48.4'
p617
sg218
S'6.726388888888889'
p618
sg220
S'12.7'
p619
sg222
S'0.08058'
p620
sg224
S'K_2mass_tot'
p621
sg226
S'K_2mass_tot'
p622
sg228
g43
sg229
S'24'
p623
sg231
g33
sg232
S'5.34'
p624
sg234
S'1.7'
p625
sg236
S'.SBS1..'
p626
sg238
S'184.87875'
p627
sg240
S"['NGC4260', 'UGC07361', '2MASXJ12192224+0605556', 'SDSSJ121922.23+060555.2']"
p628
sg242
S'184.84267'
p629
sg244
S'1.3'
p630
sg246
S'2256'
p631
sg248
S'0.87'
p632
sg250
S'61'
p633
sg252
S'K_2mass_tot'
p634
sg254
S'9.4'
p635
sg256
S'39'
p636
sg258
S'13.1'
p637
sg260
S'1958'
p638
sg262
S'187.1'
p639
sg264
g265
sg266
g594
sg267
S'0.019'
p640
sg269
S'2.7'
p641
sg271
S'5.345'
p642
sg273
S'67.630207'
p643
sg275
S'161.49'
p644
sg277
F41.7
sg278
S'1.9'
p645
sg280
S'16.41'
p646
saa(lp647
(dp648
g111
S'43'
p649
sg113
S'11'
p650
sg115
S'-99.99'
p651
sg117
S'-99'
p652
sg119
F333.68
sg120
F108.2960186156444
sg121
S'47'
p653
sg123
S'0.020634'
p654
sg125
S'B^0^_T(25)_'
p655
sg127
S'4.1'
p656
sg129
S'217.027561'
p657
sg131
S'B_(m_B)'
p658
sg133
S'-99.99'
p659
sg135
S'-99.99'
p660
sg137
S'Lya'
p661
sg139
S'2.5'
p662
sg141
S'-99.99'
p663
sg143
S'91.19'
p664
sg145
S'25.32'
p665
sg147
S'-99'
p666
sg149
g422
sg151
S'0.44'
p667
sg153
F0.006586489545728606
sg154
S'22.72'
p668
sg156
S'91.191'
p669
sg158
S'149.94'
p670
sg160
S'MCG+04-28-037'
p671
sg162
S'1.6'
p672
sg164
S'25.00544'
p673
sg166
S'19.584'
p674
sg168
S'-99.99'
p675
sg170
S'45'
p676
sg172
g43
sg174
g422
sg176
S'25'
p677
sg177
S'1.2'
p678
sg179
S'78.6'
p679
sg181
S'14'
p680
sg183
F7.021685836653538e-05
sg184
S'0.68'
p681
sg186
g338
sg188
S'-99.99'
p682
sg190
g68
sg191
S'4.61E+12'
p683
sg193
S'15.1'
p684
sg195
F6133.0
sg196
S'-99.99'
p685
sg198
S'6.76E+13'
p686
sg200
S'1.8'
p687
sg202
S'-99.99'
p688
sg204
S'Irr'
p689
sg206
S'14.8'
p690
sg208
S'B_(m_B^0)'
p691
sg210
S'35.98'
p692
sg212
S'257'
p693
sg214
S'KUG1140+252'
p694
sg216
S'-99.99'
p695
sg218
S'25.06'
p696
sg220
S'15.4'
p697
sg222
S'0.18417'
p698
sg224
S'K_2mass_tot'
p699
sg226
S'K_2mass_tot'
p700
sg228
g43
sg229
S'47.2'
p701
sg231
g34
sg232
S'9.11'
p702
sg234
S'0.79'
p703
sg236
S'.S?....'
p704
sg238
S'175.63208333333333'
p705
sg240
S"['2MASXJ11432530+2500194', 'SDSSJ114325.32+250019.5']"
p706
sg242
S'175.8555'
p707
sg244
S'0.57'
p708
sg246
S'6475'
p709
sg248
S'-99.99'
p710
sg250
S'46'
p711
sg252
S'K_2mass_tot'
p712
sg254
S'2.6'
p713
sg256
S'-99'
p714
sg258
S'-99.99'
p715
sg260
S'6186'
p716
sg262
S'51.4'
p717
sg264
g265
sg266
g672
sg267
S'0.0217'
p718
sg269
S'1.6'
p719
sg271
S'-99.99'
p720
sg273
S'74.59113'
p721
sg275
S'39.64'
p722
sg277
F60.1
sg278
S'0.9'
p723
sg280
S'15.91'
p724
saas.