(dp0
S'Vhels'
p1
(lp2
F1128.0
aF1808.0
aF1808.0
aF6298.0
asS'impacts'
p3
(lp4
F209.758
aF337.658
aF337.658
aF376.492
asS'group_dists'
p5
(lp6
F8.6
aF21.0
aF21.0
aF61.4
asS'MTypes'
p7
(lp8
S'SA(s)cd:_sp_HII'
p9
aS'SAB(rs)bc;HII_Sbrst'
p10
aS'SAB(rs)bc;HII_Sbrst'
p11
aS'SB?'
p12
asS'e_Lya_Ws'
p13
(lp14
F3.0
aF2.0
aF3.0
aF8.0
asS'e_Lstar_sdsss'
p15
(lp16
F-99.99
aF0.093
aF0.093
aF-99.99
asS'Bmag_sdsss'
p17
(lp18
F-99.99
aF13.8
aF13.8
aF-99.99
asS'Nas'
p19
(lp20
F39900000000000.0
aF154000000000000.0
aF16000000000000.0
aF164000000000000.0
asS'Lya_Ws'
p21
(lp22
F160.0
aF303.0
aF78.0
aF399.0
asS'bestDists'
p23
(lp24
F9.7
aF14.9
aF14.9
aF82.8
asS'adjustedIncs'
p25
(lp26
F90.0
aF61.0
aF61.0
aF75.0
asS'targets'
p27
(lp28
S'HE1228+0131'
p29
aS'HE1228+0131'
p30
aS'HE1228+0131'
p31
aS'RX_J0028.1+3103'
p32
asS'e_bs'
p33
(lp34
F2.4
aF2.3
aF2.4
aF1.9
asS'incs'
p35
(lp36
F81.0
aF59.0
aF59.0
aF71.0
asS'azimuths'
p37
(lp38
F74.1
aF50.9
aF50.9
aF66.7
asS'group_nums'
p39
(lp40
S'0'
p41
aS'170002'
p42
aS'170002'
p43
aS'200470'
p44
asS'Ws'
p45
(lp46
F55.9
aF54.9
aF68.7
aF73.9
asS'ls'
p47
(lp48
F0.012395907429292505
aF0.0245710023574696
aF0.028159702924856957
aF0.017780651771234862
asS'Lya_vs'
p49
(lp50
F1495.0
aF1721.0
aF1854.0
aF6063.0
asS'R_virs'
p51
(lp52
F207.37
aF180.05
aF180.05
aF231.32
asS'Bmags'
p53
(lp54
F11.1
aF10.6
aF10.6
aF13.2
asS'cuss'
p55
(lp56
F219.1576438890508
aF161.20465603697681
aF161.20465603697681
aF277.9466603127298
asS'vcorrs'
p57
(lp58
F1420.0
aF2103.0
aF2103.0
aF6081.0
asS'e_Nas'
p59
(lp60
F860000000000.0
aF2430000000000.0
aF708000000000.0
aF9890000000000.0
asS'e_bestDists'
p61
(lp62
F2.78
aF2.83
aF2.83
aF5.62
asS'group_mems'
p63
(lp64
S'1'
p65
aS'4'
p66
ag66
aS'5'
p67
asS'e_Lstar_meds'
p68
(lp69
F0.72
aF1.8
aF1.8
aF2.0
asS'Dec_targets'
p70
(lp71
F1.256388888888889
aF1.256388888888889
aF1.256388888888889
aF31.063333333333333
asS'PAs'
p72
(lp73
F83.0
aF95.0
aF95.0
aF110.0
asS'Lstar_meds'
p74
(lp75
F0.54
aF2.0
aF2.0
aF6.5
asS'RA_galaxies'
p76
(lp77
F188.18996
aF188.61271
aF188.61271
aF7.06221
asS'bs'
p78
(lp79
F33.6
aF33.0
aF41.3
aF44.4
asS'e_Ws'
p80
(lp81
F4.1
aF3.8
aF4.0
aF3.2
asS'Dec_galaxies'
p82
(lp83
F0.11503
aF2.18814
aF2.18814
aF30.80325
asS'MajDiams'
p84
(lp85
F36.35
aF29.62
aF29.62
aF42.59
asS'RA_targets'
p86
(lp87
F187.70833333333334
aF187.70833333333334
aF187.70833333333334
aF7.044583333333334
asS'e_Lya_vs'
p88
(lp89
F1.0
aF1.0
aF1.0
aF1.0
asS'z_targets'
p90
(lp91
F0.117
aF0.117
aF0.117
aF0.5
asS'Lstar_sdsss'
p92
(lp93
F-99.99
aF0.11
aF0.11
aF-99.99
asS'Names'
p94
(lp95
S'NGC4517'
p96
aS'NGC4536'
p97
aS'NGC4536'
p98
aS'UGC00279'
p99
asS'l_cuss'
p100
(lp101
F0.013797266420318222
aF0.010290428466428102
aF0.011793389800233964
aF0.040138296339580874
asS'others'
p102
(lp103
(lp104
(dp105
S'RAm'
p106
S'32'
p107
sS'RAh'
p108
S'12'
p109
sS'RID_median'
p110
S'24.1'
p111
sS'group_num'
p112
S'-99'
p113
sS'impact'
p114
F403.143
sS'cus'
p115
F170.0181681732867
sS'adjustedInc'
p116
S'58'
p117
sS'z'
p118
S'0.005087'
p119
sS'Bmag_max_key'
p120
S'B_(m_B)'
p121
sS'e_W'
p122
S'4.1'
p123
sS'GLON'
p124
S'292.484881'
p125
sS'Bmag_min_key'
p126
S'B_(Johnson)'
p127
sS'group_dist'
p128
S'-99.99'
p129
sS'rmag_sdss'
p130
S'13.865'
p131
sS'identified'
p132
S'Lya'
p133
sS'e_b'
p134
S'2.4'
p135
sS'zmag_sdss'
p136
S'14.01'
p137
sS'bestDist'
p138
S'24.1'
p139
sS'RAs'
p140
S'28.1568'
p141
sS'RC3_pa'
p142
S'30'
p143
sS'distIndicator'
p144
S'TF'
p145
sS'e_Lstar_min'
p146
S'0.051'
p147
sS'l'
p148
F0.008258963476947786
sS'MajDiam'
p149
S'30.69'
p150
sS'distvcorr'
p151
S'25.602'
p152
sS'R_vir'
p153
S'184.51'
p154
sS'Name'
p155
S'NGC4517A'
p156
sS'e_MajDiam'
p157
S'4.2'
p158
sS'DEdeg'
p159
S'0.38967'
p160
sS'DEs'
p161
S'22.812'
p162
sS'RID_mean'
p163
S'22.68'
p164
sS'PA'
p165
S'30'
p166
sS'DEm'
p167
S'23'
p168
sS'lumClass'
p169
S'LC_IV-V'
p170
sS'DEd'
p171
g41
sS'Lstar_med'
p172
S'0.77'
p173
sS'W'
p174
S'55.9'
p175
sS'e_Lya_W'
p176
S'3'
p177
sS'l_cus'
p178
F0.0035352345723019653
sS'RC3_r25'
p179
S'0.66'
p180
sS'e_inc'
p181
S'2'
p182
sS'gmag_sdss'
p183
S'14.289'
p184
sS'e_Lya_v'
p185
g65
sS'e_Na'
p186
S'8.60E+11'
p187
sS'Bmag'
p188
S'12.7'
p189
sS'Lya_v'
p190
F1495.0
sS'RID_min'
p191
S'14.5'
p192
sS'Na'
p193
S'3.99E+13'
p194
sS'e_MinDiam_ang'
p195
S'9.4'
p196
sS'Lstar_sdss'
p197
S'0.13'
p198
sS'MType'
p199
S'SB(rs)dm:_HII'
p200
sS'Bmag_max'
p201
S'12.5'
p202
sS'Bmag_key'
p203
S'B_J'
p204
sS'MinDiam_ang'
p205
S'144.5'
p206
sS'Lya_W'
p207
S'160'
p208
sS'NEDname'
p209
S'NGC4517A'
p210
sS'RID_max'
p211
S'26.7'
p212
sS'Dec_target'
p213
S'1.256388888888889'
p214
sS'Bmag_min'
p215
S'15.4'
p216
sS'z_target'
p217
S'0.11700'
p218
sS'paKey'
p219
S'poss_103a-O'
p220
sS'diameterKey'
p221
S'poss_103a-O'
p222
sS'flag'
p223
g41
sS'b'
p224
S'33.6'
p225
sS'target'
p226
g29
sS'e_bestDist'
p227
S'4.22'
p228
sS'e_Lstar_max'
p229
S'0.78'
p230
sS'RC3_type'
p231
S'.SBT8*.'
p232
sS'RA_target'
p233
S'187.70833333333334'
p234
sS'altNames'
p235
S"['NGC4517A', 'UGC07685', 'SDSSJ123227.94+002326.2']"
p236
sS'RAdeg'
p237
S'188.11732'
p238
sS'e_Lstar_med'
p239
S'0.62'
p240
sS'vcorr'
p241
S'1818'
p242
sS'e_Lstar_sdss'
p243
S'0.1'
p244
sS'inc'
p245
S'57'
p246
sS'ratioKey'
p247
S'poss_103a-O'
p248
sS'e_MajDiam_ang'
p249
S'2.4'
p250
sS'group_mem'
p251
S'-99'
p252
sS'Bmag_sdss'
p253
S'14.6'
p254
sS'Vhel'
p255
S'1525'
p256
sS'MajDiam_ang'
p257
S'262.6'
p258
sS'DE-'
p259
S'+'
p260
sS'e_MinDiam'
p261
g158
sS'E(B-V)'
p262
S'0.0193'
p263
sS'Lstar_max'
p264
S'0.93'
p265
sS'RID_std'
p266
S'4.225'
p267
sS'GLAT'
p268
S'62.876024'
p269
sS'RC3_d25'
p270
S'238.86'
p271
sS'azimuth'
p272
F55.3
sS'Lstar_min'
p273
S'0.063'
p274
sS'MinDiam'
p275
S'16.88'
p276
saa(lp277
(dp278
g106
S'34'
p279
sg108
S'12'
p280
sg110
S'13.6'
p281
sg112
S'170002'
p282
sg114
F385.415
sg115
F175.280107165645
sg116
S'74'
p283
sg118
S'0.005791'
p284
sg120
S'B_(B_T^0)'
p285
sg122
S'3.8'
p286
sg124
S'292.59582'
p287
sg126
S'B_(m_B)'
p288
sg128
S'21'
p289
sg130
S'-99.99'
p290
sg132
S'Lya'
p291
sg134
S'2.3'
p292
sg136
S'-99.99'
p293
sg138
S'13.6'
p294
sg140
S'8.4216'
p295
sg142
S'67'
p296
sg144
S'SBF'
p297
sg146
S'0.9'
p298
sg148
F0.014291708422205798
sg149
S'31.32'
p299
sg151
S'28.606'
p300
sg153
S'187.12'
p301
sg155
S'NGC4527'
p302
sg157
S'2.6'
p303
sg159
S'2.65366'
p304
sg161
S'13.176'
p305
sg163
S'14.243'
p306
sg165
S'70'
p307
sg167
S'39'
p308
sg169
S'LC_II-III'
p309
sg171
g182
sg172
S'0.81'
p310
sg174
S'54.9'
p311
sg176
g182
sg178
F0.00790251068637981
sg179
S'0.34'
p312
sg181
g65
sg183
S'-99.99'
p313
sg185
g65
sg186
S'2.43E+12'
p314
sg188
S'11.4'
p315
sg190
F1721.0
sg191
S'10.1'
p316
sg193
S'1.54E+14'
p317
sg195
S'8.1'
p318
sg197
S'-99.99'
p319
sg199
S'SAB(s)bc;HII_LINER'
p320
sg201
S'10.7'
p321
sg203
S'B_(B_T)'
p322
sg205
S'161.5'
p323
sg207
S'303'
p324
sg209
S'NGC4527'
p325
sg211
S'29.4'
p326
sg213
S'1.256388888888889'
p327
sg215
S'11.4'
p328
sg217
S'0.11700'
p329
sg219
S'K_lga2mass_tot'
p330
sg221
S'K_lga2mass_tot'
p331
sg223
g41
sg224
S'33'
p332
sg226
g30
sg227
S'3.3'
p333
sg229
S'1.8'
p334
sg231
S'.SXS4..'
p335
sg233
S'187.70833333333334'
p336
sg235
S"['NGC4527', 'UGC07721', '2MASXJ12340849+0239137', 'SDSSJ123408.44+023913.7']"
p337
sg237
S'188.53509'
p338
sg239
S'0.91'
p339
sg241
S'2031'
p340
sg243
S'-99.99'
p341
sg245
S'70'
p342
sg247
S'K_lga2mass_tot'
p343
sg249
S'24.0'
p344
sg251
g66
sg253
S'-99.99'
p345
sg255
S'1736'
p346
sg257
S'475.0'
p347
sg259
g260
sg261
g303
sg262
S'0.0189'
p348
sg264
S'1.6'
p349
sg266
S'3.307'
p350
sg268
S'65.177691'
p351
sg270
S'369.96'
p352
sg272
F39.4
sg273
S'0.8'
p353
sg275
S'10.65'
p354
saa(lp355
(dp356
g106
S'34'
p357
sg108
S'12'
p358
sg110
S'13.6'
p359
sg112
S'170002'
p360
sg114
F385.415
sg115
F175.280107165645
sg116
S'74'
p361
sg118
S'0.005791'
p362
sg120
S'B_(B_T^0)'
p363
sg122
g66
sg124
S'292.59582'
p364
sg126
S'B_(m_B)'
p365
sg128
S'21'
p366
sg130
S'-99.99'
p367
sg132
S'Lya'
p368
sg134
S'2.4'
p369
sg136
S'-99.99'
p370
sg138
S'13.6'
p371
sg140
S'8.4216'
p372
sg142
S'67'
p373
sg144
S'SBF'
p374
sg146
S'0.9'
p375
sg148
F0.010147268322567718
sg149
S'31.32'
p376
sg151
S'28.606'
p377
sg153
S'187.12'
p378
sg155
S'NGC4527'
p379
sg157
S'2.6'
p380
sg159
S'2.65366'
p381
sg161
S'13.176'
p382
sg163
S'14.243'
p383
sg165
S'70'
p384
sg167
S'39'
p385
sg169
S'LC_II-III'
p386
sg171
g182
sg172
S'0.81'
p387
sg174
S'68.7'
p388
sg176
g177
sg178
F0.005610868483159152
sg179
S'0.34'
p389
sg181
g65
sg183
S'-99.99'
p390
sg185
g65
sg186
S'7.08E+11'
p391
sg188
S'11.4'
p392
sg190
F1854.0
sg191
S'10.1'
p393
sg193
S'1.60E+13'
p394
sg195
S'8.1'
p395
sg197
S'-99.99'
p396
sg199
S'SAB(s)bc;HII_LINER'
p397
sg201
S'10.7'
p398
sg203
S'B_(B_T)'
p399
sg205
S'161.5'
p400
sg207
S'78'
p401
sg209
S'NGC4527'
p402
sg211
S'29.4'
p403
sg213
S'1.256388888888889'
p404
sg215
S'11.4'
p405
sg217
S'0.11700'
p406
sg219
S'K_lga2mass_tot'
p407
sg221
S'K_lga2mass_tot'
p408
sg223
g41
sg224
S'41.3'
p409
sg226
g31
sg227
S'3.3'
p410
sg229
S'1.8'
p411
sg231
S'.SXS4..'
p412
sg233
S'187.70833333333334'
p413
sg235
S"['NGC4527', 'UGC07721', '2MASXJ12340849+0239137', 'SDSSJ123408.44+023913.7']"
p414
sg237
S'188.53509'
p415
sg239
S'0.91'
p416
sg241
S'2031'
p417
sg243
S'-99.99'
p418
sg245
S'70'
p419
sg247
S'K_lga2mass_tot'
p420
sg249
S'24.0'
p421
sg251
g66
sg253
S'-99.99'
p422
sg255
S'1736'
p423
sg257
S'475.0'
p424
sg259
g260
sg261
g380
sg262
S'0.0189'
p425
sg264
S'1.6'
p426
sg266
S'3.307'
p427
sg268
S'65.177691'
p428
sg270
S'369.96'
p429
sg272
F39.4
sg273
S'0.8'
p430
sg275
S'10.65'
p431
saa(lp432
(dp433
g106
S'29'
p434
sg108
g41
sg110
S'82.0'
p435
sg112
S'200470'
p436
sg114
F301.038
sg115
F138.35207578854752
sg116
S'65'
p437
sg118
S'0.020341'
p438
sg120
S'B_(m_B)'
p439
sg122
S'3.2'
p440
sg124
S'117.314972'
p441
sg126
S'B_(m_B)'
p442
sg128
S'61.4'
p443
sg130
S'-99.99'
p444
sg132
S'Lya'
p445
sg134
S'1.9'
p446
sg136
S'-99.99'
p447
sg138
S'82'
p448
sg140
S'7.1208'
p449
sg142
S'-99'
p450
sg144
S'TF'
p451
sg146
S'0.58'
p452
sg148
F0.03883643050455101
sg149
S'26.75'
p453
sg151
S'82.845'
p454
sg153
S'167.82'
p455
sg155
S'PGC001782'
p456
sg157
S'0.37'
p457
sg159
S'31.00278'
p458
sg161
S'10.008'
p459
sg163
S'80.875'
p460
sg165
S'95'
p461
sg167
g41
sg169
S'x'
p462
sg171
S'31'
p463
sg172
S'1.2'
p464
sg174
S'73.9'
p465
sg176
S'8'
p466
sg178
F0.008522086785955132
sg179
S'-99.99'
p467
sg181
g182
sg183
S'-99.99'
p468
sg185
g65
sg186
S'9.89E+12'
p469
sg188
S'15'
p470
sg190
F6063.0
sg191
S'76.6'
p471
sg193
S'1.64E+14'
p472
sg195
S'1.5'
p473
sg197
S'-99.99'
p474
sg199
S'SBab'
p475
sg201
S'15'
p476
sg203
S'B_(m_B)'
p477
sg205
S'30.96'
p478
sg207
S'399'
p479
sg209
S'CGCG500-032'
p480
sg211
S'82.6'
p481
sg213
S'31.063333333333333'
p482
sg215
S'15'
p483
sg217
S'0.50000'
p484
sg219
S'K_2mass_tot'
p485
sg221
S'K_2mass_tot'
p486
sg223
g41
sg224
S'44.4'
p487
sg226
g32
sg227
S'2.47'
p488
sg229
S'0.58'
p489
sg231
S'       '
p490
sg233
S'7.044583333333334'
p491
sg235
S"['2MASXJ00290717+3100102']"
p492
sg237
S'7.27967'
p493
sg239
S'0.58'
p494
sg241
S'5882'
p495
sg243
S'-99.99'
p496
sg245
S'63'
p497
sg247
S'K_2mass_tot'
p498
sg249
S'3.4'
p499
sg251
g67
sg253
S'-99.99'
p500
sg255
S'6098'
p501
sg257
S'67.3'
p502
sg259
g260
sg261
g457
sg262
S'0.0673'
p503
sg264
S'1.2'
p504
sg266
S'2.477'
p505
sg268
S'-31.625382'
p506
sg270
S'-99.99'
p507
sg272
F11.7
sg273
S'1.2'
p508
sg275
S'12.31'
p509
saas.