(dp0
S'Vhels'
p1
(lp2
F1808.0
aF4955.0
aF4955.0
aF3838.0
aF6300.0
aF1063.0
asS'impacts'
p3
(lp4
F337.658
aF214.386
aF214.386
aF277.326
aF387.512
aF233.285
asS'group_dists'
p5
(lp6
F21.0
aF-99.99
aF-99.99
aF-99.99
aF67.2
aF12.3
asS'MTypes'
p7
(lp8
S'SAB(rs)bc;HII_Sbrst'
p9
aS'Sc(f)'
p10
aS'Sc(f)'
p11
aS'Im:'
p12
aS'Scd:'
p13
aS"(R')SAB(rs)a"
p14
asS'e_Lya_Ws'
p15
(lp16
F2.0
aF15.0
aF17.0
aF6.0
aF14.0
aF21.0
asS'e_Lstar_sdsss'
p17
(lp18
F0.093
aF0.046
aF0.046
aF0.025
aF0.61
aF-99.99
asS'Bmag_sdsss'
p19
(lp20
F13.8
aF17.1
aF17.1
aF17.5
aF15.0
aF-99.99
asS'Nas'
p21
(lp22
F4570000000000.0
aF277000000000000.0
aF252000000000000.0
aF86800000000000.0
aF67600000000000.0
aF28800000000000.0
asS'Lya_Ws'
p23
(lp24
F23.0
aF528.0
aF500.0
aF268.0
aF257.0
aF136.0
asS'bestDists'
p25
(lp26
F14.9
aF66.0
aF66.0
aF58.08
aF92.79
aF13.4
asS'adjustedIncs'
p27
(lp28
F61.0
aF80.0
aF80.0
aF0.0
aF55.0
aF64.0
asS'targets'
p29
(lp30
S'HE1228+0131'
p31
aS'SDSSJ021218.32-073719.8'
p32
aS'SDSSJ021218.32-073719.8'
p33
aS'TON605'
p34
aS'RX_J1142.5+2503'
p35
aS'HE0429-5343'
p36
asS'e_bs'
p37
(lp38
F1.4
aF3.4
aF3.0
aF2.2
aF2.5
aF3.7
asS'incs'
p39
(lp40
F59.0
aF75.0
aF75.0
aF0.0
aF53.0
aF62.0
asS'azimuths'
p41
(lp42
F50.9
aF16.4
aF16.4
aF24.0
aF28.0
aF64.5
asS'group_nums'
p43
(lp44
S'170002'
p45
aS'-99'
p46
aS'-99'
p47
aS'-99'
p48
aS'110775'
p49
aS'200054'
p50
asS'Ws'
p51
(lp52
F29.7
aF95.0
aF98.0
aF61.6
aF78.6
aF96.2
asS'ls'
p53
(lp54
F0.012086486154036777
aF0.01427787413734838
aF0.02120385650814195
aF0.014483677907629887
aF0.0311602601357957
aF0.01943633120337546
asS'Lya_vs'
p55
(lp56
F1571.0
aF4756.0
aF4833.0
aF3781.0
aF6133.0
aF1358.0
asS'R_virs'
p57
(lp58
F180.05
aF112.75
aF112.75
aF135.6
aF222.9
aF146.14
asS'Bmags'
p59
(lp60
F10.6
aF17.3
aF17.3
aF-99.99
aF14.4
aF11.4
asS'cuss'
p61
(lp62
F161.20465603697681
aF58.26912155679026
aF58.26912155679026
aF87.03866579859782
aF256.4051455333921
aF102.41619632167561
asS'vcorrs'
p63
(lp64
F2103.0
aF4686.0
aF4686.0
aF4124.0
aF6589.0
aF926.0
asS'e_Nas'
p65
(lp66
F391000000000.0
aF34900000000000.0
aF33600000000000.0
aF2740000000000.0
aF4610000000000.0
aF4840000000000.0
asS'e_bestDists'
p67
(lp68
F2.83
aF6.6
aF6.6
aF5.8
aF9.27
aF4.12
asS'group_mems'
p69
(lp70
S'4'
p71
aS'-99'
p72
aS'-99'
p73
aS'-99'
p74
aS'1'
p75
aS'16'
p76
asS'e_Lstar_meds'
p77
(lp78
F1.8
aF0.039
aF0.039
aF-99.99
aF1.1
aF1.1
asS'Dec_targets'
p79
(lp80
F1.256388888888889
aF-7.622222222222222
aF-7.622222222222222
aF30.116944444444446
aF25.06
aF-53.61555555555555
asS'PAs'
p81
(lp82
F95.0
aF4.0
aF4.0
aF148.0
aF145.0
aF107.0
asS'Lstar_meds'
p83
(lp84
F2.0
aF0.082
aF0.082
aF-99.99
aF2.4
aF0.77
asS'RA_galaxies'
p85
(lp86
F188.61271
aF33.0107
aF33.0107
aF184.2047
aF175.66438
aF67.91471
asS'bs'
p87
(lp88
F17.9
aF57.0
aF58.8
aF37.0
aF47.2
aF57.8
asS'e_Ws'
p89
(lp90
F2.3
aF5.6
aF5.0
aF3.7
aF4.1
aF6.2
asS'Dec_galaxies'
p91
(lp92
F2.18814
aF-7.79663
aF-7.79663
aF30.26996
aF24.82252
aF-54.60228
asS'MajDiams'
p93
(lp94
F29.62
aF15.03
aF15.03
aF19.64
aF40.36
aF21.89
asS'RA_targets'
p95
(lp96
F187.70833333333334
aF33.07625
aF33.07625
aF184.46708333333333
aF175.63208333333333
aF67.66666666666667
asS'e_Lya_vs'
p97
(lp98
F1.0
aF1.0
aF1.0
aF1.0
aF1.0
aF1.0
asS'z_targets'
p99
(lp100
F0.117
aF0.17392
aF0.17392
aF0.13
aF0.18417
aF0.04001
asS'Lstar_sdsss'
p101
(lp102
F0.11
aF0.1
aF0.1
aF0.055
aF1.3
aF-99.99
asS'Names'
p103
(lp104
S'NGC4536'
p105
aS'SDSSJ021202.56-074747.8'
p106
aS'SDSSJ021202.56-074747.8'
p107
aS'UGC07302'
p108
aS'UGC06674'
p109
aS'NGC1617'
p110
asS'l_cuss'
p111
(lp112
F0.005061865990207723
aF7.012421870144586e-07
aF1.041404243228021e-06
aF3.701809950044962e-05
aF0.06519757053842067
aF0.0013866915054197965
asS'others'
p113
(lp114
(lp115
(dp116
S'RAm'
p117
S'34'
p118
sS'RAh'
p119
S'12'
p120
sS'RID_median'
p121
S'13.6'
p122
sS'group_num'
p123
S'170002'
p124
sS'impact'
p125
F385.415
sS'cus'
p126
F175.280107165645
sS'adjustedInc'
p127
S'74'
p128
sS'z'
p129
S'0.005791'
p130
sS'Bmag_max_key'
p131
S'B_(B_T^0)'
p132
sS'e_W'
p133
S'2.3'
p134
sS'GLON'
p135
S'292.59582'
p136
sS'Bmag_min_key'
p137
S'B_(m_B)'
p138
sS'group_dist'
p139
S'21'
p140
sS'rmag_sdss'
p141
S'-99.99'
p142
sS'identified'
p143
S'Lya'
p144
sS'e_b'
p145
S'1.4'
p146
sS'zmag_sdss'
p147
S'-99.99'
p148
sS'bestDist'
p149
S'13.6'
p150
sS'RAs'
p151
S'8.4216'
p152
sS'RC3_pa'
p153
S'67'
p154
sS'distIndicator'
p155
S'SBF'
p156
sS'e_Lstar_min'
p157
S'0.9'
p158
sS'l'
p159
F0.009297118732841687
sS'MajDiam'
p160
S'31.32'
p161
sS'distvcorr'
p162
S'28.606'
p163
sS'R_vir'
p164
S'187.12'
p165
sS'Name'
p166
S'NGC4527'
p167
sS'e_MajDiam'
p168
S'2.6'
p169
sS'DEdeg'
p170
S'2.65366'
p171
sS'DEs'
p172
S'13.176'
p173
sS'RID_mean'
p174
S'14.243'
p175
sS'PA'
p176
S'70'
p177
sS'DEm'
p178
S'39'
p179
sS'lumClass'
p180
S'LC_II-III'
p181
sS'DEd'
p182
S'2'
p183
sS'Lstar_med'
p184
S'0.81'
p185
sS'W'
p186
S'29.7'
p187
sS'e_Lya_W'
p188
g183
sS'l_cus'
p189
F0.005140783590621549
sS'RC3_r25'
p190
S'0.34'
p191
sS'e_inc'
p192
g75
sS'gmag_sdss'
p193
S'-99.99'
p194
sS'e_Lya_v'
p195
g75
sS'e_Na'
p196
S'3.91E+11'
p197
sS'Bmag'
p198
S'11.4'
p199
sS'Lya_v'
p200
F1571.0
sS'RID_min'
p201
S'10.1'
p202
sS'Na'
p203
S'4.57E+12'
p204
sS'e_MinDiam_ang'
p205
S'8.1'
p206
sS'Lstar_sdss'
p207
S'-99.99'
p208
sS'MType'
p209
S'SAB(s)bc;HII_LINER'
p210
sS'Bmag_max'
p211
S'10.7'
p212
sS'Bmag_key'
p213
S'B_(B_T)'
p214
sS'MinDiam_ang'
p215
S'161.5'
p216
sS'Lya_W'
p217
S'23'
p218
sS'NEDname'
p219
S'NGC4527'
p220
sS'RID_max'
p221
S'29.4'
p222
sS'Dec_target'
p223
S'1.256388888888889'
p224
sS'Bmag_min'
p225
S'11.4'
p226
sS'z_target'
p227
S'0.11700'
p228
sS'paKey'
p229
S'K_lga2mass_tot'
p230
sS'diameterKey'
p231
S'K_lga2mass_tot'
p232
sS'flag'
p233
S'0'
p234
sS'b'
p235
S'17.9'
p236
sS'target'
p237
g31
sS'e_bestDist'
p238
S'3.3'
p239
sS'e_Lstar_max'
p240
S'1.8'
p241
sS'RC3_type'
p242
S'.SXS4..'
p243
sS'RA_target'
p244
S'187.70833333333334'
p245
sS'altNames'
p246
S"['NGC4527', 'UGC07721', '2MASXJ12340849+0239137', 'SDSSJ123408.44+023913.7']"
p247
sS'RAdeg'
p248
S'188.53509'
p249
sS'e_Lstar_med'
p250
S'0.91'
p251
sS'vcorr'
p252
S'2031'
p253
sS'e_Lstar_sdss'
p254
S'-99.99'
p255
sS'inc'
p256
S'70'
p257
sS'ratioKey'
p258
S'K_lga2mass_tot'
p259
sS'e_MajDiam_ang'
p260
S'24.0'
p261
sS'group_mem'
p262
g71
sS'Bmag_sdss'
p263
S'-99.99'
p264
sS'Vhel'
p265
S'1736'
p266
sS'MajDiam_ang'
p267
S'475.0'
p268
sS'DE-'
p269
S'+'
p270
sS'e_MinDiam'
p271
g169
sS'E(B-V)'
p272
S'0.0189'
p273
sS'Lstar_max'
p274
S'1.6'
p275
sS'RID_std'
p276
S'3.307'
p277
sS'GLAT'
p278
S'65.177691'
p279
sS'RC3_d25'
p280
S'369.96'
p281
sS'azimuth'
p282
F39.4
sS'Lstar_min'
p283
S'0.8'
p284
sS'MinDiam'
p285
S'10.65'
p286
sa(dp287
g117
S'32'
p288
sg119
S'12'
p289
sg121
S'24.1'
p290
sg123
S'-99'
p291
sg125
F403.143
sg126
F170.0181681732867
sg127
S'58'
p292
sg129
S'0.005087'
p293
sg131
S'B_(m_B)'
p294
sg133
g134
sg135
S'292.484881'
p295
sg137
S'B_(Johnson)'
p296
sg139
S'-99.99'
p297
sg141
S'13.865'
p298
sg143
g144
sg145
g146
sg147
S'14.01'
p299
sg149
S'24.1'
p300
sg151
S'28.1568'
p301
sg153
S'30'
p302
sg155
S'TF'
p303
sg157
S'0.051'
p304
sg159
F0.008165705210344867
sg160
S'30.69'
p305
sg162
S'25.602'
p306
sg164
S'184.51'
p307
sg166
S'NGC4517A'
p308
sg168
S'4.2'
p309
sg170
S'0.38967'
p310
sg172
S'22.812'
p311
sg174
S'22.68'
p312
sg176
S'30'
p313
sg178
S'23'
p314
sg180
S'LC_IV-V'
p315
sg182
g234
sg184
S'0.77'
p316
sg186
g187
sg188
g183
sg189
F0.0034953155377684167
sg190
S'0.66'
p317
sg192
g183
sg193
S'14.289'
p318
sg195
g75
sg196
g197
sg198
S'12.7'
p319
sg200
F1571.0
sg201
S'14.5'
p320
sg203
g204
sg205
S'9.4'
p321
sg207
S'0.13'
p322
sg209
S'SB(rs)dm:_HII'
p323
sg211
S'12.5'
p324
sg213
S'B_J'
p325
sg215
S'144.5'
p326
sg217
g218
sg219
S'NGC4517A'
p327
sg221
S'26.7'
p328
sg223
g224
sg225
S'15.4'
p329
sg227
g228
sg229
S'poss_103a-O'
p330
sg231
S'poss_103a-O'
p331
sg233
g234
sg235
g236
sg237
g31
sg238
S'4.22'
p332
sg240
S'0.78'
p333
sg242
S'.SBT8*.'
p334
sg244
g245
sg246
S"['NGC4517A', 'UGC07685', 'SDSSJ123227.94+002326.2']"
p335
sg248
S'188.11732'
p336
sg250
S'0.62'
p337
sg252
S'1818'
p338
sg254
S'0.1'
p339
sg256
S'57'
p340
sg258
S'poss_103a-O'
p341
sg260
S'2.4'
p342
sg262
S'-99'
p343
sg263
S'14.6'
p344
sg265
S'1525'
p345
sg267
S'262.6'
p346
sg269
g270
sg271
g309
sg272
S'0.0193'
p347
sg274
S'0.93'
p348
sg276
S'4.225'
p349
sg278
S'62.876024'
p350
sg280
S'238.86'
p351
sg282
F55.3
sg283
S'0.063'
p352
sg285
S'16.88'
p353
saa(lp354
(dp355
g117
S'13'
p356
sg119
g183
sg121
S'-99.99'
p357
sg123
S'-99'
p358
sg125
F268.145
sg126
F72.70633045340689
sg127
S'52'
p359
sg129
S'0.016011'
p360
sg131
S'x'
p361
sg133
S'5.6'
p362
sg135
S'171.589161'
p363
sg137
g361
sg139
S'-99.99'
p364
sg141
S'13.476'
p365
sg143
S'f:Lya'
p366
sg145
S'3.4'
p367
sg147
S'12.873'
p368
sg149
S'63.82'
p369
sg151
S'15.7968'
p370
sg153
S'-99'
p371
sg155
g361
sg157
S'-99.99'
p372
sg159
F0.00960732297855154
sg160
S'17.42'
p373
sg162
S'63.828'
p374
sg164
S'124.83'
p375
sg166
S'SDSSJ021315.79-073942.7'
p376
sg168
S'1.7'
p377
sg170
S'-7.66188'
p378
sg172
S'42.768'
p379
sg174
S'-99.99'
p380
sg176
S'129'
p381
sg178
S'39'
p382
sg180
g361
sg182
S'7'
p383
sg184
S'-99.99'
p384
sg186
S'95'
p385
sg188
S'15'
p386
sg189
F1.200549480007091e-06
sg190
S'-99.99'
p387
sg192
g183
sg193
S'14.241'
p388
sg195
g75
sg196
S'3.49E+13'
p389
sg198
S'-99.99'
p390
sg200
F4756.0
sg201
S'-99.99'
p391
sg203
S'2.77E+14'
p392
sg205
S'1.7'
p393
sg207
S'0.84'
p394
sg209
S'Sb'
p395
sg211
S'-99.99'
p396
sg213
g361
sg215
S'36.02'
p397
sg217
S'528'
p398
sg219
S'SDSSJ021315.79-073942.7'
p399
sg221
S'-99.99'
p400
sg223
S'-7.622222222222222'
p401
sg225
S'-99.99'
p402
sg227
S'0.17392'
p403
sg229
S'r_sdss_dev'
p404
sg231
S'r_sdss_pet'
p405
sg233
g234
sg235
S'57'
p406
sg237
g32
sg238
S'6.38'
p407
sg240
S'-99.99'
p408
sg242
g361
sg244
S'33.07625'
p409
sg246
S"['SDSSJ021315.79-073942.7']"
p410
sg248
S'33.31582'
p411
sg250
S'-99.99'
p412
sg252
S'4532'
p413
sg254
S'0.39'
p414
sg256
S'50'
p415
sg258
S'r_sdss_iso'
p416
sg260
S'0.56'
p417
sg262
S'-99'
p418
sg263
S'14.7'
p419
sg265
S'4800'
p420
sg267
S'56.29'
p421
sg269
S'-'
p422
sg271
g377
sg272
S'0.0224'
p423
sg274
S'-99.99'
p424
sg276
S'-99.99'
p425
sg278
S'-62.525293'
p426
sg280
S'-99.99'
p427
sg282
F29.5
sg283
S'-99.99'
p428
sg285
S'11.15'
p429
saa(lp430
(dp431
g117
S'13'
p432
sg119
g183
sg121
S'-99.99'
p433
sg123
S'-99'
p434
sg125
F268.145
sg126
F72.70633045340689
sg127
S'52'
p435
sg129
S'0.016011'
p436
sg131
g361
sg133
S'5'
p437
sg135
S'171.589161'
p438
sg137
g361
sg139
S'-99.99'
p439
sg141
S'13.476'
p440
sg143
S'f:Lya'
p441
sg145
S'3'
p442
sg147
S'12.873'
p443
sg149
S'63.82'
p444
sg151
S'15.7968'
p445
sg153
S'-99'
p446
sg155
g361
sg157
S'-99.99'
p447
sg159
F0.009738407643034764
sg160
S'17.42'
p448
sg162
S'63.828'
p449
sg164
S'124.83'
p450
sg166
S'SDSSJ021315.79-073942.7'
p451
sg168
S'1.7'
p452
sg170
S'-7.66188'
p453
sg172
S'42.768'
p454
sg174
S'-99.99'
p455
sg176
S'129'
p456
sg178
S'39'
p457
sg180
g361
sg182
g383
sg184
S'-99.99'
p458
sg186
S'98'
p459
sg188
S'17'
p460
sg189
F1.216930070743301e-06
sg190
S'-99.99'
p461
sg192
g183
sg193
S'14.241'
p462
sg195
g75
sg196
S'3.36E+13'
p463
sg198
S'-99.99'
p464
sg200
F4833.0
sg201
S'-99.99'
p465
sg203
S'2.52E+14'
p466
sg205
S'1.7'
p467
sg207
S'0.84'
p468
sg209
S'Sb'
p469
sg211
S'-99.99'
p470
sg213
g361
sg215
S'36.02'
p471
sg217
S'500'
p472
sg219
S'SDSSJ021315.79-073942.7'
p473
sg221
S'-99.99'
p474
sg223
S'-7.622222222222222'
p475
sg225
S'-99.99'
p476
sg227
S'0.17392'
p477
sg229
S'r_sdss_dev'
p478
sg231
S'r_sdss_pet'
p479
sg233
g234
sg235
S'58.8'
p480
sg237
g33
sg238
S'6.38'
p481
sg240
S'-99.99'
p482
sg242
g361
sg244
S'33.07625'
p483
sg246
S"['SDSSJ021315.79-073942.7']"
p484
sg248
S'33.31582'
p485
sg250
S'-99.99'
p486
sg252
S'4532'
p487
sg254
S'0.39'
p488
sg256
S'50'
p489
sg258
S'r_sdss_iso'
p490
sg260
S'0.56'
p491
sg262
S'-99'
p492
sg263
S'14.7'
p493
sg265
S'4800'
p494
sg267
S'56.29'
p495
sg269
g422
sg271
g452
sg272
S'0.0224'
p496
sg274
S'-99.99'
p497
sg276
S'-99.99'
p498
sg278
S'-62.525293'
p499
sg280
S'-99.99'
p500
sg282
F29.5
sg283
S'-99.99'
p501
sg285
S'11.15'
p502
saa(lp503
(dp504
g117
S'18'
p505
sg119
S'12'
p506
sg121
S'-99.99'
p507
sg123
S'110580'
p508
sg125
F336.118
sg126
F106.58460016343825
sg127
S'52'
p509
sg129
S'0.012929'
p510
sg131
S'B_(m_B^0)'
p511
sg133
S'3.7'
p512
sg135
S'190.681271'
p513
sg137
S'B'
p514
sg139
S'42.1'
p515
sg141
S'13.022'
p516
sg143
S'Lya'
p517
sg145
S'2.2'
p518
sg147
S'12.406'
p519
sg149
S'58.63'
p520
sg151
S'26.5104'
p521
sg153
S'-99'
p522
sg155
g361
sg157
S'0.091'
p523
sg159
F0.005282213756928391
sg160
S'22.48'
p524
sg162
S'58.632'
p525
sg164
S'148.85'
p526
sg166
S'NGC4253'
p527
sg168
S'1.4'
p528
sg170
S'29.81287'
p529
sg172
S'46.332'
p530
sg174
S'-99.99'
p531
sg176
S'110'
p532
sg178
S'48'
p533
sg180
S'LC_I'
p534
sg182
S'29'
p535
sg184
S'1.4'
p536
sg186
S'61.6'
p537
sg188
S'6'
p538
sg189
F4.152698121727771e-05
sg190
S'0.87'
p539
sg192
g442
sg193
S'13.622'
p540
sg195
g75
sg196
S'2.74E+12'
p541
sg198
S'13.9'
p542
sg200
F3781.0
sg201
S'-99.99'
p543
sg203
S'8.68E+13'
p544
sg205
S'2.5'
p545
sg207
S'1.3'
p546
sg209
S"(R')SB(s)a:_Sy1.5"
p547
sg211
S'13.7'
p548
sg213
S'B_T(25)_'
p549
sg215
S'50.62'
p550
sg217
S'268'
p551
sg219
S'NGC4253'
p552
sg221
S'-99.99'
p553
sg223
S'30.116944444444446'
p554
sg225
S'16.1'
p555
sg227
S'0.13000'
p556
sg229
S'K_2mass_tot'
p557
sg231
S'K_2mass_tot'
p558
sg233
g234
sg235
S'37'
p559
sg237
g34
sg238
S'5.86'
p560
sg240
S'0.79'
p561
sg242
S'PSBS1*.'
p562
sg244
S'184.46708333333333'
p563
sg246
S"['NGC4253', 'UGC07344', 'MRK0766', '2MASXJ12182648+2948461', 'SDSSJ121826.51+294846.5']"
p564
sg248
S'184.61046'
p565
sg250
S'0.68'
p566
sg252
S'4163'
p567
sg254
S'0.6'
p568
sg256
S'50'
p569
sg258
S'K_2mass_tot'
p570
sg260
S'4.0'
p571
sg262
g75
sg263
S'14'
p572
sg265
S'3876'
p573
sg267
S'79.1'
p574
sg269
g270
sg271
g528
sg272
S'0.017'
p575
sg274
S'1.7'
p576
sg276
S'-99.99'
p577
sg278
S'82.270131'
p578
sg280
S'57.3'
p579
sg282
F47.8
sg283
S'0.2'
p580
sg285
S'14.39'
p581
saa(lp582
(dp583
g117
S'43'
p584
sg119
S'11'
p585
sg121
S'-99.99'
p586
sg123
S'-99'
p587
sg125
F333.68
sg126
F108.2960186156444
sg127
S'47'
p588
sg129
S'0.020634'
p589
sg131
S'B^0^_T(25)_'
p590
sg133
S'4.1'
p591
sg135
S'217.027561'
p592
sg137
S'B_(m_B)'
p593
sg139
S'-99.99'
p594
sg141
S'-99.99'
p595
sg143
S'Lya'
p596
sg145
S'2.5'
p597
sg147
S'-99.99'
p598
sg149
S'91.19'
p599
sg151
S'25.32'
p600
sg153
S'-99'
p601
sg155
g361
sg157
S'0.44'
p602
sg159
F0.0067551252459349806
sg160
S'22.72'
p603
sg162
S'91.191'
p604
sg164
S'149.94'
p605
sg166
S'MCG+04-28-037'
p606
sg168
S'1.6'
p607
sg170
S'25.00544'
p608
sg172
S'19.584'
p609
sg174
S'-99.99'
p610
sg176
S'45'
p611
sg178
g234
sg180
g361
sg182
S'25'
p612
sg184
S'1.2'
p613
sg186
S'78.6'
p614
sg188
S'14'
p615
sg189
F7.20146398698267e-05
sg190
S'0.68'
p616
sg192
g71
sg193
S'-99.99'
p617
sg195
g75
sg196
S'4.61E+12'
p618
sg198
S'15.1'
p619
sg200
F6133.0
sg201
S'-99.99'
p620
sg203
S'6.76E+13'
p621
sg205
S'1.8'
p622
sg207
S'-99.99'
p623
sg209
S'Irr'
p624
sg211
S'14.8'
p625
sg213
S'B_(m_B^0)'
p626
sg215
S'35.98'
p627
sg217
S'257'
p628
sg219
S'KUG1140+252'
p629
sg221
S'-99.99'
p630
sg223
S'25.06'
p631
sg225
S'15.4'
p632
sg227
S'0.18417'
p633
sg229
S'K_2mass_tot'
p634
sg231
S'K_2mass_tot'
p635
sg233
g234
sg235
S'47.2'
p636
sg237
g35
sg238
S'9.11'
p637
sg240
S'0.79'
p638
sg242
S'.S?....'
p639
sg244
S'175.63208333333333'
p640
sg246
S"['2MASXJ11432530+2500194', 'SDSSJ114325.32+250019.5']"
p641
sg248
S'175.8555'
p642
sg250
S'0.57'
p643
sg252
S'6475'
p644
sg254
S'-99.99'
p645
sg256
S'46'
p646
sg258
S'K_2mass_tot'
p647
sg260
S'2.6'
p648
sg262
S'-99'
p649
sg263
S'-99.99'
p650
sg265
S'6186'
p651
sg267
S'51.4'
p652
sg269
g270
sg271
g607
sg272
S'0.0217'
p653
sg274
S'1.6'
p654
sg276
S'-99.99'
p655
sg278
S'74.59113'
p656
sg280
S'39.64'
p657
sg282
F60.1
sg283
S'0.9'
p658
sg285
S'15.91'
p659
saa(lp660
(dp661
g117
S'20'
p662
sg119
g71
sg121
S'7.15'
p663
sg123
S'200054'
p664
sg125
F254.889
sg126
F59.61174025307431
sg127
S'48'
p665
sg129
S'0.005017'
p666
sg131
g514
sg133
S'6.2'
p667
sg135
S'264.310155'
p668
sg137
S'b_J_(SuperCOSMOS)'
p669
sg139
S'12.3'
p670
sg141
S'-99.99'
p671
sg143
S'Lya'
p672
sg145
S'3.7'
p673
sg147
S'-99.99'
p674
sg149
S'7.15'
p675
sg151
S'0.42'
p676
sg153
S'60'
p677
sg155
S'TF'
p678
sg157
S'0.9'
p679
sg159
F0.004765711140981485
sg160
S'15.26'
p680
sg162
S'19.163'
p681
sg164
S'113.93'
p682
sg166
S'NGC1566'
p683
sg168
S'6.1'
p684
sg170
S'-54.93781'
p685
sg172
S'16.116'
p686
sg174
S'9.149'
p687
sg176
S'170'
p688
sg178
S'56'
p689
sg180
S'LC_II-III'
p690
sg182
S'54'
p691
sg184
S'0.59'
p692
sg186
S'96.2'
p693
sg188
S'21'
p694
sg189
F8.16276843035142e-09
sg190
S'0.79'
p695
sg192
g71
sg193
S'-99.99'
p696
sg195
g75
sg196
S'4.84E+12'
p697
sg198
S'10.3'
p698
sg200
F1358.0
sg201
S'5.5'
p699
sg203
S'2.88E+13'
p700
sg205
S'15.0'
p701
sg207
S'-99.99'
p702
sg209
S"(R'_1)SAB(rs)bcSy1"
p703
sg211
S'9.82'
p704
sg213
S'B_(Cousins)_(B_26)'
p705
sg215
S'303.7'
p706
sg217
S'136'
p707
sg219
S'NGC1566'
p708
sg221
S'21.3'
p709
sg223
S'-53.61555555555555'
p710
sg225
S'10.9'
p711
sg227
S'0.04001'
p712
sg229
S'K_lga2mass_tot'
p713
sg231
S'K_lga2mass_tot'
p714
sg233
g234
sg235
S'57.8'
p715
sg237
g36
sg238
S'4.17'
p716
sg240
S'2.5'
p717
sg242
S'.SXS4..'
p718
sg244
S'67.66666666666667'
p719
sg246
S"['NGC1566', '2MASXJ04200041-5456161']"
p720
sg248
S'65.00175'
p721
sg250
S'1.6'
p722
sg252
S'1361'
p723
sg254
S'-99.99'
p724
sg256
S'46'
p725
sg258
S'eso-lv'
p726
sg260
S'22.0'
p727
sg262
S'16'
p728
sg263
S'-99.99'
p729
sg265
S'1504'
p730
sg267
S'440.2'
p731
sg269
g422
sg271
g684
sg272
S'0.0079'
p732
sg274
S'0.92'
p733
sg276
S'4.176'
p734
sg278
S'-43.393163'
p735
sg280
S'499.06'
p736
sg282
F60.1
sg283
S'0.33'
p737
sg285
S'10.53'
p738
saas.