(dp0
S'Vhels'
p1
(lp2
F2410.0
aF1063.0
aF809.0
asS'impacts'
p3
(lp4
F247.452
aF233.285
aF140.011
asS'group_dists'
p5
(lp6
F25.7
aF12.3
aF10.5
asS'MTypes'
p7
(lp8
S'SA(s)a_Sy1'
p9
aS"(R')SAB(rs)a"
p10
aS'SA(s)c_HII'
p11
asS'e_Lya_Ws'
p12
(lp13
F6.0
aF21.0
aF16.0
asS'e_Lstar_sdsss'
p14
(lp15
F0.59
aF-99.99
aF0.45
asS'Bmag_sdsss'
p16
(lp17
F13.1
aF-99.99
aF12.1
asS'Nas'
p18
(lp19
F4130000000000.0
aF28800000000000.0
aF16700000000000.0
asS'Lya_Ws'
p20
(lp21
F21.0
aF136.0
aF74.0
asS'bestDists'
p22
(lp23
F18.4
aF13.4
aF5.7
asS'adjustedIncs'
p24
(lp25
F74.0
aF64.0
aF19.0
asS'targets'
p26
(lp27
S'PG1216+069'
p28
aS'HE0429-5343'
p29
aS'CSO1245'
p30
asS'e_bs'
p31
(lp32
F2.0
aF3.7
aF4.4
asS'incs'
p33
(lp34
F70.0
aF62.0
aF18.0
asS'azimuths'
p35
(lp36
F85.3
aF64.5
aF57.5
asS'group_nums'
p37
(lp38
S'120002'
p39
aS'200054'
p40
aS'100008'
p41
asS'Ws'
p42
(lp43
F29.2
aF96.2
aF39.4
asS'ls'
p44
(lp45
F0.005356286620441161
aF0.01943633120337546
aF0.009077737989947748
asS'Lya_vs'
p46
(lp47
F2767.0
aF1358.0
aF1178.0
asS'R_virs'
p48
(lp49
F138.54
aF146.14
aF88.14
asS'Bmags'
p50
(lp51
F12.6
aF11.4
aF10.9
asS'cuss'
p52
(lp53
F91.1925083326476
aF102.41619632167561
aF34.1211460534373
asS'vcorrs'
p54
(lp55
F2708.0
aF926.0
aF1063.0
asS'e_Nas'
p56
(lp57
F1250000000000.0
aF4840000000000.0
aF4410000000000.0
asS'e_bestDists'
p58
(lp59
F8.02
aF4.12
aF7.3
asS'group_mems'
p60
(lp61
S'39'
p62
aS'16'
p63
aS'65'
p64
asS'e_Lstar_meds'
p65
(lp66
F1.0
aF1.1
aF1.3
asS'Dec_targets'
p67
(lp68
F6.643888888888889
aF-53.61555555555555
aF42.88166666666667
asS'PAs'
p69
(lp70
F50.0
aF107.0
aF29.0
asS'Lstar_meds'
p71
(lp72
F0.5
aF0.77
aF0.22
asS'RA_galaxies'
p73
(lp74
F184.29117
aF67.91471
aF178.20604
asS'bs'
p75
(lp76
F17.5
aF57.8
aF23.7
asS'e_Ws'
p77
(lp78
F3.3
aF6.2
aF7.4
asS'Dec_galaxies'
p79
(lp80
F7.19158
aF-54.60228
aF44.12072
asS'MajDiams'
p81
(lp82
F20.26
aF21.89
aF10.52
asS'RA_targets'
p83
(lp84
F184.83708333333334
aF67.66666666666667
aF179.12541666666667
asS'e_Lya_vs'
p85
(lp86
F3.0
aF1.0
aF1.0
asS'z_targets'
p87
(lp88
F0.3313
aF0.04001
aF1.01545
asS'Lstar_sdsss'
p89
(lp90
F0.29
aF-99.99
aF0.076
asS'Names'
p91
(lp92
S'NGC4235'
p93
aS'NGC1617'
p94
aS'NGC3938'
p95
asS'l_cuss'
p96
(lp97
F8.253126083874774e-05
aF0.0013866915054197965
aF5.51355571224335e-09
asS'others'
p98
(lp99
(lp100
(dp101
S'RAm'
p102
S'18'
p103
sS'RAh'
p104
S'12'
p105
sS'RID_median'
p106
S'-99.99'
p107
sS'group_num'
p108
S'-99'
p109
sS'impact'
p110
F196.518
sS'cus'
p111
F32.14598467927215
sS'adjustedInc'
p112
S'53'
p113
sS'z'
p114
S'0.008596'
p115
sS'Bmag_max_key'
p116
S'x'
p117
sS'e_W'
p118
S'3.3'
p119
sS'GLON'
p120
S'280.414182'
p121
sS'Bmag_min_key'
p122
g117
sS'group_dist'
p123
S'-99.99'
p124
sS'rmag_sdss'
p125
S'14.642'
p126
sS'identified'
p127
S'Lya'
p128
sS'e_b'
p129
S'2'
p130
sS'zmag_sdss'
p131
S'14.015'
p132
sS'bestDist'
p133
S'40.49'
p134
sS'RAs'
p135
S'14.4192'
p136
sS'RC3_pa'
p137
S'-99'
p138
sS'distIndicator'
p139
g117
sS'e_Lstar_min'
p140
S'-99.99'
p141
sS'l'
p142
F0.002942438343819214
sS'MajDiam'
p143
S'10.11'
p144
sS'distvcorr'
p145
S'40.492'
p146
sS'R_vir'
p147
S'85.76'
p148
sS'Name'
p149
S'PGC039509'
p150
sS'e_MajDiam'
p151
S'0.63'
p152
sS'DEdeg'
p153
S'6.60364'
p154
sS'DEs'
p155
S'13.104'
p156
sS'RID_mean'
p157
S'-99.99'
p158
sS'PA'
p159
S'105'
p160
sS'DEm'
p161
S'36'
p162
sS'lumClass'
p163
g117
sS'DEd'
p164
S'6'
p165
sS'Lstar_med'
p166
S'-99.99'
p167
sS'W'
p168
S'29.2'
p169
sS'e_Lya_W'
p170
g165
sS'l_cus'
p171
F3.300018256334641e-17
sS'RC3_r25'
p172
S'-99.99'
p173
sS'e_inc'
p174
S'3'
p175
sS'gmag_sdss'
p176
S'15.299'
p177
sS'e_Lya_v'
p178
g175
sS'e_Na'
p179
S'1.25E+12'
p180
sS'Bmag'
p181
S'-99.99'
p182
sS'Lya_v'
p183
F2767.0
sS'RID_min'
p184
S'-99.99'
p185
sS'Na'
p186
S'4.13E+12'
p187
sS'e_MinDiam_ang'
p188
S'1.6'
p189
sS'Lstar_sdss'
p190
S'0.13'
p191
sS'MType'
p192
S'dS0,N_pec'
p193
sS'Bmag_max'
p194
S'-99.99'
p195
sS'Bmag_key'
p196
g117
sS'MinDiam_ang'
p197
S'31.93'
p198
sS'Lya_W'
p199
S'21'
p200
sS'NEDname'
p201
S'VCC0278'
p202
sS'RID_max'
p203
S'-99.99'
p204
sS'Dec_target'
p205
S'6.643888888888889'
p206
sS'Bmag_min'
p207
S'-99.99'
p208
sS'z_target'
p209
S'0.33130'
p210
sS'paKey'
p211
S'K_2mass_tot'
p212
sS'diameterKey'
p213
S'K_2mass_tot'
p214
sS'flag'
p215
S'0'
p216
sS'b'
p217
S'17.5'
p218
sS'target'
p219
g28
sS'e_bestDist'
p220
S'4.04'
p221
sS'e_Lstar_max'
p222
S'-99.99'
p223
sS'RC3_type'
p224
g117
sS'RA_target'
p225
S'184.83708333333334'
p226
sS'altNames'
p227
S"['2MASXJ12181446+0636142', 'SDSSJ121814.42+063613.1']"
p228
sS'RAdeg'
p229
S'184.56008'
p230
sS'e_Lstar_med'
p231
S'-99.99'
p232
sS'vcorr'
p233
S'2875'
p234
sS'e_Lstar_sdss'
p235
S'0.06'
p236
sS'inc'
p237
S'52'
p238
sS'ratioKey'
p239
S'K_2mass_tot'
p240
sS'e_MajDiam_ang'
p241
S'2.6'
p242
sS'group_mem'
p243
S'-99'
p244
sS'Bmag_sdss'
p245
S'15.7'
p246
sS'Vhel'
p247
S'2577'
p248
sS'MajDiam_ang'
p249
S'51.5'
p250
sS'DE-'
p251
S'+'
p252
sS'e_MinDiam'
p253
g152
sS'E(B-V)'
p254
S'0.0188'
p255
sS'Lstar_max'
p256
S'-99.99'
p257
sS'RID_std'
p258
S'-99.99'
p259
sS'GLAT'
p260
S'68.012089'
p261
sS'RC3_d25'
p262
S'-99.99'
p263
sS'azimuth'
p264
F23.3
sS'Lstar_min'
p265
S'-99.99'
p266
sS'MinDiam'
p267
S'6.268'
p268
sa(dp269
g102
S'19'
p270
sg104
S'12'
p271
sg106
S'-99.99'
p272
sg108
S'-99'
p273
sg110
F202.414
sg111
F26.663204104627038
sg112
S'61'
p274
sg114
S'0.009386'
p275
sg116
g117
sg118
g119
sg120
S'281.215293'
p276
sg122
g117
sg123
S'-99.99'
p277
sg125
S'14.884'
p278
sg127
g128
sg129
g130
sg131
S'14.451'
p279
sg133
S'43.82'
p280
sg135
S'12.3792'
p281
sg137
S'-99'
p282
sg139
g117
sg140
S'-99.99'
p283
sg142
F0.001291368814698226
sg143
S'8.925'
p284
sg145
S'43.829'
p285
sg147
S'78.69'
p286
sg149
S'PGC039634'
p287
sg151
S'0.46'
p288
sg153
S'6.38159'
p289
sg155
S'53.724'
p290
sg157
S'-99.99'
p291
sg159
g175
sg161
S'22'
p292
sg163
g117
sg164
g165
sg166
S'-99.99'
p293
sg168
g169
sg170
g165
sg171
F9.032537053637139e-26
sg172
S'-99.99'
p294
sg174
g130
sg176
S'15.629'
p295
sg178
g175
sg179
g180
sg181
S'-99.99'
p296
sg183
F2767.0
sg184
S'-99.99'
p297
sg186
g187
sg188
S'1.1'
p298
sg190
S'0.11'
p299
sg192
S'S0_1_(6)'
p300
sg194
S'-99.99'
p301
sg196
g117
sg197
S'21.84'
p302
sg199
g200
sg201
S'VCC0327'
p303
sg203
S'-99.99'
p304
sg205
g206
sg207
S'-99.99'
p305
sg209
g210
sg211
S'r_sdss_iso'
p306
sg213
S'K_2mass_tot'
p307
sg215
g216
sg217
g218
sg219
g28
sg220
S'4.38'
p308
sg222
S'-99.99'
p309
sg224
g117
sg225
g226
sg227
S"['2MASXJ12191238+0622536', 'SDSSJ121912.37+062253.7']"
p310
sg229
S'184.80158'
p311
sg231
S'-99.99'
p312
sg233
S'3112'
p313
sg235
S'0.051'
p314
sg237
S'59'
p315
sg239
S'K_2mass_tot'
p316
sg241
S'2.1'
p317
sg243
S'-99'
p318
sg245
S'16.1'
p319
sg247
S'2814'
p320
sg249
S'42.0'
p321
sg251
g252
sg253
g288
sg254
S'0.0171'
p322
sg256
S'-99.99'
p323
sg258
S'-99.99'
p324
sg260
S'67.883967'
p325
sg262
S'-99.99'
p326
sg264
F4.7
sg265
S'-99.99'
p327
sg267
S'4.641'
p328
saa(lp329
(dp330
g102
S'20'
p331
sg104
S'4'
p332
sg106
S'7.15'
p333
sg108
S'200054'
p334
sg110
F254.889
sg111
F59.61174025307431
sg112
S'48'
p335
sg114
S'0.005017'
p336
sg116
S'B'
p337
sg118
S'6.2'
p338
sg120
S'264.310155'
p339
sg122
S'b_J_(SuperCOSMOS)'
p340
sg123
S'12.3'
p341
sg125
S'-99.99'
p342
sg127
S'Lya'
p343
sg129
S'3.7'
p344
sg131
S'-99.99'
p345
sg133
S'7.15'
p346
sg135
S'0.42'
p347
sg137
S'60'
p348
sg139
S'TF'
p349
sg140
S'0.9'
p350
sg142
F0.004765711140981485
sg143
S'15.26'
p351
sg145
S'19.163'
p352
sg147
S'113.93'
p353
sg149
S'NGC1566'
p354
sg151
S'6.1'
p355
sg153
S'-54.93781'
p356
sg155
S'16.116'
p357
sg157
S'9.149'
p358
sg159
S'170'
p359
sg161
S'56'
p360
sg163
S'LC_II-III'
p361
sg164
S'54'
p362
sg166
S'0.59'
p363
sg168
S'96.2'
p364
sg170
S'21'
p365
sg171
F8.16276843035142e-09
sg172
S'0.79'
p366
sg174
g332
sg176
S'-99.99'
p367
sg178
S'1'
p368
sg179
S'4.84E+12'
p369
sg181
S'10.3'
p370
sg183
F1358.0
sg184
S'5.5'
p371
sg186
S'2.88E+13'
p372
sg188
S'15.0'
p373
sg190
S'-99.99'
p374
sg192
S"(R'_1)SAB(rs)bcSy1"
p375
sg194
S'9.82'
p376
sg196
S'B_(Cousins)_(B_26)'
p377
sg197
S'303.7'
p378
sg199
S'136'
p379
sg201
S'NGC1566'
p380
sg203
S'21.3'
p381
sg205
S'-53.61555555555555'
p382
sg207
S'10.9'
p383
sg209
S'0.04001'
p384
sg211
S'K_lga2mass_tot'
p385
sg213
S'K_lga2mass_tot'
p386
sg215
g216
sg217
S'57.8'
p387
sg219
g29
sg220
S'4.17'
p388
sg222
S'2.5'
p389
sg224
S'.SXS4..'
p390
sg225
S'67.66666666666667'
p391
sg227
S"['NGC1566', '2MASXJ04200041-5456161']"
p392
sg229
S'65.00175'
p393
sg231
S'1.6'
p394
sg233
S'1361'
p395
sg235
S'-99.99'
p396
sg237
S'46'
p397
sg239
S'eso-lv'
p398
sg241
S'22.0'
p399
sg243
S'16'
p400
sg245
S'-99.99'
p401
sg247
S'1504'
p402
sg249
S'440.2'
p403
sg251
S'-'
p404
sg253
g355
sg254
S'0.0079'
p405
sg256
S'0.92'
p406
sg258
S'4.176'
p407
sg260
S'-43.393163'
p408
sg262
S'499.06'
p409
sg264
F60.1
sg265
S'0.33'
p410
sg267
S'10.53'
p411
saa(lp412
(dp413
g102
S'58'
p414
sg104
S'11'
p415
sg106
S'17.3'
p416
sg108
S'100008'
p417
sg110
F122.779
sg111
F20.154663961872448
sg112
S'62'
p418
sg114
S'0.002693'
p419
sg116
g337
sg118
S'7.4'
p420
sg120
S'154.079216'
p421
sg122
S'B_(m_B)'
p422
sg123
S'10.5'
p423
sg125
S'12.865'
p424
sg127
S'Lya'
p425
sg129
S'4.4'
p426
sg131
S'12.82'
p427
sg133
S'17.3'
p428
sg135
S'34.0464'
p429
sg137
S'150'
p430
sg139
S'TF'
p431
sg140
S'1.1'
p432
sg142
F0.004742574059299641
sg143
S'7.406'
p433
sg145
S'15.009'
p434
sg147
S'69.19'
p435
sg149
S'IC0749'
p436
sg151
S'2.8'
p437
sg153
S'42.73404'
p438
sg155
S'2.544'
p439
sg157
S'26.544'
p440
sg159
S'45'
p441
sg161
S'44'
p442
sg163
S'LC_III-IV'
p443
sg164
S'42'
p444
sg166
S'0.35'
p445
sg168
S'39.4'
p446
sg170
S'16'
p447
sg171
F8.446514747524705e-18
sg172
S'0.81'
p448
sg174
g130
sg176
S'13.484'
p449
sg178
g368
sg179
S'4.41E+12'
p450
sg181
S'12.8'
p451
sg183
F1178.0
sg184
S'15.3'
p452
sg186
S'1.67E+13'
p453
sg188
S'2.2'
p454
sg190
S'0.13'
p455
sg192
S'SAB(rs)cd'
p456
sg194
S'12.8'
p457
sg196
S'B_(B_T^0)'
p458
sg197
S'44.15'
p459
sg199
S'74'
p460
sg201
S'IC0749'
p461
sg203
S'45.2'
p462
sg205
S'42.88166666666667'
p463
sg207
S'13'
p464
sg209
S'1.01545'
p465
sg211
S'K_2mass_tot'
p466
sg213
S'K_2mass_tot'
p467
sg215
g216
sg217
S'23.7'
p468
sg219
g30
sg220
S'13.04'
p469
sg222
S'1.2'
p470
sg224
S'.SXT6..'
p471
sg225
S'179.12541666666667'
p472
sg227
S"['IC0749', 'UGC06962', '2MASXJ11583398+4244027', 'SDSSJ115834.04+424402.5']"
p473
sg229
S'179.64186'
p474
sg231
S'1.2'
p475
sg233
S'1066'
p476
sg235
S'0.45'
p477
sg237
S'60'
p478
sg239
S'K_2mass_tot'
p479
sg241
S'4.4'
p480
sg243
S'65'
p481
sg245
S'13.9'
p482
sg247
S'807'
p483
sg249
S'88.3'
p484
sg251
g252
sg253
g437
sg254
S'0.018'
p485
sg256
S'0.35'
p486
sg258
S'13.049'
p487
sg260
S'71.052804'
p488
sg262
S'140.65'
p489
sg264
F66.3
sg265
S'0.3'
p490
sg267
S'3.703'
p491
sa(dp492
g102
S'58'
p493
sg104
S'11'
p494
sg106
S'17.8'
p495
sg108
S'100008'
p496
sg110
F349.981
sg111
F162.43075088480012
sg112
S'80'
p497
sg114
S'0.002773'
p498
sg116
S'B_(B_T^0)'
p499
sg118
g420
sg120
S'151.865691'
p500
sg122
S'B_(m_B)'
p501
sg123
S'10.5'
p502
sg125
S'17.582'
p503
sg127
g425
sg129
g426
sg131
S'16.089'
p504
sg133
S'17.8'
p505
sg135
S'31.38'
p506
sg137
S'66'
p507
sg139
S'TF'
p508
sg140
S'0.35'
p509
sg142
F0.003418356719535894
sg143
S'29.77'
p510
sg145
S'15.302'
p511
sg147
S'180.68'
p512
sg149
S'NGC4013'
p513
sg151
S'0.96'
p514
sg153
S'43.94658'
p515
sg155
S'47.688'
p516
sg157
S'18.238'
p517
sg159
S'66'
p518
sg161
S'56'
p519
sg163
S'LC_II'
p520
sg164
S'43'
p521
sg166
S'1.1'
p522
sg168
g446
sg170
g447
sg171
F0.0014031303852313523
sg172
S'0.19'
p523
sg174
g368
sg176
S'19.147'
p524
sg178
g368
sg179
g450
sg181
S'11.6'
p525
sg183
F1178.0
sg184
S'15.4'
p526
sg186
g453
sg188
S'4.5'
p527
sg190
S'0.00056'
p528
sg192
S'SAb;HII_LINER'
p529
sg194
S'11.2'
p530
sg196
g337
sg197
S'89.7'
p531
sg199
g460
sg201
S'NGC4013'
p532
sg203
S'24.1'
p533
sg205
g463
sg207
S'12.3'
p534
sg209
g465
sg211
S'K_lga2mass_tot'
p535
sg213
S'K_lga2mass_tot'
p536
sg215
g216
sg217
g468
sg219
g30
sg220
S'2.2'
p537
sg222
S'0.9'
p538
sg224
S'.S..3./'
p539
sg225
g472
sg227
S"['NGC4013', 'UGC06963', '2MASXJ11583141+4356492', 'SDSSJ115831.38+435647.6']"
p540
sg229
S'179.63075'
p541
sg231
S'0.64'
p542
sg233
S'1086'
p543
sg235
S'0.00032'
p544
sg237
S'75'
p545
sg239
S'K_lga2mass_tot'
p546
sg241
S'17.0'
p547
sg243
S'65'
p548
sg245
S'19.9'
p549
sg247
S'831'
p550
sg249
S'345.0'
p551
sg251
g252
sg253
g514
sg254
S'0.0144'
p552
sg256
S'1.6'
p553
sg258
S'2.203'
p554
sg260
S'70.089184'
p555
sg262
S'314.88'
p556
sg264
F46.8
sg265
S'0.59'
p557
sg267
S'7.741'
p558
saas.