(dp0
S'Vhels'
p1
(lp2
F1525.0
aF7312.0
aF4800.0
aF3838.0
asS'impacts'
p3
(lp4
F403.143
aF366.291
aF268.145
aF277.326
asS'group_dists'
p5
(lp6
F-99.99
aF76.7
aF-99.99
aF-99.99
asS'MTypes'
p7
(lp8
S'SB(rs)dm:_HII'
p9
aS'SA(s)0^0^:'
p10
aS'Sb'
p11
aS'Im:'
p12
asS'e_Lya_Ws'
p13
(lp14
F2.0
aF13.0
aF15.0
aF6.0
asS'e_Lstar_sdsss'
p15
(lp16
F0.1
aF0.49
aF0.39
aF0.025
asS'Bmag_sdsss'
p17
(lp18
F14.6
aF15.2
aF14.7
aF17.5
asS'Nas'
p19
(lp20
F4570000000000.0
aF138000000000000.0
aF277000000000000.0
aF86800000000000.0
asS'Lya_Ws'
p21
(lp22
F23.0
aF429.0
aF528.0
aF268.0
asS'bestDists'
p23
(lp24
F24.1
aF110.0
aF63.82
aF58.08
asS'adjustedIncs'
p25
(lp26
F58.0
aF17.0
aF52.0
aF0.0
asS'targets'
p27
(lp28
S'HE1228+0131'
p29
aS'RX_J1236.0+2641'
p30
aS'SDSSJ021218.32-073719.8'
p31
aS'TON605'
p32
asS'e_bs'
p33
(lp34
F1.4
aF2.1
aF3.4
aF2.2
asS'incs'
p35
(lp36
F57.0
aF16.0
aF50.0
aF0.0
asS'azimuths'
p37
(lp38
F55.3
aF45.7
aF29.5
aF24.0
asS'group_nums'
p39
(lp40
S'-99'
p41
aS'100082'
p42
aS'-99'
p43
aS'-99'
p44
asS'Ws'
p45
(lp46
F29.7
aF96.5
aF95.0
aF61.6
asS'ls'
p47
(lp48
F0.007688722525235272
aF0.012049446105211352
aF0.009092566153854089
aF0.013205142721756382
asS'Lya_vs'
p49
(lp50
F1571.0
aF7111.0
aF4756.0
aF3781.0
asS'R_virs'
p51
(lp52
F184.51
aF226.16
aF124.83
aF135.6
asS'Bmags'
p53
(lp54
F12.7
aF14.3
aF-99.99
aF-99.99
asS'cuss'
p55
(lp56
F170.0181681732867
aF264.6439567569983
aF72.70633045340689
aF87.03866579859782
asS'vcorrs'
p57
(lp58
F1818.0
aF7603.0
aF4532.0
aF4124.0
asS'e_Nas'
p59
(lp60
F391000000000.0
aF6530000000000.0
aF34900000000000.0
aF2740000000000.0
asS'e_bestDists'
p61
(lp62
F4.22
aF7.34
aF6.38
aF5.8
asS'group_mems'
p63
(lp64
S'-99'
p65
aS'12'
p66
aS'-99'
p67
aS'-99'
p68
asS'e_Lstar_meds'
p69
(lp70
F0.62
aF1.2
aF-99.99
aF-99.99
asS'Dec_targets'
p71
(lp72
F1.256388888888889
aF26.693333333333335
aF-7.622222222222222
aF30.116944444444446
asS'PAs'
p73
(lp74
F30.0
aF90.0
aF129.0
aF148.0
asS'Lstar_meds'
p75
(lp76
F0.77
aF3.8
aF-99.99
aF-99.99
asS'RA_galaxies'
p77
(lp78
F188.11732
aF189.16625
aF33.31582
aF184.2047
asS'bs'
p79
(lp80
F17.9
aF57.9
aF57.0
aF37.0
asS'e_Ws'
p81
(lp82
F2.3
aF3.5
aF5.6
aF3.7
asS'Dec_galaxies'
p83
(lp84
F0.38967
aF26.82994
aF-7.66188
aF30.26996
asS'MajDiams'
p85
(lp86
F30.69
aF41.22
aF17.42
aF19.64
asS'RA_targets'
p87
(lp88
F187.70833333333334
aF189.01708333333332
aF33.07625
aF184.46708333333333
asS'e_Lya_vs'
p89
(lp90
F1.0
aF1.0
aF1.0
aF1.0
asS'z_targets'
p91
(lp92
F0.117
aF0.20915
aF0.17392
aF0.13
asS'Lstar_sdsss'
p93
(lp94
F0.13
aF1.6
aF0.84
aF0.055
asS'Names'
p95
(lp96
S'NGC4517A'
p97
aS'IC3585'
p98
aS'SDSSJ021315.79-073942.7'
p99
aS'UGC07302'
p100
asS'l_cuss'
p101
(lp102
F0.003291143950922747
aF0.02444561164159359
aF1.1362244812951402e-06
aF3.37503561118343e-05
asS'others'
p103
(lp104
(lp105
(dp106
S'RAm'
p107
S'34'
p108
sS'RAh'
p109
S'12'
p110
sS'RID_median'
p111
S'13.6'
p112
sS'group_num'
p113
S'170002'
p114
sS'impact'
p115
F385.415
sS'cus'
p116
F175.280107165645
sS'adjustedInc'
p117
S'74'
p118
sS'z'
p119
S'0.005791'
p120
sS'Bmag_max_key'
p121
S'B_(B_T^0)'
p122
sS'e_W'
p123
S'2.3'
p124
sS'GLON'
p125
S'292.59582'
p126
sS'Bmag_min_key'
p127
S'B_(m_B)'
p128
sS'group_dist'
p129
S'21'
p130
sS'rmag_sdss'
p131
S'-99.99'
p132
sS'identified'
p133
S'Lya'
p134
sS'e_b'
p135
S'1.4'
p136
sS'zmag_sdss'
p137
S'-99.99'
p138
sS'bestDist'
p139
S'13.6'
p140
sS'RAs'
p141
S'8.4216'
p142
sS'RC3_pa'
p143
S'67'
p144
sS'distIndicator'
p145
S'SBF'
p146
sS'e_Lstar_min'
p147
S'0.9'
p148
sS'l'
p149
F0.004285788454401463
sS'MajDiam'
p150
S'31.32'
p151
sS'distvcorr'
p152
S'28.606'
p153
sS'R_vir'
p154
S'187.12'
p155
sS'Name'
p156
S'NGC4527'
p157
sS'e_MajDiam'
p158
S'2.6'
p159
sS'DEdeg'
p160
S'2.65366'
p161
sS'DEs'
p162
S'13.176'
p163
sS'RID_mean'
p164
S'14.243'
p165
sS'PA'
p166
S'70'
p167
sS'DEm'
p168
S'39'
p169
sS'lumClass'
p170
S'LC_II-III'
p171
sS'DEd'
p172
S'2'
p173
sS'Lstar_med'
p174
S'0.81'
p175
sS'W'
p176
S'29.7'
p177
sS'e_Lya_W'
p178
g173
sS'l_cus'
p179
F0.002369799890952678
sS'RC3_r25'
p180
S'0.34'
p181
sS'e_inc'
p182
S'1'
p183
sS'gmag_sdss'
p184
S'-99.99'
p185
sS'e_Lya_v'
p186
g183
sS'e_Na'
p187
S'3.91E+11'
p188
sS'Bmag'
p189
S'11.4'
p190
sS'Lya_v'
p191
F1571.0
sS'RID_min'
p192
S'10.1'
p193
sS'Na'
p194
S'4.57E+12'
p195
sS'e_MinDiam_ang'
p196
S'8.1'
p197
sS'Lstar_sdss'
p198
S'-99.99'
p199
sS'MType'
p200
S'SAB(s)bc;HII_LINER'
p201
sS'Bmag_max'
p202
S'10.7'
p203
sS'Bmag_key'
p204
S'B_(B_T)'
p205
sS'MinDiam_ang'
p206
S'161.5'
p207
sS'Lya_W'
p208
S'23'
p209
sS'NEDname'
p210
S'NGC4527'
p211
sS'RID_max'
p212
S'29.4'
p213
sS'Dec_target'
p214
S'1.256388888888889'
p215
sS'Bmag_min'
p216
S'11.4'
p217
sS'z_target'
p218
S'0.11700'
p219
sS'paKey'
p220
S'K_lga2mass_tot'
p221
sS'diameterKey'
p222
S'K_lga2mass_tot'
p223
sS'flag'
p224
S'0'
p225
sS'b'
p226
S'17.9'
p227
sS'target'
p228
g29
sS'e_bestDist'
p229
S'3.3'
p230
sS'e_Lstar_max'
p231
S'1.8'
p232
sS'RC3_type'
p233
S'.SXS4..'
p234
sS'RA_target'
p235
S'187.70833333333334'
p236
sS'altNames'
p237
S"['NGC4527', 'UGC07721', '2MASXJ12340849+0239137', 'SDSSJ123408.44+023913.7']"
p238
sS'RAdeg'
p239
S'188.53509'
p240
sS'e_Lstar_med'
p241
S'0.91'
p242
sS'vcorr'
p243
S'2031'
p244
sS'e_Lstar_sdss'
p245
S'-99.99'
p246
sS'inc'
p247
S'70'
p248
sS'ratioKey'
p249
S'K_lga2mass_tot'
p250
sS'e_MajDiam_ang'
p251
S'24.0'
p252
sS'group_mem'
p253
S'4'
p254
sS'Bmag_sdss'
p255
S'-99.99'
p256
sS'Vhel'
p257
S'1736'
p258
sS'MajDiam_ang'
p259
S'475.0'
p260
sS'DE-'
p261
S'+'
p262
sS'e_MinDiam'
p263
g159
sS'E(B-V)'
p264
S'0.0189'
p265
sS'Lstar_max'
p266
S'1.6'
p267
sS'RID_std'
p268
S'3.307'
p269
sS'GLAT'
p270
S'65.177691'
p271
sS'RC3_d25'
p272
S'369.96'
p273
sS'azimuth'
p274
F39.4
sS'Lstar_min'
p275
S'0.8'
p276
sS'MinDiam'
p277
S'10.65'
p278
sa(dp279
g107
S'34'
p280
sg109
S'12'
p281
sg111
S'14.9'
p282
sg113
S'170002'
p283
sg115
F337.658
sg116
F161.20465603697681
sg117
S'61'
p284
sg119
S'0.006031'
p285
sg121
S'B'
p286
sg123
g124
sg125
S'292.949501'
p287
sg127
S'B_(B_T)'
p288
sg129
S'21'
p289
sg131
S'12'
p290
sg133
g134
sg135
g136
sg137
S'11.106'
p291
sg139
S'14.9'
p292
sg141
S'27.0504'
p293
sg143
S'130'
p294
sg145
S'Ceph'
p295
sg147
S'1.0'
p296
sg149
F0.0024458482167750086
sg150
S'29.62'
p297
sg152
S'29.614'
p298
sg154
S'180.05'
p299
sg156
S'NGC4536'
p300
sg158
S'2.9'
p301
sg160
S'2.18814'
p302
sg162
S'17.304'
p303
sg164
S'15.363'
p304
sg166
S'95'
p305
sg168
S'11'
p306
sg170
S'LC_II-III'
p307
sg172
g173
sg174
S'2.0'
p308
sg176
g177
sg178
g173
sg179
F0.0010243304586559782
sg180
S'0.43'
p309
sg182
S'3'
p310
sg184
S'13.181'
p311
sg186
g183
sg187
g188
sg189
S'10.6'
p312
sg191
F1571.0
sg192
S'8.67'
p313
sg194
g195
sg196
S'11.0'
p314
sg198
S'0.11'
p315
sg200
S'SAB(rs)bc;HII_Sbrst'
p316
sg202
S'9.89'
p317
sg204
S'B_(B_T^0)'
p318
sg206
S'213.2'
p319
sg208
g209
sg210
S'NGC4536'
p320
sg212
S'28.0'
p321
sg214
g215
sg216
S'11.2'
p322
sg218
g219
sg220
S'K_lga2mass_tot'
p323
sg222
S'K_lga2mass_tot'
p324
sg224
g225
sg226
g227
sg228
g29
sg229
S'2.83'
p325
sg231
S'3.3'
p326
sg233
S'.SXT4..'
p327
sg235
g236
sg237
S"['NGC4536', 'UGC07732', '2MASXJ12342712+0211163', 'SDSSJ123427.04+021117.2']"
p328
sg239
S'188.61271'
p329
sg241
S'1.8'
p330
sg243
S'2103'
p331
sg245
S'0.093'
p332
sg247
S'59'
p333
sg249
S'K_lga2mass_tot'
p334
sg251
S'21.0'
p335
sg253
g254
sg255
S'13.8'
p336
sg257
S'1808'
p337
sg259
S'410.0'
p338
sg261
g262
sg263
g301
sg264
S'0.0157'
p339
sg266
S'3.8'
p340
sg268
S'2.83'
p341
sg270
S'64.730132'
p342
sg272
S'455.15'
p343
sg274
F50.9
sg275
S'1.2'
p344
sg277
S'15.4'
p345
saa(lp346
(dp347
g107
S'35'
p348
sg109
S'12'
p349
sg111
S'-99.99'
p350
sg113
S'-99'
p351
sg115
F158.487
sg116
F18.50835457227357
sg117
S'40'
p352
sg119
S'0.023621'
p353
sg121
S'x'
p354
sg123
S'3.5'
p355
sg125
S'218.1462'
p356
sg127
g354
sg129
S'-99.99'
p357
sg131
S'16.189'
p358
sg133
S'Lya'
p359
sg135
S'2.1'
p360
sg137
S'15.641'
p361
sg139
S'103.83'
p362
sg141
S'47.5656'
p363
sg143
S'-99'
p364
sg145
g354
sg147
S'-99.99'
p365
sg149
F0.0032967373390322915
sg150
S'6.997'
p366
sg152
S'103.833'
p367
sg154
S'66.53'
p368
sg156
S'SDSSJ123547.56+264519.6'
p369
sg158
S'0.55'
p370
sg160
S'26.75548'
p371
sg162
S'19.728'
p372
sg164
S'-99.99'
p373
sg166
S'110'
p374
sg168
S'45'
p375
sg170
g354
sg172
S'26'
p376
sg174
S'-99.99'
p377
sg176
S'96.5'
p378
sg178
S'13'
p379
sg179
F1.3740892878149598e-32
sg180
S'-99.99'
p380
sg182
S'5'
p381
sg184
S'16.847'
p382
sg186
g183
sg187
S'6.53E+12'
p383
sg189
S'-99.99'
p384
sg191
F7111.0
sg192
S'-99.99'
p385
sg194
S'1.38E+14'
p386
sg196
S'0.54'
p387
sg198
S'0.2'
p388
sg200
g354
sg202
S'-99.99'
p389
sg204
g354
sg206
S'10.84'
p390
sg208
S'429'
p391
sg210
S'2MASXJ12354755+2645197'
p392
sg212
S'-99.99'
p393
sg214
S'26.693333333333335'
p394
sg216
S'-99.99'
p395
sg218
S'0.20915'
p396
sg220
S'K_2mass_tot'
p397
sg222
S'K_2mass_tot'
p398
sg224
g225
sg226
S'57.9'
p399
sg228
g30
sg229
S'10.38'
p400
sg231
S'-99.99'
p401
sg233
g354
sg235
S'189.01708333333332'
p402
sg237
S"['2MASXJ12354755+2645197', 'SDSSJ123547.56+264519.6']"
p403
sg239
S'188.94819'
p404
sg241
S'-99.99'
p405
sg243
S'7372'
p406
sg245
S'0.095'
p407
sg247
S'39'
p408
sg249
S'K_2mass_tot'
p409
sg251
S'0.7'
p410
sg253
S'-99'
p411
sg255
S'17.3'
p412
sg257
S'7081'
p413
sg259
S'13.9'
p414
sg261
g262
sg263
g370
sg264
S'0.0161'
p415
sg266
S'-99.99'
p416
sg268
S'-99.99'
p417
sg270
S'86.493492'
p418
sg272
S'-99.99'
p419
sg274
F25.3
sg275
S'-99.99'
p420
sg277
S'5.458'
p421
sa(dp422
g107
S'36'
p423
sg109
S'12'
p424
sg111
S'-99.99'
p425
sg113
S'-99'
p426
sg115
F131.386
sg116
F25.599397118994816
sg117
S'45'
p427
sg119
S'0.024591'
p428
sg121
g354
sg123
g355
sg125
S'218.322536'
p429
sg127
g354
sg129
S'-99.99'
p430
sg131
S'16.007'
p431
sg133
g359
sg135
g360
sg137
S'15.395'
p432
sg139
S'107.93'
p433
sg141
S'12.2616'
p434
sg143
S'-99'
p435
sg145
g354
sg147
S'-99.99'
p436
sg149
F0.002680414517531359
sg150
S'8.686'
p437
sg152
S'107.931'
p438
sg154
S'77.23'
p439
sg156
S'IC3565'
p440
sg158
S'0.63'
p441
sg160
S'26.75612'
p442
sg162
S'22.032'
p443
sg164
S'-99.99'
p444
sg166
S'25'
p445
sg168
S'45'
p446
sg170
g354
sg172
S'26'
p447
sg174
S'-99.99'
p448
sg176
g378
sg178
g379
sg179
F1.7587706952249332e-13
sg180
S'-99.99'
p449
sg182
g254
sg184
S'16.711'
p450
sg186
g183
sg187
g383
sg189
S'-99.99'
p451
sg191
F7111.0
sg192
S'-99.99'
p452
sg194
g386
sg196
S'0.6'
p453
sg198
S'0.25'
p454
sg200
g354
sg202
S'-99.99'
p455
sg204
g354
sg206
S'11.95'
p456
sg208
g391
sg210
S'IC3565'
p457
sg212
S'-99.99'
p458
sg214
g394
sg216
S'-99.99'
p459
sg218
g396
sg220
S'K_2mass_tot'
p460
sg222
S'K_2mass_tot'
p461
sg224
g225
sg226
g399
sg228
g30
sg229
S'10.79'
p462
sg231
S'-99.99'
p463
sg233
g354
sg235
g402
sg237
S"['IC3565', '2MASXJ12361227+2645221', 'SDSSJ123612.26+264521.9']"
p464
sg239
S'189.05109'
p465
sg241
S'-99.99'
p466
sg243
S'7663'
p467
sg245
S'0.12'
p468
sg247
S'44'
p469
sg249
S'r_sdss_iso'
p470
sg251
S'0.83'
p471
sg253
S'-99'
p472
sg255
S'17.2'
p473
sg257
S'7372'
p474
sg259
S'16.6'
p475
sg261
g262
sg263
g441
sg264
S'0.0172'
p476
sg266
S'-99.99'
p477
sg268
S'-99.99'
p478
sg270
S'86.58476'
p479
sg272
S'-99.99'
p480
sg274
F0.8
sg275
S'-99.99'
p481
sg277
S'6.254'
p482
saa(lp483
(dp484
g107
S'12'
p485
sg109
g173
sg111
S'-99.99'
p486
sg113
S'-99'
p487
sg115
F214.386
sg116
F58.26912155679026
sg117
S'80'
p488
sg119
S'0.016527'
p489
sg121
S'b_J'
p490
sg123
S'5.6'
p491
sg125
S'171.299344'
p492
sg127
S'b_J'
p493
sg129
S'-99.99'
p494
sg131
S'16.186'
p495
sg133
S'f:Lya'
p496
sg135
S'3.4'
p497
sg137
S'15.652'
p498
sg139
S'66'
p499
sg141
S'2.568'
p500
sg143
S'-99'
p501
sg145
g354
sg147
S'0.039'
p502
sg149
F0.004628730458409927
sg150
S'15.03'
p503
sg152
S'66.0'
p504
sg154
S'112.75'
p505
sg156
S'SDSSJ021202.56-074747.8'
p506
sg158
S'0.69'
p507
sg160
S'-7.79663'
p508
sg162
S'47.868'
p509
sg164
S'-99.99'
p510
sg166
g254
sg168
S'47'
p511
sg170
g354
sg172
S'7'
p512
sg174
S'0.082'
p513
sg176
S'95'
p514
sg178
S'15'
p515
sg179
F2.2733503871316667e-07
sg180
S'-99.99'
p516
sg182
g183
sg184
S'16.701'
p517
sg186
g183
sg187
S'3.49E+13'
p518
sg189
S'17.3'
p519
sg191
F4756.0
sg192
S'-99.99'
p520
sg194
S'2.77E+14'
p521
sg196
S'0.86'
p522
sg198
S'0.1'
p523
sg200
S'Sc(f)'
p524
sg202
S'17.3'
p525
sg204
S'b_J'
p526
sg206
S'12.22'
p527
sg208
S'528'
p528
sg210
S'SDSSJ021202.56-074747.8'
p529
sg212
S'-99.99'
p530
sg214
S'-7.622222222222222'
p531
sg216
S'17.3'
p532
sg218
S'0.17392'
p533
sg220
S'r_sdss_iso'
p534
sg222
S'r_sdss_iso'
p535
sg224
g225
sg226
S'57'
p536
sg228
g31
sg229
S'6.6'
p537
sg231
S'0.039'
p538
sg233
g354
sg235
S'33.07625'
p539
sg237
S"['SDSSJ021202.56-074747.8']"
p540
sg239
S'33.0107'
p541
sg241
S'0.039'
p542
sg243
S'4686'
p543
sg245
S'0.046'
p544
sg247
S'75'
p545
sg249
S'r_sdss_iso'
p546
sg251
S'0.41'
p547
sg253
S'-99'
p548
sg255
S'17.1'
p549
sg257
S'4955'
p550
sg259
S'46.98'
p551
sg261
S'-'
p552
sg263
g507
sg264
S'0.0198'
p553
sg266
S'0.082'
p554
sg268
S'-99.99'
p555
sg270
S'-62.828403'
p556
sg272
S'-99.99'
p557
sg274
F16.4
sg275
S'0.082'
p558
sg277
S'3.909'
p559
saa(lp560
(dp561
g107
S'18'
p562
sg109
S'12'
p563
sg111
S'-99.99'
p564
sg113
S'110580'
p565
sg115
F336.118
sg116
F106.58460016343825
sg117
S'52'
p566
sg119
S'0.012929'
p567
sg121
S'B_(m_B^0)'
p568
sg123
S'3.7'
p569
sg125
S'190.681271'
p570
sg127
g286
sg129
S'42.1'
p571
sg131
S'13.022'
p572
sg133
S'Lya'
p573
sg135
S'2.2'
p574
sg137
S'12.406'
p575
sg139
S'58.63'
p576
sg141
S'26.5104'
p577
sg143
S'-99'
p578
sg145
g354
sg147
S'0.091'
p579
sg149
F0.004086276527311316
sg150
S'22.48'
p580
sg152
S'58.632'
p581
sg154
S'148.85'
p582
sg156
S'NGC4253'
p583
sg158
S'1.4'
p584
sg160
S'29.81287'
p585
sg162
S'46.332'
p586
sg164
S'-99.99'
p587
sg166
S'110'
p588
sg168
S'48'
p589
sg170
S'LC_I'
p590
sg172
S'29'
p591
sg174
S'1.4'
p592
sg176
S'61.6'
p593
sg178
S'6'
p594
sg179
F3.2124926481001604e-05
sg180
S'0.87'
p595
sg182
g310
sg184
S'13.622'
p596
sg186
g183
sg187
S'2.74E+12'
p597
sg189
S'13.9'
p598
sg191
F3781.0
sg192
S'-99.99'
p599
sg194
S'8.68E+13'
p600
sg196
S'2.5'
p601
sg198
S'1.3'
p602
sg200
S"(R')SB(s)a:_Sy1.5"
p603
sg202
S'13.7'
p604
sg204
S'B_T(25)_'
p605
sg206
S'50.62'
p606
sg208
S'268'
p607
sg210
S'NGC4253'
p608
sg212
S'-99.99'
p609
sg214
S'30.116944444444446'
p610
sg216
S'16.1'
p611
sg218
S'0.13000'
p612
sg220
S'K_2mass_tot'
p613
sg222
S'K_2mass_tot'
p614
sg224
g225
sg226
S'37'
p615
sg228
g32
sg229
S'5.86'
p616
sg231
S'0.79'
p617
sg233
S'PSBS1*.'
p618
sg235
S'184.46708333333333'
p619
sg237
S"['NGC4253', 'UGC07344', 'MRK0766', '2MASXJ12182648+2948461', 'SDSSJ121826.51+294846.5']"
p620
sg239
S'184.61046'
p621
sg241
S'0.68'
p622
sg243
S'4163'
p623
sg245
S'0.6'
p624
sg247
S'50'
p625
sg249
S'K_2mass_tot'
p626
sg251
S'4.0'
p627
sg253
g183
sg255
S'14'
p628
sg257
S'3876'
p629
sg259
S'79.1'
p630
sg261
g262
sg263
g584
sg264
S'0.017'
p631
sg266
S'1.7'
p632
sg268
S'-99.99'
p633
sg270
S'82.270131'
p634
sg272
S'57.3'
p635
sg274
F47.8
sg275
S'0.2'
p636
sg277
S'14.39'
p637
saas.