(dp0
S'Vhels'
p1
(lp2
F1128.0
aF4955.0
aF3838.0
aF1999.0
aF6300.0
asS'impacts'
p3
(lp4
F209.758
aF214.386
aF277.326
aF180.324
aF387.512
asS'group_dists'
p5
(lp6
F8.6
aF-99.99
aF-99.99
aF-99.99
aF67.2
asS'MTypes'
p7
(lp8
S'SA(s)cd:_sp_HII'
p9
aS'Sc(f)'
p10
aS'Im:'
p11
aS'Sc_(on_edge)'
p12
aS'Scd:'
p13
asS'e_Lya_Ws'
p14
(lp15
F3.0
aF17.0
aF6.0
aF10.0
aF14.0
asS'Nas'
p16
(lp17
F39900000000000.0
aF252000000000000.0
aF86800000000000.0
aF7290000000000.0
aF67600000000000.0
asS'Lya_Ws'
p18
(lp19
F160.0
aF500.0
aF268.0
aF36.0
aF257.0
asS'bestDists'
p20
(lp21
F9.7
aF66.0
aF58.08
aF47.6
aF92.79
asS'adjustedIncs'
p22
(lp23
F90.0
aF80.0
aF0.0
aF75.0
aF55.0
asS'targets'
p24
(lp25
S'HE1228+0131'
p26
aS'SDSSJ021218.32-073719.8'
p27
aS'TON605'
p28
aS'MS1217.0+0700'
p29
aS'RX_J1142.5+2503'
p30
asS'e_bs'
p31
(lp32
F2.4
aF3.0
aF2.2
aF2.1
aF2.5
asS'incs'
p33
(lp34
F81.0
aF75.0
aF0.0
aF71.0
aF53.0
asS'azimuths'
p35
(lp36
F74.1
aF16.4
aF24.0
aF74.8
aF28.0
asS'group_nums'
p37
(lp38
S'0'
p39
aS'-99'
p40
aS'-99'
p41
aS'-99'
p42
aS'110775'
p43
asS'Ws'
p44
(lp45
F55.9
aF98.0
aF61.6
aF39.9
aF78.6
asS'ls'
p46
(lp47
F0.012395907429292505
aF0.018545498217265474
aF0.014066292800413004
aF0.013780555128751287
aF0.02424335524587844
asS'Lya_vs'
p48
(lp49
F1495.0
aF4833.0
aF3781.0
aF1720.0
aF6133.0
asS'R_virs'
p50
(lp51
F207.37
aF112.75
aF135.6
aF117.92
aF222.9
asS'Bmags'
p52
(lp53
F11.1
aF17.3
aF-99.99
aF15.4
aF14.4
asS'cuss'
p54
(lp55
F219.1576438890508
aF58.26912155679026
aF87.03866579859782
aF64.24014993755851
aF256.4051455333921
asS'vcorrs'
p56
(lp57
F1420.0
aF4686.0
aF4124.0
aF2297.0
aF6589.0
asS'e_Nas'
p58
(lp59
F860000000000.0
aF33600000000000.0
aF2740000000000.0
aF2190000000000.0
aF4610000000000.0
asS'e_bestDists'
p60
(lp61
F2.78
aF6.6
aF5.8
aF7.92
aF9.27
asS'group_mems'
p62
(lp63
S'1'
p64
aS'-99'
p65
aS'-99'
p66
aS'-99'
p67
ag64
asS'e_Lstar_meds'
p68
(lp69
F0.72
aF0.039
aF-99.99
aF0.19
aF1.1
asS'Dec_targets'
p70
(lp71
F1.256388888888889
aF-7.622222222222222
aF30.116944444444446
aF6.726388888888889
aF25.06
asS'PAs'
p72
(lp73
F83.0
aF4.0
aF148.0
aF160.0
aF145.0
asS'Lstar_meds'
p74
(lp75
F0.54
aF0.082
aF-99.99
aF0.25
aF2.4
asS'RA_galaxies'
p76
(lp77
F188.18996
aF33.0107
aF184.2047
aF184.66095
aF175.66438
asS'bs'
p78
(lp79
F33.6
aF58.8
aF37.0
aF24.0
aF47.2
asS'e_Ws'
p80
(lp81
F4.1
aF5.0
aF3.7
aF3.5
aF4.1
asS'Dec_galaxies'
p82
(lp83
F0.11503
aF-7.79663
aF30.26996
aF6.70838
aF24.82252
asS'MajDiams'
p84
(lp85
F36.35
aF15.03
aF19.64
aF16.04
aF40.36
asS'RA_targets'
p86
(lp87
F187.70833333333334
aF33.07625
aF184.46708333333333
aF184.87875
aF175.63208333333333
asS'e_Lya_vs'
p88
(lp89
F1.0
aF1.0
aF1.0
aF1.0
aF1.0
asS'z_targets'
p90
(lp91
F0.117
aF0.17392
aF0.13
aF0.08058
aF0.18417
asS'Names'
p92
(lp93
S'NGC4517'
p94
aS'SDSSJ021202.56-074747.8'
p95
aS'UGC07302'
p96
aS'PGC039556'
p97
aS'UGC06674'
p98
asS'l_cuss'
p99
(lp100
F0.013797266420318222
aF9.108418805240421e-07
aF3.5951326024299546e-05
aF5.405870528438405e-05
aF0.05072511772504136
asS'others'
p101
(lp102
(lp103
(dp104
S'RAm'
p105
S'32'
p106
sS'RAh'
p107
S'12'
p108
sS'RID_median'
p109
S'24.1'
p110
sS'group_num'
p111
S'-99'
p112
sS'impact'
p113
F403.143
sS'cus'
p114
F170.0181681732867
sS'adjustedInc'
p115
S'58'
p116
sS'z'
p117
S'0.005087'
p118
sS'Bmag_max_key'
p119
S'B_(m_B)'
p120
sS'e_W'
p121
S'4.1'
p122
sS'GLON'
p123
S'292.484881'
p124
sS'Bmag_min_key'
p125
S'B_(Johnson)'
p126
sS'group_dist'
p127
S'-99.99'
p128
sS'rmag_sdss'
p129
S'13.865'
p130
sS'identified'
p131
S'Lya'
p132
sS'e_b'
p133
S'2.4'
p134
sS'zmag_sdss'
p135
S'14.01'
p136
sS'bestDist'
p137
S'24.1'
p138
sS'RAs'
p139
S'28.1568'
p140
sS'RC3_pa'
p141
S'30'
p142
sS'distIndicator'
p143
S'TF'
p144
sS'e_Lstar_min'
p145
S'0.051'
p146
sS'l'
p147
F0.008258963476947786
sS'MajDiam'
p148
S'30.69'
p149
sS'distvcorr'
p150
S'25.602'
p151
sS'R_vir'
p152
S'184.51'
p153
sS'Name'
p154
S'NGC4517A'
p155
sS'e_MajDiam'
p156
S'4.2'
p157
sS'DEdeg'
p158
S'0.38967'
p159
sS'DEs'
p160
S'22.812'
p161
sS'RID_mean'
p162
S'22.68'
p163
sS'PA'
p164
S'30'
p165
sS'DEm'
p166
S'23'
p167
sS'lumClass'
p168
S'LC_IV-V'
p169
sS'DEd'
p170
g39
sS'Lstar_med'
p171
S'0.77'
p172
sS'W'
p173
S'55.9'
p174
sS'e_Lya_W'
p175
S'3'
p176
sS'l_cus'
p177
F0.0035352345723019653
sS'RC3_r25'
p178
S'0.66'
p179
sS'e_inc'
p180
S'2'
p181
sS'gmag_sdss'
p182
S'14.289'
p183
sS'e_Lya_v'
p184
g64
sS'e_Na'
p185
S'8.60E+11'
p186
sS'Bmag'
p187
S'12.7'
p188
sS'Lya_v'
p189
F1495.0
sS'RID_min'
p190
S'14.5'
p191
sS'Na'
p192
S'3.99E+13'
p193
sS'e_MinDiam_ang'
p194
S'9.4'
p195
sS'Lstar_sdss'
p196
S'0.13'
p197
sS'MType'
p198
S'SB(rs)dm:_HII'
p199
sS'Bmag_max'
p200
S'12.5'
p201
sS'Bmag_key'
p202
S'B_J'
p203
sS'MinDiam_ang'
p204
S'144.5'
p205
sS'Lya_W'
p206
S'160'
p207
sS'NEDname'
p208
S'NGC4517A'
p209
sS'RID_max'
p210
S'26.7'
p211
sS'Dec_target'
p212
S'1.256388888888889'
p213
sS'Bmag_min'
p214
S'15.4'
p215
sS'z_target'
p216
S'0.11700'
p217
sS'paKey'
p218
S'poss_103a-O'
p219
sS'diameterKey'
p220
S'poss_103a-O'
p221
sS'flag'
p222
g39
sS'b'
p223
S'33.6'
p224
sS'target'
p225
g26
sS'e_bestDist'
p226
S'4.22'
p227
sS'e_Lstar_max'
p228
S'0.78'
p229
sS'RC3_type'
p230
S'.SBT8*.'
p231
sS'RA_target'
p232
S'187.70833333333334'
p233
sS'altNames'
p234
S"['NGC4517A', 'UGC07685', 'SDSSJ123227.94+002326.2']"
p235
sS'RAdeg'
p236
S'188.11732'
p237
sS'e_Lstar_med'
p238
S'0.62'
p239
sS'vcorr'
p240
S'1818'
p241
sS'e_Lstar_sdss'
p242
S'0.1'
p243
sS'inc'
p244
S'57'
p245
sS'ratioKey'
p246
S'poss_103a-O'
p247
sS'e_MajDiam_ang'
p248
S'2.4'
p249
sS'group_mem'
p250
S'-99'
p251
sS'Bmag_sdss'
p252
S'14.6'
p253
sS'Vhel'
p254
S'1525'
p255
sS'MajDiam_ang'
p256
S'262.6'
p257
sS'DE-'
p258
S'+'
p259
sS'e_MinDiam'
p260
g157
sS'E(B-V)'
p261
S'0.0193'
p262
sS'Lstar_max'
p263
S'0.93'
p264
sS'RID_std'
p265
S'4.225'
p266
sS'GLAT'
p267
S'62.876024'
p268
sS'RC3_d25'
p269
S'238.86'
p270
sS'azimuth'
p271
F55.3
sS'Lstar_min'
p272
S'0.063'
p273
sS'MinDiam'
p274
S'16.88'
p275
sa(dp276
g105
S'34'
p277
sg107
S'12'
p278
sg109
S'13.6'
p279
sg111
S'170002'
p280
sg113
F385.415
sg114
F175.280107165645
sg115
S'74'
p281
sg117
S'0.005791'
p282
sg119
S'B_(B_T^0)'
p283
sg121
g122
sg123
S'292.59582'
p284
sg125
S'B_(m_B)'
p285
sg127
S'21'
p286
sg129
S'-99.99'
p287
sg131
g132
sg133
g134
sg135
S'-99.99'
p288
sg137
S'13.6'
p289
sg139
S'8.4216'
p290
sg141
S'67'
p291
sg143
S'SBF'
p292
sg145
S'0.9'
p293
sg147
F0.0033645005882420548
sg148
S'31.32'
p294
sg150
S'28.606'
p295
sg152
S'187.12'
p296
sg154
S'NGC4527'
p297
sg156
S'2.6'
p298
sg158
S'2.65366'
p299
sg160
S'13.176'
p300
sg162
S'14.243'
p301
sg164
S'70'
p302
sg166
S'39'
p303
sg168
S'LC_II-III'
p304
sg170
g181
sg171
S'0.81'
p305
sg173
g174
sg175
g176
sg177
F0.0018603795338843314
sg178
S'0.34'
p306
sg180
g64
sg182
S'-99.99'
p307
sg184
g64
sg185
g186
sg187
S'11.4'
p308
sg189
F1495.0
sg190
S'10.1'
p309
sg192
g193
sg194
S'8.1'
p310
sg196
S'-99.99'
p311
sg198
S'SAB(s)bc;HII_LINER'
p312
sg200
S'10.7'
p313
sg202
S'B_(B_T)'
p314
sg204
S'161.5'
p315
sg206
g207
sg208
S'NGC4527'
p316
sg210
S'29.4'
p317
sg212
g213
sg214
S'11.4'
p318
sg216
g217
sg218
S'K_lga2mass_tot'
p319
sg220
S'K_lga2mass_tot'
p320
sg222
g39
sg223
g224
sg225
g26
sg226
S'3.3'
p321
sg228
S'1.8'
p322
sg230
S'.SXS4..'
p323
sg232
g233
sg234
S"['NGC4527', 'UGC07721', '2MASXJ12340849+0239137', 'SDSSJ123408.44+023913.7']"
p324
sg236
S'188.53509'
p325
sg238
S'0.91'
p326
sg240
S'2031'
p327
sg242
S'-99.99'
p328
sg244
S'70'
p329
sg246
S'K_lga2mass_tot'
p330
sg248
S'24.0'
p331
sg250
S'4'
p332
sg252
S'-99.99'
p333
sg254
S'1736'
p334
sg256
S'475.0'
p335
sg258
g259
sg260
g298
sg261
S'0.0189'
p336
sg263
S'1.6'
p337
sg265
S'3.307'
p338
sg267
S'65.177691'
p339
sg269
S'369.96'
p340
sg271
F39.4
sg272
S'0.8'
p341
sg274
S'10.65'
p342
sa(dp343
g105
S'34'
p344
sg107
S'12'
p345
sg109
S'14.9'
p346
sg111
S'170002'
p347
sg113
F337.658
sg114
F161.20465603697681
sg115
S'61'
p348
sg117
S'0.006031'
p349
sg119
S'B'
p350
sg121
g122
sg123
S'292.949501'
p351
sg125
S'B_(B_T)'
p352
sg127
S'21'
p353
sg129
S'12'
p354
sg131
g132
sg133
g134
sg135
S'11.106'
p355
sg137
S'14.9'
p356
sg139
S'27.0504'
p357
sg141
S'130'
p358
sg143
S'Ceph'
p359
sg145
S'1.0'
p360
sg147
F0.002563996006912428
sg148
S'29.62'
p361
sg150
S'29.614'
p362
sg152
S'180.05'
p363
sg154
S'NGC4536'
p364
sg156
S'2.9'
p365
sg158
S'2.18814'
p366
sg160
S'17.304'
p367
sg162
S'15.363'
p368
sg164
S'95'
p369
sg166
S'11'
p370
sg168
S'LC_II-III'
p371
sg170
g181
sg171
S'2.0'
p372
sg173
g174
sg175
g176
sg177
F0.0010738111988060058
sg178
S'0.43'
p373
sg180
g176
sg182
S'13.181'
p374
sg184
g64
sg185
g186
sg187
S'10.6'
p375
sg189
F1495.0
sg190
S'8.67'
p376
sg192
g193
sg194
S'11.0'
p377
sg196
S'0.11'
p378
sg198
S'SAB(rs)bc;HII_Sbrst'
p379
sg200
S'9.89'
p380
sg202
S'B_(B_T^0)'
p381
sg204
S'213.2'
p382
sg206
g207
sg208
S'NGC4536'
p383
sg210
S'28.0'
p384
sg212
g213
sg214
S'11.2'
p385
sg216
g217
sg218
S'K_lga2mass_tot'
p386
sg220
S'K_lga2mass_tot'
p387
sg222
g39
sg223
g224
sg225
g26
sg226
S'2.83'
p388
sg228
S'3.3'
p389
sg230
S'.SXT4..'
p390
sg232
g233
sg234
S"['NGC4536', 'UGC07732', '2MASXJ12342712+0211163', 'SDSSJ123427.04+021117.2']"
p391
sg236
S'188.61271'
p392
sg238
S'1.8'
p393
sg240
S'2103'
p394
sg242
S'0.093'
p395
sg244
S'59'
p396
sg246
S'K_lga2mass_tot'
p397
sg248
S'21.0'
p398
sg250
g332
sg252
S'13.8'
p399
sg254
S'1808'
p400
sg256
S'410.0'
p401
sg258
g259
sg260
g365
sg261
S'0.0157'
p402
sg263
S'3.8'
p403
sg265
S'2.83'
p404
sg267
S'64.730132'
p405
sg269
S'455.15'
p406
sg271
F50.9
sg272
S'1.2'
p407
sg274
S'15.4'
p408
saa(lp409
(dp410
g105
S'13'
p411
sg107
g181
sg109
S'-99.99'
p412
sg111
S'-99'
p413
sg113
F268.145
sg114
F72.70633045340689
sg115
S'52'
p414
sg117
S'0.016011'
p415
sg119
S'x'
p416
sg121
S'5'
p417
sg123
S'171.589161'
p418
sg125
g416
sg127
S'-99.99'
p419
sg129
S'13.476'
p420
sg131
S'f:Lya'
p421
sg133
g176
sg135
S'12.873'
p422
sg137
S'63.82'
p423
sg139
S'15.7968'
p424
sg141
S'-99'
p425
sg143
g416
sg145
S'-99.99'
p426
sg147
F0.009643427719152282
sg148
S'17.42'
p427
sg150
S'63.828'
p428
sg152
S'124.83'
p429
sg154
S'SDSSJ021315.79-073942.7'
p430
sg156
S'1.7'
p431
sg158
S'-7.66188'
p432
sg160
S'42.768'
p433
sg162
S'-99.99'
p434
sg164
S'129'
p435
sg166
S'39'
p436
sg168
g416
sg170
S'7'
p437
sg171
S'-99.99'
p438
sg173
S'98'
p439
sg175
S'17'
p440
sg177
F1.205061197542848e-06
sg178
S'-99.99'
p441
sg180
g181
sg182
S'14.241'
p442
sg184
g64
sg185
S'3.36E+13'
p443
sg187
S'-99.99'
p444
sg189
F4833.0
sg190
S'-99.99'
p445
sg192
S'2.52E+14'
p446
sg194
S'1.7'
p447
sg196
S'0.84'
p448
sg198
S'Sb'
p449
sg200
S'-99.99'
p450
sg202
g416
sg204
S'36.02'
p451
sg206
S'500'
p452
sg208
S'SDSSJ021315.79-073942.7'
p453
sg210
S'-99.99'
p454
sg212
S'-7.622222222222222'
p455
sg214
S'-99.99'
p456
sg216
S'0.17392'
p457
sg218
S'r_sdss_dev'
p458
sg220
S'r_sdss_pet'
p459
sg222
g39
sg223
S'58.8'
p460
sg225
g27
sg226
S'6.38'
p461
sg228
S'-99.99'
p462
sg230
g416
sg232
S'33.07625'
p463
sg234
S"['SDSSJ021315.79-073942.7']"
p464
sg236
S'33.31582'
p465
sg238
S'-99.99'
p466
sg240
S'4532'
p467
sg242
S'0.39'
p468
sg244
S'50'
p469
sg246
S'r_sdss_iso'
p470
sg248
S'0.56'
p471
sg250
S'-99'
p472
sg252
S'14.7'
p473
sg254
S'4800'
p474
sg256
S'56.29'
p475
sg258
S'-'
p476
sg260
g431
sg261
S'0.0224'
p477
sg263
S'-99.99'
p478
sg265
S'-99.99'
p479
sg267
S'-62.525293'
p480
sg269
S'-99.99'
p481
sg271
F29.5
sg272
S'-99.99'
p482
sg274
S'11.15'
p483
saa(lp484
(dp485
g105
S'18'
p486
sg107
S'12'
p487
sg109
S'-99.99'
p488
sg111
S'110580'
p489
sg113
F336.118
sg114
F106.58460016343825
sg115
S'52'
p490
sg117
S'0.012929'
p491
sg119
S'B_(m_B^0)'
p492
sg121
S'3.7'
p493
sg123
S'190.681271'
p494
sg125
g350
sg127
S'42.1'
p495
sg129
S'13.022'
p496
sg131
S'Lya'
p497
sg133
S'2.2'
p498
sg135
S'12.406'
p499
sg137
S'58.63'
p500
sg139
S'26.5104'
p501
sg141
S'-99'
p502
sg143
g416
sg145
S'0.091'
p503
sg147
F0.004870128301349112
sg148
S'22.48'
p504
sg150
S'58.632'
p505
sg152
S'148.85'
p506
sg154
S'NGC4253'
p507
sg156
S'1.4'
p508
sg158
S'29.81287'
p509
sg160
S'46.332'
p510
sg162
S'-99.99'
p511
sg164
S'110'
p512
sg166
S'48'
p513
sg168
S'LC_I'
p514
sg170
S'29'
p515
sg171
S'1.4'
p516
sg173
S'61.6'
p517
sg175
S'6'
p518
sg177
F3.828730449058177e-05
sg178
S'0.87'
p519
sg180
g176
sg182
S'13.622'
p520
sg184
g64
sg185
S'2.74E+12'
p521
sg187
S'13.9'
p522
sg189
F3781.0
sg190
S'-99.99'
p523
sg192
S'8.68E+13'
p524
sg194
S'2.5'
p525
sg196
S'1.3'
p526
sg198
S"(R')SB(s)a:_Sy1.5"
p527
sg200
S'13.7'
p528
sg202
S'B_T(25)_'
p529
sg204
S'50.62'
p530
sg206
S'268'
p531
sg208
S'NGC4253'
p532
sg210
S'-99.99'
p533
sg212
S'30.116944444444446'
p534
sg214
S'16.1'
p535
sg216
S'0.13000'
p536
sg218
S'K_2mass_tot'
p537
sg220
S'K_2mass_tot'
p538
sg222
g39
sg223
S'37'
p539
sg225
g28
sg226
S'5.86'
p540
sg228
S'0.79'
p541
sg230
S'PSBS1*.'
p542
sg232
S'184.46708333333333'
p543
sg234
S"['NGC4253', 'UGC07344', 'MRK0766', '2MASXJ12182648+2948461', 'SDSSJ121826.51+294846.5']"
p544
sg236
S'184.61046'
p545
sg238
S'0.68'
p546
sg240
S'4163'
p547
sg242
S'0.6'
p548
sg244
S'50'
p549
sg246
S'K_2mass_tot'
p550
sg248
S'4.0'
p551
sg250
g64
sg252
S'14'
p552
sg254
S'3876'
p553
sg256
S'79.1'
p554
sg258
g259
sg260
g508
sg261
S'0.017'
p555
sg263
S'1.7'
p556
sg265
S'-99.99'
p557
sg267
S'82.270131'
p558
sg269
S'57.3'
p559
sg271
F47.8
sg272
S'0.2'
p560
sg274
S'14.39'
p561
saa(lp562
(dp563
g105
S'19'
p564
sg107
S'12'
p565
sg109
S'37.7'
p566
sg111
S'120002'
p567
sg113
F413.715
sg114
F200.00421995547995
sg115
S'64'
p568
sg117
S'0.006531'
p569
sg119
S'B_(B_T^0)'
p570
sg121
S'3.5'
p571
sg123
S'281.562899'
p572
sg125
S'B_(B_T)'
p573
sg127
S'25.7'
p574
sg129
S'11.935'
p575
sg131
S'Lya'
p576
sg133
S'2.1'
p577
sg135
S'11.009'
p578
sg137
S'37.7'
p579
sg139
S'22.2408'
p580
sg141
S'58'
p581
sg143
S'TF'
p582
sg145
S'1.2'
p583
sg147
F0.0031967851122073608
sg148
S'34.2'
p584
sg150
S'31.77'
p585
sg152
S'198.83'
p586
sg154
S'NGC4260'
p587
sg156
S'2.3'
p588
sg158
S'6.09868'
p589
sg160
S'55.248'
p590
sg162
S'38.317'
p591
sg164
S'45'
p592
sg166
g417
sg168
S'LC_I'
p593
sg170
g518
sg171
S'2.0'
p594
sg173
S'39.9'
p595
sg175
S'10'
p596
sg177
F0.003362999602782306
sg178
S'0.5'
p597
sg180
g181
sg182
S'12.615'
p598
sg184
g64
sg185
S'2.19E+12'
p599
sg187
S'12.6'
p600
sg189
F1720.0
sg190
S'30.7'
p601
sg192
S'7.29E+12'
p602
sg194
S'4.5'
p603
sg196
S'1.3'
p604
sg198
S'SB(s)a;Sy_LINER'
p605
sg200
S'12.3'
p606
sg202
S'B_(m_B)'
p607
sg204
S'89.81'
p608
sg206
S'36'
p609
sg208
S'NGC4260'
p610
sg210
S'48.4'
p611
sg212
S'6.726388888888889'
p612
sg214
S'12.7'
p613
sg216
S'0.08058'
p614
sg218
S'K_2mass_tot'
p615
sg220
S'K_2mass_tot'
p616
sg222
g39
sg223
S'24'
p617
sg225
g29
sg226
S'5.34'
p618
sg228
S'1.7'
p619
sg230
S'.SBS1..'
p620
sg232
S'184.87875'
p621
sg234
S"['NGC4260', 'UGC07361', '2MASXJ12192224+0605556', 'SDSSJ121922.23+060555.2']"
p622
sg236
S'184.84267'
p623
sg238
S'1.3'
p624
sg240
S'2256'
p625
sg242
S'0.87'
p626
sg244
S'61'
p627
sg246
S'K_2mass_tot'
p628
sg248
S'9.4'
p629
sg250
S'39'
p630
sg252
S'13.1'
p631
sg254
S'1958'
p632
sg256
S'187.1'
p633
sg258
g259
sg260
g588
sg261
S'0.019'
p634
sg263
S'2.7'
p635
sg265
S'5.345'
p636
sg267
S'67.630207'
p637
sg269
S'161.49'
p638
sg271
F41.7
sg272
S'1.9'
p639
sg274
S'16.41'
p640
saa(lp641
(dp642
g105
S'43'
p643
sg107
S'11'
p644
sg109
S'-99.99'
p645
sg111
S'-99'
p646
sg113
F333.68
sg114
F108.2960186156444
sg115
S'47'
p647
sg117
S'0.020634'
p648
sg119
S'B^0^_T(25)_'
p649
sg121
S'4.1'
p650
sg123
S'217.027561'
p651
sg125
S'B_(m_B)'
p652
sg127
S'-99.99'
p653
sg129
S'-99.99'
p654
sg131
S'Lya'
p655
sg133
S'2.5'
p656
sg135
S'-99.99'
p657
sg137
S'91.19'
p658
sg139
S'25.32'
p659
sg141
S'-99'
p660
sg143
g416
sg145
S'0.44'
p661
sg147
F0.006586489545728606
sg148
S'22.72'
p662
sg150
S'91.191'
p663
sg152
S'149.94'
p664
sg154
S'MCG+04-28-037'
p665
sg156
S'1.6'
p666
sg158
S'25.00544'
p667
sg160
S'19.584'
p668
sg162
S'-99.99'
p669
sg164
S'45'
p670
sg166
g39
sg168
g416
sg170
S'25'
p671
sg171
S'1.2'
p672
sg173
S'78.6'
p673
sg175
S'14'
p674
sg177
F7.021685836653538e-05
sg178
S'0.68'
p675
sg180
g332
sg182
S'-99.99'
p676
sg184
g64
sg185
S'4.61E+12'
p677
sg187
S'15.1'
p678
sg189
F6133.0
sg190
S'-99.99'
p679
sg192
S'6.76E+13'
p680
sg194
S'1.8'
p681
sg196
S'-99.99'
p682
sg198
S'Irr'
p683
sg200
S'14.8'
p684
sg202
S'B_(m_B^0)'
p685
sg204
S'35.98'
p686
sg206
S'257'
p687
sg208
S'KUG1140+252'
p688
sg210
S'-99.99'
p689
sg212
S'25.06'
p690
sg214
S'15.4'
p691
sg216
S'0.18417'
p692
sg218
S'K_2mass_tot'
p693
sg220
S'K_2mass_tot'
p694
sg222
g39
sg223
S'47.2'
p695
sg225
g30
sg226
S'9.11'
p696
sg228
S'0.79'
p697
sg230
S'.S?....'
p698
sg232
S'175.63208333333333'
p699
sg234
S"['2MASXJ11432530+2500194', 'SDSSJ114325.32+250019.5']"
p700
sg236
S'175.8555'
p701
sg238
S'0.57'
p702
sg240
S'6475'
p703
sg242
S'-99.99'
p704
sg244
S'46'
p705
sg246
S'K_2mass_tot'
p706
sg248
S'2.6'
p707
sg250
S'-99'
p708
sg252
S'-99.99'
p709
sg254
S'6186'
p710
sg256
S'51.4'
p711
sg258
g259
sg260
g666
sg261
S'0.0217'
p712
sg263
S'1.6'
p713
sg265
S'-99.99'
p714
sg267
S'74.59113'
p715
sg269
S'39.64'
p716
sg271
F60.1
sg272
S'0.9'
p717
sg274
S'15.91'
p718
saas.