(dp0
S'Vhels'
p1
(lp2
F1128.0
aF7312.0
aF4955.0
aF3838.0
aF1999.0
aF6300.0
asS'impacts'
p3
(lp4
F209.758
aF366.79
aF214.386
aF277.326
aF180.324
aF388.331
asS'group_dists'
p5
(lp6
F8.6
aF76.7
aF-99.99
aF-99.99
aF-99.99
aF67.2
asS'MTypes'
p7
(lp8
S'SA(s)cd:_sp_HII'
p9
aS'SA(s)0^0^:'
p10
aS'Sc(f)'
p11
aS'Im:'
p12
aS'Sc_(on_edge)'
p13
aS'Scd:'
p14
asS'e_Lya_Ws'
p15
(lp16
F3.0
aF13.0
aF17.0
aF6.0
aF10.0
aF14.0
asS'Nas'
p17
(lp18
F39900000000000.0
aF138000000000000.0
aF252000000000000.0
aF86800000000000.0
aF7290000000000.0
aF67600000000000.0
asS'Lya_Ws'
p19
(lp20
F160.0
aF429.0
aF500.0
aF268.0
aF36.0
aF257.0
asS'bestDists'
p21
(lp22
F9.7
aF110.0
aF66.0
aF58.08
aF47.6
aF92.79
asS'adjustedIncs'
p23
(lp24
F90.0
aF17.0
aF80.0
aF0.0
aF75.0
aF55.0
asS'targets'
p25
(lp26
S'HE1228+0131'
p27
aS'RX_J1236.0+2641'
p28
aS'SDSSJ021218.32-073719.8'
p29
aS'TON605'
p30
aS'MS1217.0+0700'
p31
aS'RX_J1142.5+2503'
p32
asS'e_bs'
p33
(lp34
F2.4
aF2.1
aF3.0
aF2.2
aF2.1
aF2.5
asS'incs'
p35
(lp36
F81.0
aF16.0
aF75.0
aF0.0
aF71.0
aF53.0
asS'azimuths'
p37
(lp38
F74.1
aF45.6
aF16.4
aF24.0
aF74.8
aF28.1
asS'group_nums'
p39
(lp40
S'0'
p41
aS'100082'
p42
aS'-99'
p43
aS'-99'
p44
aS'-99'
p45
aS'110775'
p46
asS'Ws'
p47
(lp48
F55.9
aF96.5
aF98.0
aF61.6
aF39.9
aF78.6
asS'ls'
p49
(lp50
F0.012395907429292505
aF0.026244115723386953
aF0.018545498217265474
aF0.014066292800413004
aF0.013780555128751287
aF0.023935280432997304
asS'Lya_vs'
p51
(lp52
F1495.0
aF7111.0
aF4833.0
aF3781.0
aF1720.0
aF6133.0
asS'R_virs'
p53
(lp54
F207.37
aF226.16
aF112.75
aF135.6
aF117.92
aF222.9
asS'Bmags'
p55
(lp56
F11.1
aF14.3
aF17.3
aF-99.99
aF15.4
aF14.4
asS'cuss'
p57
(lp58
F219.1576438890508
aF264.6439567569983
aF58.26912155679026
aF87.03866579859782
aF64.24014993755851
aF256.4051455333921
asS'vcorrs'
p59
(lp60
F1420.0
aF7603.0
aF4686.0
aF4124.0
aF2297.0
aF6589.0
asS'e_Nas'
p61
(lp62
F860000000000.0
aF6530000000000.0
aF33600000000000.0
aF2740000000000.0
aF2190000000000.0
aF4610000000000.0
asS'e_bestDists'
p63
(lp64
F2.78
aF7.34
aF6.6
aF5.8
aF7.92
aF9.27
asS'group_mems'
p65
(lp66
S'1'
p67
aS'12'
p68
aS'-99'
p69
aS'-99'
p70
aS'-99'
p71
ag67
asS'e_Lstar_meds'
p72
(lp73
F0.72
aF1.2
aF0.039
aF-99.99
aF0.19
aF1.1
asS'Dec_targets'
p74
(lp75
F1.256388889
aF26.69333333
aF-7.622222222
aF30.11694444
aF6.726388889
aF25.06055556
asS'PAs'
p76
(lp77
F83.0
aF90.0
aF4.0
aF148.0
aF160.0
aF145.0
asS'Lstar_meds'
p78
(lp79
F0.54
aF3.8
aF0.082
aF-99.99
aF0.25
aF2.4
asS'RA_galaxies'
p80
(lp81
F188.18996
aF189.16625
aF33.0107
aF184.2047
aF184.66095
aF175.66438
asS'bs'
p82
(lp83
F33.6
aF57.9
aF58.8
aF37.0
aF24.0
aF47.2
asS'e_Ws'
p84
(lp85
F4.1
aF3.5
aF5.0
aF3.7
aF3.5
aF4.1
asS'Dec_galaxies'
p86
(lp87
F0.11503
aF26.82994
aF-7.79663
aF30.26996
aF6.70838
aF24.82252
asS'MajDiams'
p88
(lp89
F36.35
aF41.22
aF15.03
aF19.64
aF16.04
aF40.36
asS'RA_targets'
p90
(lp91
F187.7083333
aF189.0166667
aF33.07625
aF184.4670833
aF184.87875
aF175.6325
asS'e_Lya_vs'
p92
(lp93
F1.0
aF1.0
aF1.0
aF1.0
aF1.0
aF1.0
asS'z_targets'
p94
(lp95
F0.117
aF0.20915
aF0.17392
aF0.13
aF0.08058
aF0.185
asS'Names'
p96
(lp97
S'NGC4517'
p98
aS'IC3585'
p99
aS'SDSSJ021202.56-074747.8'
p100
aS'UGC07302'
p101
aS'PGC039556'
p102
aS'UGC06674'
p103
asS'l_cuss'
p104
(lp105
F0.013797266420318222
aF0.053346192899736515
aF9.108418805240421e-07
aF3.5951326024299546e-05
aF5.405870528438405e-05
aF0.05023721831901873
asS'others'
p106
(lp107
(lp108
(dp109
S'RAm'
p110
S'32'
p111
sS'RAh'
p112
S'12'
p113
sS'RID_median'
p114
S'24.1'
p115
sS'group_num'
p116
S'-99'
p117
sS'impact'
p118
F403.143
sS'cus'
p119
F170.0181681732867
sS'adjustedInc'
p120
S'58'
p121
sS'z'
p122
S'0.005087'
p123
sS'Bmag_max_key'
p124
S'B_(m_B)'
p125
sS'e_W'
p126
S'4.1'
p127
sS'GLON'
p128
S'292.484881'
p129
sS'Bmag_min_key'
p130
S'B_(Johnson)'
p131
sS'group_dist'
p132
S'-99.99'
p133
sS'rmag_sdss'
p134
S'13.865'
p135
sS'identified'
p136
S'Lya'
p137
sS'e_b'
p138
S'2.4'
p139
sS'zmag_sdss'
p140
S'14.01'
p141
sS'bestDist'
p142
S'24.1'
p143
sS'RAs'
p144
S'28.1568'
p145
sS'RC3_pa'
p146
S'30'
p147
sS'distIndicator'
p148
S'TF'
p149
sS'e_Lstar_min'
p150
S'0.051'
p151
sS'l'
p152
F0.008258963476947786
sS'MajDiam'
p153
S'30.69'
p154
sS'distvcorr'
p155
S'25.602'
p156
sS'R_vir'
p157
S'184.51'
p158
sS'Name'
p159
S'NGC4517A'
p160
sS'e_MajDiam'
p161
S'4.2'
p162
sS'DEdeg'
p163
S'0.38967'
p164
sS'DEs'
p165
S'22.812'
p166
sS'RID_mean'
p167
S'22.68'
p168
sS'PA'
p169
S'30'
p170
sS'DEm'
p171
S'23'
p172
sS'lumClass'
p173
S'LC_IV-V'
p174
sS'DEd'
p175
g41
sS'Lstar_med'
p176
S'0.77'
p177
sS'W'
p178
S'55.9'
p179
sS'e_Lya_W'
p180
S'3'
p181
sS'l_cus'
p182
F0.0035352345723019653
sS'RC3_r25'
p183
S'0.66'
p184
sS'e_inc'
p185
S'2'
p186
sS'gmag_sdss'
p187
S'14.289'
p188
sS'e_Lya_v'
p189
g67
sS'e_Na'
p190
S'8.60E+11'
p191
sS'Bmag'
p192
S'12.7'
p193
sS'Lya_v'
p194
F1495.0
sS'RID_min'
p195
S'14.5'
p196
sS'Na'
p197
S'3.99E+13'
p198
sS'e_MinDiam_ang'
p199
S'9.4'
p200
sS'Lstar_sdss'
p201
S'0.13'
p202
sS'MType'
p203
S'SB(rs)dm:_HII'
p204
sS'Bmag_max'
p205
S'12.5'
p206
sS'Bmag_key'
p207
S'B_J'
p208
sS'MinDiam_ang'
p209
S'144.5'
p210
sS'Lya_W'
p211
S'160'
p212
sS'NEDname'
p213
S'NGC4517A'
p214
sS'RID_max'
p215
S'26.7'
p216
sS'Dec_target'
p217
S'1.256388889'
p218
sS'Bmag_min'
p219
S'15.4'
p220
sS'z_target'
p221
S'0.117'
p222
sS'paKey'
p223
S'poss_103a-O'
p224
sS'diameterKey'
p225
S'poss_103a-O'
p226
sS'flag'
p227
g41
sS'b'
p228
S'33.6'
p229
sS'target'
p230
g27
sS'e_bestDist'
p231
S'4.22'
p232
sS'e_Lstar_max'
p233
S'0.78'
p234
sS'RC3_type'
p235
S'.SBT8*.'
p236
sS'RA_target'
p237
S'187.7083333'
p238
sS'altNames'
p239
S"['NGC4517A', 'UGC07685', 'SDSSJ123227.94+002326.2']"
p240
sS'RAdeg'
p241
S'188.11732'
p242
sS'e_Lstar_med'
p243
S'0.62'
p244
sS'vcorr'
p245
S'1818'
p246
sS'e_Lstar_sdss'
p247
S'0.1'
p248
sS'inc'
p249
S'57'
p250
sS'ratioKey'
p251
S'poss_103a-O'
p252
sS'e_MajDiam_ang'
p253
S'2.4'
p254
sS'group_mem'
p255
S'-99'
p256
sS'Bmag_sdss'
p257
S'14.6'
p258
sS'Vhel'
p259
S'1525'
p260
sS'MajDiam_ang'
p261
S'262.6'
p262
sS'DE-'
p263
S'+'
p264
sS'e_MinDiam'
p265
g162
sS'E(B-V)'
p266
S'0.0193'
p267
sS'Lstar_max'
p268
S'0.93'
p269
sS'RID_std'
p270
S'4.225'
p271
sS'GLAT'
p272
S'62.876024'
p273
sS'RC3_d25'
p274
S'238.86'
p275
sS'azimuth'
p276
F55.3
sS'Lstar_min'
p277
S'0.063'
p278
sS'MinDiam'
p279
S'16.88'
p280
sa(dp281
g110
S'34'
p282
sg112
S'12'
p283
sg114
S'13.6'
p284
sg116
S'170002'
p285
sg118
F385.415
sg119
F175.280107165645
sg120
S'74'
p286
sg122
S'0.005791'
p287
sg124
S'B_(B_T^0)'
p288
sg126
g127
sg128
S'292.59582'
p289
sg130
S'B_(m_B)'
p290
sg132
S'21'
p291
sg134
S'-99.99'
p292
sg136
g137
sg138
g139
sg140
S'-99.99'
p293
sg142
S'13.6'
p294
sg144
S'8.4216'
p295
sg146
S'67'
p296
sg148
S'SBF'
p297
sg150
S'0.9'
p298
sg152
F0.0033645005882420548
sg153
S'31.32'
p299
sg155
S'28.606'
p300
sg157
S'187.12'
p301
sg159
S'NGC4527'
p302
sg161
S'2.6'
p303
sg163
S'2.65366'
p304
sg165
S'13.176'
p305
sg167
S'14.243'
p306
sg169
S'70'
p307
sg171
S'39'
p308
sg173
S'LC_II-III'
p309
sg175
g186
sg176
S'0.81'
p310
sg178
g179
sg180
g181
sg182
F0.0018603795338843314
sg183
S'0.34'
p311
sg185
g67
sg187
S'-99.99'
p312
sg189
g67
sg190
g191
sg192
S'11.4'
p313
sg194
F1495.0
sg195
S'10.1'
p314
sg197
g198
sg199
S'8.1'
p315
sg201
S'-99.99'
p316
sg203
S'SAB(s)bc;HII_LINER'
p317
sg205
S'10.7'
p318
sg207
S'B_(B_T)'
p319
sg209
S'161.5'
p320
sg211
g212
sg213
S'NGC4527'
p321
sg215
S'29.4'
p322
sg217
g218
sg219
S'11.4'
p323
sg221
g222
sg223
S'K_lga2mass_tot'
p324
sg225
S'K_lga2mass_tot'
p325
sg227
g41
sg228
g229
sg230
g27
sg231
S'3.3'
p326
sg233
S'1.8'
p327
sg235
S'.SXS4..'
p328
sg237
g238
sg239
S"['NGC4527', 'UGC07721', '2MASXJ12340849+0239137', 'SDSSJ123408.44+023913.7']"
p329
sg241
S'188.53509'
p330
sg243
S'0.91'
p331
sg245
S'2031'
p332
sg247
S'-99.99'
p333
sg249
S'70'
p334
sg251
S'K_lga2mass_tot'
p335
sg253
S'24.0'
p336
sg255
S'4'
p337
sg257
S'-99.99'
p338
sg259
S'1736'
p339
sg261
S'475.0'
p340
sg263
g264
sg265
g303
sg266
S'0.0189'
p341
sg268
S'1.6'
p342
sg270
S'3.307'
p343
sg272
S'65.177691'
p344
sg274
S'369.96'
p345
sg276
F39.4
sg277
S'0.8'
p346
sg279
S'10.65'
p347
sa(dp348
g110
S'34'
p349
sg112
S'12'
p350
sg114
S'14.9'
p351
sg116
S'170002'
p352
sg118
F337.658
sg119
F161.20465603697681
sg120
S'61'
p353
sg122
S'0.006031'
p354
sg124
S'B'
p355
sg126
g127
sg128
S'292.949501'
p356
sg130
S'B_(B_T)'
p357
sg132
S'21'
p358
sg134
S'12'
p359
sg136
g137
sg138
g139
sg140
S'11.106'
p360
sg142
S'14.9'
p361
sg144
S'27.0504'
p362
sg146
S'130'
p363
sg148
S'Ceph'
p364
sg150
S'1.0'
p365
sg152
F0.002563996006912428
sg153
S'29.62'
p366
sg155
S'29.614'
p367
sg157
S'180.05'
p368
sg159
S'NGC4536'
p369
sg161
S'2.9'
p370
sg163
S'2.18814'
p371
sg165
S'17.304'
p372
sg167
S'15.363'
p373
sg169
S'95'
p374
sg171
S'11'
p375
sg173
S'LC_II-III'
p376
sg175
g186
sg176
S'2.0'
p377
sg178
g179
sg180
g181
sg182
F0.0010738111988060058
sg183
S'0.43'
p378
sg185
g181
sg187
S'13.181'
p379
sg189
g67
sg190
g191
sg192
S'10.6'
p380
sg194
F1495.0
sg195
S'8.67'
p381
sg197
g198
sg199
S'11.0'
p382
sg201
S'0.11'
p383
sg203
S'SAB(rs)bc;HII_Sbrst'
p384
sg205
S'9.89'
p385
sg207
S'B_(B_T^0)'
p386
sg209
S'213.2'
p387
sg211
g212
sg213
S'NGC4536'
p388
sg215
S'28.0'
p389
sg217
g218
sg219
S'11.2'
p390
sg221
g222
sg223
S'K_lga2mass_tot'
p391
sg225
S'K_lga2mass_tot'
p392
sg227
g41
sg228
g229
sg230
g27
sg231
S'2.83'
p393
sg233
S'3.3'
p394
sg235
S'.SXT4..'
p395
sg237
g238
sg239
S"['NGC4536', 'UGC07732', '2MASXJ12342712+0211163', 'SDSSJ123427.04+021117.2']"
p396
sg241
S'188.61271'
p397
sg243
S'1.8'
p398
sg245
S'2103'
p399
sg247
S'0.093'
p400
sg249
S'59'
p401
sg251
S'K_lga2mass_tot'
p402
sg253
S'21.0'
p403
sg255
g337
sg257
S'13.8'
p404
sg259
S'1808'
p405
sg261
S'410.0'
p406
sg263
g264
sg265
g370
sg266
S'0.0157'
p407
sg268
S'3.8'
p408
sg270
S'2.83'
p409
sg272
S'64.730132'
p410
sg274
S'455.15'
p411
sg276
F50.9
sg277
S'1.2'
p412
sg279
S'15.4'
p413
saa(lp414
(dp415
g110
S'36'
p416
sg112
S'12'
p417
sg114
S'-99.99'
p418
sg116
S'-99'
p419
sg118
F131.693
sg119
F25.599397118994816
sg120
S'45'
p420
sg122
S'0.024591'
p421
sg124
S'x'
p422
sg126
S'3.5'
p423
sg128
S'218.322536'
p424
sg130
g422
sg132
S'-99.99'
p425
sg134
S'16.007'
p426
sg136
S'Lya'
p427
sg138
S'2.1'
p428
sg140
S'15.395'
p429
sg142
S'107.93'
p430
sg144
S'12.2616'
p431
sg146
S'-99'
p432
sg148
g422
sg150
S'-99.99'
p433
sg152
F0.00994435843304841
sg153
S'8.686'
p434
sg155
S'107.931'
p435
sg157
S'77.23'
p436
sg159
S'IC3565'
p437
sg161
S'0.63'
p438
sg163
S'26.75612'
p439
sg165
S'22.032'
p440
sg167
S'-99.99'
p441
sg169
S'25'
p442
sg171
S'45'
p443
sg173
g422
sg175
S'26'
p444
sg176
S'-99.99'
p445
sg178
S'96.5'
p446
sg180
S'13'
p447
sg182
F5.847102829500024e-13
sg183
S'-99.99'
p448
sg185
g337
sg187
S'16.711'
p449
sg189
g67
sg190
S'6.53E+12'
p450
sg192
S'-99.99'
p451
sg194
F7111.0
sg195
S'-99.99'
p452
sg197
S'1.38E+14'
p453
sg199
S'0.6'
p454
sg201
S'0.25'
p455
sg203
g422
sg205
S'-99.99'
p456
sg207
g422
sg209
S'11.95'
p457
sg211
S'429'
p458
sg213
S'IC3565'
p459
sg215
S'-99.99'
p460
sg217
S'26.69333333'
p461
sg219
S'-99.99'
p462
sg221
S'0.20915'
p463
sg223
S'K_2mass_tot'
p464
sg225
S'K_2mass_tot'
p465
sg227
g41
sg228
S'57.9'
p466
sg230
g28
sg231
S'10.79'
p467
sg233
S'-99.99'
p468
sg235
g422
sg237
S'189.0166667'
p469
sg239
S"['IC3565', '2MASXJ12361227+2645221', 'SDSSJ123612.26+264521.9']"
p470
sg241
S'189.05109'
p471
sg243
S'-99.99'
p472
sg245
S'7663'
p473
sg247
S'0.12'
p474
sg249
S'44'
p475
sg251
S'r_sdss_iso'
p476
sg253
S'0.83'
p477
sg255
S'-99'
p478
sg257
S'17.2'
p479
sg259
S'7372'
p480
sg261
S'16.6'
p481
sg263
g264
sg265
g438
sg266
S'0.0172'
p482
sg268
S'-99.99'
p483
sg270
S'-99.99'
p484
sg272
S'86.58476'
p485
sg274
S'-99.99'
p486
sg276
F1.1
sg277
S'-99.99'
p487
sg279
S'6.254'
p488
saa(lp489
(dp490
g110
S'13'
p491
sg112
g186
sg114
S'-99.99'
p492
sg116
S'-99'
p493
sg118
F268.145
sg119
F72.70633045340689
sg120
S'52'
p494
sg122
S'0.016011'
p495
sg124
g422
sg126
S'5'
p496
sg128
S'171.589161'
p497
sg130
g422
sg132
S'-99.99'
p498
sg134
S'13.476'
p499
sg136
S'f:Lya'
p500
sg138
g181
sg140
S'12.873'
p501
sg142
S'63.82'
p502
sg144
S'15.7968'
p503
sg146
S'-99'
p504
sg148
g422
sg150
S'-99.99'
p505
sg152
F0.009643427719152282
sg153
S'17.42'
p506
sg155
S'63.828'
p507
sg157
S'124.83'
p508
sg159
S'SDSSJ021315.79-073942.7'
p509
sg161
S'1.7'
p510
sg163
S'-7.66188'
p511
sg165
S'42.768'
p512
sg167
S'-99.99'
p513
sg169
S'129'
p514
sg171
S'39'
p515
sg173
g422
sg175
S'7'
p516
sg176
S'-99.99'
p517
sg178
S'98'
p518
sg180
S'17'
p519
sg182
F1.205061197542848e-06
sg183
S'-99.99'
p520
sg185
g186
sg187
S'14.241'
p521
sg189
g67
sg190
S'3.36E+13'
p522
sg192
S'-99.99'
p523
sg194
F4833.0
sg195
S'-99.99'
p524
sg197
S'2.52E+14'
p525
sg199
S'1.7'
p526
sg201
S'0.84'
p527
sg203
S'Sb'
p528
sg205
S'-99.99'
p529
sg207
g422
sg209
S'36.02'
p530
sg211
S'500'
p531
sg213
S'SDSSJ021315.79-073942.7'
p532
sg215
S'-99.99'
p533
sg217
S'-7.622222222'
p534
sg219
S'-99.99'
p535
sg221
S'0.17392'
p536
sg223
S'r_sdss_dev'
p537
sg225
S'r_sdss_pet'
p538
sg227
g41
sg228
S'58.8'
p539
sg230
g29
sg231
S'6.38'
p540
sg233
S'-99.99'
p541
sg235
g422
sg237
S'33.07625'
p542
sg239
S"['SDSSJ021315.79-073942.7']"
p543
sg241
S'33.31582'
p544
sg243
S'-99.99'
p545
sg245
S'4532'
p546
sg247
S'0.39'
p547
sg249
S'50'
p548
sg251
S'r_sdss_iso'
p549
sg253
S'0.56'
p550
sg255
S'-99'
p551
sg257
S'14.7'
p552
sg259
S'4800'
p553
sg261
S'56.29'
p554
sg263
S'-'
p555
sg265
g510
sg266
S'0.0224'
p556
sg268
S'-99.99'
p557
sg270
S'-99.99'
p558
sg272
S'-62.525293'
p559
sg274
S'-99.99'
p560
sg276
F29.5
sg277
S'-99.99'
p561
sg279
S'11.15'
p562
saa(lp563
(dp564
g110
S'18'
p565
sg112
S'12'
p566
sg114
S'-99.99'
p567
sg116
S'110580'
p568
sg118
F336.118
sg119
F106.58460016343825
sg120
S'52'
p569
sg122
S'0.012929'
p570
sg124
S'B_(m_B^0)'
p571
sg126
S'3.7'
p572
sg128
S'190.681271'
p573
sg130
g355
sg132
S'42.1'
p574
sg134
S'13.022'
p575
sg136
S'Lya'
p576
sg138
S'2.2'
p577
sg140
S'12.406'
p578
sg142
S'58.63'
p579
sg144
S'26.5104'
p580
sg146
S'-99'
p581
sg148
g422
sg150
S'0.091'
p582
sg152
F0.004870128301349112
sg153
S'22.48'
p583
sg155
S'58.632'
p584
sg157
S'148.85'
p585
sg159
S'NGC4253'
p586
sg161
S'1.4'
p587
sg163
S'29.81287'
p588
sg165
S'46.332'
p589
sg167
S'-99.99'
p590
sg169
S'110'
p591
sg171
S'48'
p592
sg173
S'LC_I'
p593
sg175
S'29'
p594
sg176
S'1.4'
p595
sg178
S'61.6'
p596
sg180
S'6'
p597
sg182
F3.828730449058177e-05
sg183
S'0.87'
p598
sg185
g181
sg187
S'13.622'
p599
sg189
g67
sg190
S'2.74E+12'
p600
sg192
S'13.9'
p601
sg194
F3781.0
sg195
S'-99.99'
p602
sg197
S'8.68E+13'
p603
sg199
S'2.5'
p604
sg201
S'1.3'
p605
sg203
S"(R')SB(s)a:_Sy1.5"
p606
sg205
S'13.7'
p607
sg207
S'B_T(25)_'
p608
sg209
S'50.62'
p609
sg211
S'268'
p610
sg213
S'NGC4253'
p611
sg215
S'-99.99'
p612
sg217
S'30.11694444'
p613
sg219
S'16.1'
p614
sg221
S'0.13'
p615
sg223
S'K_2mass_tot'
p616
sg225
S'K_2mass_tot'
p617
sg227
g41
sg228
S'37'
p618
sg230
g30
sg231
S'5.86'
p619
sg233
S'0.79'
p620
sg235
S'PSBS1*.'
p621
sg237
S'184.4670833'
p622
sg239
S"['NGC4253', 'UGC07344', 'MRK0766', '2MASXJ12182648+2948461', 'SDSSJ121826.51+294846.5']"
p623
sg241
S'184.61046'
p624
sg243
S'0.68'
p625
sg245
S'4163'
p626
sg247
S'0.6'
p627
sg249
S'50'
p628
sg251
S'K_2mass_tot'
p629
sg253
S'4.0'
p630
sg255
g67
sg257
S'14'
p631
sg259
S'3876'
p632
sg261
S'79.1'
p633
sg263
g264
sg265
g587
sg266
S'0.017'
p634
sg268
S'1.7'
p635
sg270
S'-99.99'
p636
sg272
S'82.270131'
p637
sg274
S'57.3'
p638
sg276
F47.8
sg277
S'0.2'
p639
sg279
S'14.39'
p640
saa(lp641
(dp642
g110
S'19'
p643
sg112
S'12'
p644
sg114
S'37.7'
p645
sg116
S'120002'
p646
sg118
F413.715
sg119
F200.00421995547995
sg120
S'64'
p647
sg122
S'0.006531'
p648
sg124
S'B_(B_T^0)'
p649
sg126
S'3.5'
p650
sg128
S'281.562899'
p651
sg130
S'B_(B_T)'
p652
sg132
S'25.7'
p653
sg134
S'11.935'
p654
sg136
S'Lya'
p655
sg138
S'2.1'
p656
sg140
S'11.009'
p657
sg142
S'37.7'
p658
sg144
S'22.2408'
p659
sg146
S'58'
p660
sg148
S'TF'
p661
sg150
S'1.2'
p662
sg152
F0.0031967851122073608
sg153
S'34.2'
p663
sg155
S'31.77'
p664
sg157
S'198.83'
p665
sg159
S'NGC4260'
p666
sg161
S'2.3'
p667
sg163
S'6.09868'
p668
sg165
S'55.248'
p669
sg167
S'38.317'
p670
sg169
S'45'
p671
sg171
g496
sg173
S'LC_I'
p672
sg175
g597
sg176
S'2.0'
p673
sg178
S'39.9'
p674
sg180
S'10'
p675
sg182
F0.003362999602782306
sg183
S'0.5'
p676
sg185
g186
sg187
S'12.615'
p677
sg189
g67
sg190
S'2.19E+12'
p678
sg192
S'12.6'
p679
sg194
F1720.0
sg195
S'30.7'
p680
sg197
S'7.29E+12'
p681
sg199
S'4.5'
p682
sg201
S'1.3'
p683
sg203
S'SB(s)a;Sy_LINER'
p684
sg205
S'12.3'
p685
sg207
S'B_(m_B)'
p686
sg209
S'89.81'
p687
sg211
S'36'
p688
sg213
S'NGC4260'
p689
sg215
S'48.4'
p690
sg217
S'6.726388889'
p691
sg219
S'12.7'
p692
sg221
S'0.08058'
p693
sg223
S'K_2mass_tot'
p694
sg225
S'K_2mass_tot'
p695
sg227
g41
sg228
S'24'
p696
sg230
g31
sg231
S'5.34'
p697
sg233
S'1.7'
p698
sg235
S'.SBS1..'
p699
sg237
S'184.87875'
p700
sg239
S"['NGC4260', 'UGC07361', '2MASXJ12192224+0605556', 'SDSSJ121922.23+060555.2']"
p701
sg241
S'184.84267'
p702
sg243
S'1.3'
p703
sg245
S'2256'
p704
sg247
S'0.87'
p705
sg249
S'61'
p706
sg251
S'K_2mass_tot'
p707
sg253
S'9.4'
p708
sg255
S'39'
p709
sg257
S'13.1'
p710
sg259
S'1958'
p711
sg261
S'187.1'
p712
sg263
g264
sg265
g667
sg266
S'0.019'
p713
sg268
S'2.7'
p714
sg270
S'5.345'
p715
sg272
S'67.630207'
p716
sg274
S'161.49'
p717
sg276
F41.7
sg277
S'1.9'
p718
sg279
S'16.41'
p719
saa(lp720
(dp721
g110
S'43'
p722
sg112
S'11'
p723
sg114
S'-99.99'
p724
sg116
S'-99'
p725
sg118
F333.33
sg119
F108.2960186156444
sg120
S'47'
p726
sg122
S'0.020634'
p727
sg124
S'B^0^_T(25)_'
p728
sg126
S'4.1'
p729
sg128
S'217.027561'
p730
sg130
S'B_(m_B)'
p731
sg132
S'-99.99'
p732
sg134
S'-99.99'
p733
sg136
S'Lya'
p734
sg138
S'2.5'
p735
sg140
S'-99.99'
p736
sg142
S'91.19'
p737
sg144
S'25.32'
p738
sg146
S'-99'
p739
sg148
g422
sg150
S'0.44'
p740
sg152
F0.006655240098598109
sg153
S'22.72'
p741
sg155
S'91.191'
p742
sg157
S'149.94'
p743
sg159
S'MCG+04-28-037'
p744
sg161
S'1.6'
p745
sg163
S'25.00544'
p746
sg165
S'19.584'
p747
sg167
S'-99.99'
p748
sg169
S'45'
p749
sg171
g41
sg173
g422
sg175
S'25'
p750
sg176
S'1.2'
p751
sg178
S'78.6'
p752
sg180
S'14'
p753
sg182
F7.16285713866763e-05
sg183
S'0.68'
p754
sg185
g337
sg187
S'-99.99'
p755
sg189
g67
sg190
S'4.61E+12'
p756
sg192
S'15.1'
p757
sg194
F6133.0
sg195
S'-99.99'
p758
sg197
S'6.76E+13'
p759
sg199
S'1.8'
p760
sg201
S'-99.99'
p761
sg203
S'Irr'
p762
sg205
S'14.8'
p763
sg207
S'B_(m_B^0)'
p764
sg209
S'35.98'
p765
sg211
S'257'
p766
sg213
S'KUG1140+252'
p767
sg215
S'-99.99'
p768
sg217
S'25.06055556'
p769
sg219
S'15.4'
p770
sg221
S'0.185'
p771
sg223
S'K_2mass_tot'
p772
sg225
S'K_2mass_tot'
p773
sg227
g41
sg228
S'47.2'
p774
sg230
g32
sg231
S'9.11'
p775
sg233
S'0.79'
p776
sg235
S'.S?....'
p777
sg237
S'175.6325'
p778
sg239
S"['2MASXJ11432530+2500194', 'SDSSJ114325.32+250019.5']"
p779
sg241
S'175.8555'
p780
sg243
S'0.57'
p781
sg245
S'6475'
p782
sg247
S'-99.99'
p783
sg249
S'46'
p784
sg251
S'K_2mass_tot'
p785
sg253
S'2.6'
p786
sg255
S'-99'
p787
sg257
S'-99.99'
p788
sg259
S'6186'
p789
sg261
S'51.4'
p790
sg263
g264
sg265
g745
sg266
S'0.0217'
p791
sg268
S'1.6'
p792
sg270
S'-99.99'
p793
sg272
S'74.59113'
p794
sg274
S'39.64'
p795
sg276
F60.3
sg277
S'0.9'
p796
sg279
S'15.91'
p797
saas.