(dp0
S'Vhels'
p1
(lp2
F3838.0
aF1999.0
aF1063.0
asS'impacts'
p3
(lp4
F277.326
aF180.324
aF233.285
asS'group_dists'
p5
(lp6
F-99.99
aF-99.99
aF12.3
asS'MTypes'
p7
(lp8
S'Im:'
p9
aS'Sc_(on_edge)'
p10
aS"(R')SAB(rs)a"
p11
asS'e_Lya_Ws'
p12
(lp13
F6.0
aF10.0
aF21.0
asS'e_Lstar_sdsss'
p14
(lp15
F0.025
aF0.12
aF-99.99
asS'Bmag_sdsss'
p16
(lp17
F17.5
aF15.9
aF-99.99
asS'Nas'
p18
(lp19
F86800000000000.0
aF7290000000000.0
aF28800000000000.0
asS'Lya_Ws'
p20
(lp21
F268.0
aF36.0
aF136.0
asS'bestDists'
p22
(lp23
F58.08
aF47.6
aF13.4
asS'adjustedIncs'
p24
(lp25
F0.0
aF75.0
aF64.0
asS'targets'
p26
(lp27
S'TON605'
p28
aS'MS1217.0+0700'
p29
aS'HE0429-5343'
p30
asS'e_bs'
p31
(lp32
F2.2
aF2.1
aF3.7
asS'incs'
p33
(lp34
F0.0
aF71.0
aF62.0
asS'azimuths'
p35
(lp36
F24.0
aF74.8
aF64.5
asS'group_nums'
p37
(lp38
S'-99'
p39
aS'-99'
p40
aS'200054'
p41
asS'Ws'
p42
(lp43
F61.6
aF39.9
aF96.2
asS'ls'
p44
(lp45
F0.014066292800413004
aF0.013780555128751287
aF0.008881043462291308
asS'Lya_vs'
p46
(lp47
F3781.0
aF1720.0
aF1358.0
asS'R_virs'
p48
(lp49
F135.6
aF117.92
aF146.14
asS'Bmags'
p50
(lp51
F-99.99
aF15.4
aF11.4
asS'cuss'
p52
(lp53
F87.03866579859782
aF64.24014993755851
aF102.41619632167561
asS'vcorrs'
p54
(lp55
F4124.0
aF2297.0
aF926.0
asS'e_Nas'
p56
(lp57
F2740000000000.0
aF2190000000000.0
aF4840000000000.0
asS'e_bestDists'
p58
(lp59
F5.8
aF7.92
aF4.12
asS'group_mems'
p60
(lp61
S'-99'
p62
aS'-99'
p63
aS'16'
p64
asS'e_Lstar_meds'
p65
(lp66
F-99.99
aF0.19
aF1.1
asS'Dec_targets'
p67
(lp68
F30.116944444444446
aF6.726388888888889
aF-53.61555555555555
asS'PAs'
p69
(lp70
F148.0
aF160.0
aF107.0
asS'Lstar_meds'
p71
(lp72
F-99.99
aF0.25
aF0.77
asS'RA_galaxies'
p73
(lp74
F184.2047
aF184.66095
aF67.91471
asS'bs'
p75
(lp76
F37.0
aF24.0
aF57.8
asS'e_Ws'
p77
(lp78
F3.7
aF3.5
aF6.2
asS'Dec_galaxies'
p79
(lp80
F30.26996
aF6.70838
aF-54.60228
asS'MajDiams'
p81
(lp82
F19.64
aF16.04
aF21.89
asS'RA_targets'
p83
(lp84
F184.46708333333333
aF184.87875
aF67.66666666666667
asS'e_Lya_vs'
p85
(lp86
F1.0
aF1.0
aF1.0
asS'z_targets'
p87
(lp88
F0.13
aF0.08058
aF0.04001
asS'Lstar_sdsss'
p89
(lp90
F0.055
aF0.15
aF-99.99
asS'Names'
p91
(lp92
S'UGC07302'
p93
aS'PGC039556'
p94
aS'NGC1617'
p95
asS'l_cuss'
p96
(lp97
F3.5951326024299546e-05
aF5.405870528438405e-05
aF0.0006336209956272309
asS'others'
p98
(lp99
(lp100
(dp101
S'RAm'
p102
S'18'
p103
sS'RAh'
p104
S'12'
p105
sS'RID_median'
p106
S'-99.99'
p107
sS'group_num'
p108
S'110580'
p109
sS'impact'
p110
F336.118
sS'cus'
p111
F106.58460016343825
sS'adjustedInc'
p112
S'52'
p113
sS'z'
p114
S'0.012929'
p115
sS'Bmag_max_key'
p116
S'B_(m_B^0)'
p117
sS'e_W'
p118
S'3.7'
p119
sS'GLON'
p120
S'190.681271'
p121
sS'Bmag_min_key'
p122
S'B'
p123
sS'group_dist'
p124
S'42.1'
p125
sS'rmag_sdss'
p126
S'13.022'
p127
sS'identified'
p128
S'Lya'
p129
sS'e_b'
p130
S'2.2'
p131
sS'zmag_sdss'
p132
S'12.406'
p133
sS'bestDist'
p134
S'58.63'
p135
sS'RAs'
p136
S'26.5104'
p137
sS'RC3_pa'
p138
S'-99'
p139
sS'distIndicator'
p140
S'x'
p141
sS'e_Lstar_min'
p142
S'0.091'
p143
sS'l'
p144
F0.004870128301349112
sS'MajDiam'
p145
S'22.48'
p146
sS'distvcorr'
p147
S'58.632'
p148
sS'R_vir'
p149
S'148.85'
p150
sS'Name'
p151
S'NGC4253'
p152
sS'e_MajDiam'
p153
S'1.4'
p154
sS'DEdeg'
p155
S'29.81287'
p156
sS'DEs'
p157
S'46.332'
p158
sS'RID_mean'
p159
S'-99.99'
p160
sS'PA'
p161
S'110'
p162
sS'DEm'
p163
S'48'
p164
sS'lumClass'
p165
S'LC_I'
p166
sS'DEd'
p167
S'29'
p168
sS'Lstar_med'
p169
S'1.4'
p170
sS'W'
p171
S'61.6'
p172
sS'e_Lya_W'
p173
S'6'
p174
sS'l_cus'
p175
F3.828730449058177e-05
sS'RC3_r25'
p176
S'0.87'
p177
sS'e_inc'
p178
S'3'
p179
sS'gmag_sdss'
p180
S'13.622'
p181
sS'e_Lya_v'
p182
S'1'
p183
sS'e_Na'
p184
S'2.74E+12'
p185
sS'Bmag'
p186
S'13.9'
p187
sS'Lya_v'
p188
F3781.0
sS'RID_min'
p189
S'-99.99'
p190
sS'Na'
p191
S'8.68E+13'
p192
sS'e_MinDiam_ang'
p193
S'2.5'
p194
sS'Lstar_sdss'
p195
S'1.3'
p196
sS'MType'
p197
S"(R')SB(s)a:_Sy1.5"
p198
sS'Bmag_max'
p199
S'13.7'
p200
sS'Bmag_key'
p201
S'B_T(25)_'
p202
sS'MinDiam_ang'
p203
S'50.62'
p204
sS'Lya_W'
p205
S'268'
p206
sS'NEDname'
p207
S'NGC4253'
p208
sS'RID_max'
p209
S'-99.99'
p210
sS'Dec_target'
p211
S'30.116944444444446'
p212
sS'Bmag_min'
p213
S'16.1'
p214
sS'z_target'
p215
S'0.13000'
p216
sS'paKey'
p217
S'K_2mass_tot'
p218
sS'diameterKey'
p219
S'K_2mass_tot'
p220
sS'flag'
p221
S'0'
p222
sS'b'
p223
S'37'
p224
sS'target'
p225
g28
sS'e_bestDist'
p226
S'5.86'
p227
sS'e_Lstar_max'
p228
S'0.79'
p229
sS'RC3_type'
p230
S'PSBS1*.'
p231
sS'RA_target'
p232
S'184.46708333333333'
p233
sS'altNames'
p234
S"['NGC4253', 'UGC07344', 'MRK0766', '2MASXJ12182648+2948461', 'SDSSJ121826.51+294846.5']"
p235
sS'RAdeg'
p236
S'184.61046'
p237
sS'e_Lstar_med'
p238
S'0.68'
p239
sS'vcorr'
p240
S'4163'
p241
sS'e_Lstar_sdss'
p242
S'0.6'
p243
sS'inc'
p244
S'50'
p245
sS'ratioKey'
p246
S'K_2mass_tot'
p247
sS'e_MajDiam_ang'
p248
S'4.0'
p249
sS'group_mem'
p250
g183
sS'Bmag_sdss'
p251
S'14'
p252
sS'Vhel'
p253
S'3876'
p254
sS'MajDiam_ang'
p255
S'79.1'
p256
sS'DE-'
p257
S'+'
p258
sS'e_MinDiam'
p259
g154
sS'E(B-V)'
p260
S'0.017'
p261
sS'Lstar_max'
p262
S'1.7'
p263
sS'RID_std'
p264
S'-99.99'
p265
sS'GLAT'
p266
S'82.270131'
p267
sS'RC3_d25'
p268
S'57.3'
p269
sS'azimuth'
p270
F47.8
sS'Lstar_min'
p271
S'0.2'
p272
sS'MinDiam'
p273
S'14.39'
p274
saa(lp275
(dp276
g102
S'19'
p277
sg104
S'12'
p278
sg106
S'37.7'
p279
sg108
S'120002'
p280
sg110
F413.715
sg111
F200.00421995547995
sg112
S'64'
p281
sg114
S'0.006531'
p282
sg116
S'B_(B_T^0)'
p283
sg118
S'3.5'
p284
sg120
S'281.562899'
p285
sg122
S'B_(B_T)'
p286
sg124
S'25.7'
p287
sg126
S'11.935'
p288
sg128
S'Lya'
p289
sg130
S'2.1'
p290
sg132
S'11.009'
p291
sg134
S'37.7'
p292
sg136
S'22.2408'
p293
sg138
S'58'
p294
sg140
S'TF'
p295
sg142
S'1.2'
p296
sg144
F0.0031967851122073608
sg145
S'34.2'
p297
sg147
S'31.77'
p298
sg149
S'198.83'
p299
sg151
S'NGC4260'
p300
sg153
S'2.3'
p301
sg155
S'6.09868'
p302
sg157
S'55.248'
p303
sg159
S'38.317'
p304
sg161
S'45'
p305
sg163
S'5'
p306
sg165
S'LC_I'
p307
sg167
g174
sg169
S'2.0'
p308
sg171
S'39.9'
p309
sg173
S'10'
p310
sg175
F0.003362999602782306
sg176
S'0.5'
p311
sg178
S'2'
p312
sg180
S'12.615'
p313
sg182
g183
sg184
S'2.19E+12'
p314
sg186
S'12.6'
p315
sg188
F1720.0
sg189
S'30.7'
p316
sg191
S'7.29E+12'
p317
sg193
S'4.5'
p318
sg195
S'1.3'
p319
sg197
S'SB(s)a;Sy_LINER'
p320
sg199
S'12.3'
p321
sg201
S'B_(m_B)'
p322
sg203
S'89.81'
p323
sg205
S'36'
p324
sg207
S'NGC4260'
p325
sg209
S'48.4'
p326
sg211
S'6.726388888888889'
p327
sg213
S'12.7'
p328
sg215
S'0.08058'
p329
sg217
S'K_2mass_tot'
p330
sg219
S'K_2mass_tot'
p331
sg221
g222
sg223
S'24'
p332
sg225
g29
sg226
S'5.34'
p333
sg228
S'1.7'
p334
sg230
S'.SBS1..'
p335
sg232
S'184.87875'
p336
sg234
S"['NGC4260', 'UGC07361', '2MASXJ12192224+0605556', 'SDSSJ121922.23+060555.2']"
p337
sg236
S'184.84267'
p338
sg238
S'1.3'
p339
sg240
S'2256'
p340
sg242
S'0.87'
p341
sg244
S'61'
p342
sg246
S'K_2mass_tot'
p343
sg248
S'9.4'
p344
sg250
S'39'
p345
sg251
S'13.1'
p346
sg253
S'1958'
p347
sg255
S'187.1'
p348
sg257
g258
sg259
g301
sg260
S'0.019'
p349
sg262
S'2.7'
p350
sg264
S'5.345'
p351
sg266
S'67.630207'
p352
sg268
S'161.49'
p353
sg270
F41.7
sg271
S'1.9'
p354
sg273
S'16.41'
p355
saa(lp356
(dp357
g102
S'20'
p358
sg104
S'4'
p359
sg106
S'7.15'
p360
sg108
S'200054'
p361
sg110
F254.889
sg111
F59.61174025307431
sg112
S'48'
p362
sg114
S'0.005017'
p363
sg116
g123
sg118
S'6.2'
p364
sg120
S'264.310155'
p365
sg122
S'b_J_(SuperCOSMOS)'
p366
sg124
S'12.3'
p367
sg126
S'-99.99'
p368
sg128
S'Lya'
p369
sg130
S'3.7'
p370
sg132
S'-99.99'
p371
sg134
S'7.15'
p372
sg136
S'0.42'
p373
sg138
S'60'
p374
sg140
S'TF'
p375
sg142
S'0.9'
p376
sg144
F0.0039337877609262155
sg145
S'15.26'
p377
sg147
S'19.163'
p378
sg149
S'113.93'
p379
sg151
S'NGC1566'
p380
sg153
S'6.1'
p381
sg155
S'-54.93781'
p382
sg157
S'16.116'
p383
sg159
S'9.149'
p384
sg161
S'170'
p385
sg163
S'56'
p386
sg165
S'LC_II-III'
p387
sg167
S'54'
p388
sg169
S'0.59'
p389
sg171
S'96.2'
p390
sg173
S'21'
p391
sg175
F6.737839872514436e-09
sg176
S'0.79'
p392
sg178
g359
sg180
S'-99.99'
p393
sg182
g183
sg184
S'4.84E+12'
p394
sg186
S'10.3'
p395
sg188
F1358.0
sg189
S'5.5'
p396
sg191
S'2.88E+13'
p397
sg193
S'15.0'
p398
sg195
S'-99.99'
p399
sg197
S"(R'_1)SAB(rs)bcSy1"
p400
sg199
S'9.82'
p401
sg201
S'B_(Cousins)_(B_26)'
p402
sg203
S'303.7'
p403
sg205
S'136'
p404
sg207
S'NGC1566'
p405
sg209
S'21.3'
p406
sg211
S'-53.61555555555555'
p407
sg213
S'10.9'
p408
sg215
S'0.04001'
p409
sg217
S'K_lga2mass_tot'
p410
sg219
S'K_lga2mass_tot'
p411
sg221
g222
sg223
S'57.8'
p412
sg225
g30
sg226
S'4.17'
p413
sg228
S'2.5'
p414
sg230
S'.SXS4..'
p415
sg232
S'67.66666666666667'
p416
sg234
S"['NGC1566', '2MASXJ04200041-5456161']"
p417
sg236
S'65.00175'
p418
sg238
S'1.6'
p419
sg240
S'1361'
p420
sg242
S'-99.99'
p421
sg244
S'46'
p422
sg246
S'eso-lv'
p423
sg248
S'22.0'
p424
sg250
S'16'
p425
sg251
S'-99.99'
p426
sg253
S'1504'
p427
sg255
S'440.2'
p428
sg257
S'-'
p429
sg259
g381
sg260
S'0.0079'
p430
sg262
S'0.92'
p431
sg264
S'4.176'
p432
sg266
S'-43.393163'
p433
sg268
S'499.06'
p434
sg270
F60.1
sg271
S'0.33'
p435
sg273
S'10.53'
p436
saas.