(dp0
S'Vhels'
p1
(lp2
F1808.0
asS'impacts'
p3
(lp4
F348.733
asS'group_dists'
p5
(lp6
F21.0
asS'MTypes'
p7
(lp8
S'SAB(rs)bc;HII_Sbrst'
p9
asS'e_Lya_Ws'
p10
(lp11
F3.0
asS'e_Lstar_sdsss'
p12
(lp13
F0.093
asS'Bmag_sdsss'
p14
(lp15
F13.8
asS'Nas'
p16
(lp17
F7950000000000.0
asS'Lya_Ws'
p18
(lp19
F42.0
asS'bestDists'
p20
(lp21
F14.9
asS'adjustedIncs'
p22
(lp23
F61.0
asS'targets'
p24
(lp25
S'3C273.0'
p26
asS'e_bs'
p27
(lp28
F3.8
asS'incs'
p29
(lp30
F59.0
asS'azimuths'
p31
(lp32
F10.8
asS'group_nums'
p33
(lp34
S'170002'
p35
asS'Ws'
p36
(lp37
F96.4
asS'ls'
p38
(lp39
F0.0011373482130821312
asS'Lya_vs'
p40
(lp41
F2156.0
asS'R_virs'
p42
(lp43
F180.05
asS'Bmags'
p44
(lp45
F10.6
asS'cuss'
p46
(lp47
F161.20465603697681
asS'vcorrs'
p48
(lp49
F2103.0
asS'e_Nas'
p50
(lp51
F539000000000.0
asS'e_bestDists'
p52
(lp53
F2.83
asS'group_mems'
p54
(lp55
S'4'
p56
asS'e_Lstar_meds'
p57
(lp58
F1.8
asS'Dec_targets'
p59
(lp60
F2.0525
asS'PAs'
p61
(lp62
F95.0
asS'Lstar_meds'
p63
(lp64
F2.0
asS'RA_galaxies'
p65
(lp66
F188.61271
asS'bs'
p67
(lp68
F57.9
asS'e_Ws'
p69
(lp70
F6.3
asS'Dec_galaxies'
p71
(lp72
F2.18814
asS'MajDiams'
p73
(lp74
F29.62
asS'RA_targets'
p75
(lp76
F187.27791666666667
asS'e_Lya_vs'
p77
(lp78
F5.0
asS'z_targets'
p79
(lp80
F0.15834
asS'Lstar_sdsss'
p81
(lp82
F0.11
asS'Names'
p83
(lp84
S'NGC4536'
p85
asS'l_cuss'
p86
(lp87
F0.00044947101847996377
asS'others'
p88
(lp89
(lp90
(dp91
S'RAm'
p92
S'29'
p93
sS'RAh'
p94
S'12'
p95
sS'RID_median'
p96
S'-99.99'
p97
sS'group_num'
p98
S'-99'
p99
sS'impact'
p100
F94.177
sS'cus'
p101
F8.49394836027392
sS'adjustedInc'
p102
S'62'
p103
sS'z'
p104
S'0.005966'
p105
sS'Bmag_max_key'
p106
S'B_(LCO)'
p107
sS'e_W'
p108
S'6.3'
p109
sS'GLON'
p110
S'290.374472'
p111
sS'Bmag_min_key'
p112
S'b_J'
p113
sS'group_dist'
p114
S'-99.99'
p115
sS'rmag_sdss'
p116
S'16.674'
p117
sS'identified'
p118
S'Lya'
p119
sS'e_b'
p120
S'3.8'
p121
sS'zmag_sdss'
p122
S'16.08'
p123
sS'bestDist'
p124
S'29.34'
p125
sS'RAs'
p126
S'50.58'
p127
sS'RC3_pa'
p128
S'-99'
p129
sS'distIndicator'
p130
S'x'
p131
sS'e_Lstar_min'
p132
S'0.0049'
p133
sS'l'
p134
F0.0005694282204351126
sS'MajDiam'
p135
S'4.163'
p136
sS'distvcorr'
p137
S'29.346'
p138
sS'R_vir'
p139
S'46.49'
p140
sS'Name'
p141
S'2PIGGNGPGALB+3.26065+0.04028'
p142
sS'e_MajDiam'
p143
S'0.31'
p144
sS'DEdeg'
p145
S'2.03158'
p146
sS'DEs'
p147
S'53.688'
p148
sS'RID_mean'
p149
S'-99.99'
p150
sS'PA'
p151
S'152'
p152
sS'DEm'
p153
S'1'
p154
sS'lumClass'
p155
g131
sS'DEd'
p156
S'2'
p157
sS'Lstar_med'
p158
S'0.012'
p159
sS'W'
p160
S'96.4'
p161
sS'e_Lya_W'
p162
S'3'
p163
sS'l_cus'
p164
F1.4069039445706562e-55
sS'RC3_r25'
p165
S'-99.99'
p166
sS'e_inc'
p167
g157
sS'gmag_sdss'
p168
S'17.204'
p169
sS'e_Lya_v'
p170
S'5'
p171
sS'e_Na'
p172
S'5.39E+11'
p173
sS'Bmag'
p174
S'17.6'
p175
sS'Lya_v'
p176
F2156.0
sS'RID_min'
p177
S'-99.99'
p178
sS'Na'
p179
S'7.95E+12'
p180
sS'e_MinDiam_ang'
p181
S'0.67'
p182
sS'Lstar_sdss'
p183
S'0.012'
p184
sS'MType'
p185
g131
sS'Bmag_max'
p186
S'17.6'
p187
sS'Bmag_key'
p188
S'B_(LCO)'
p189
sS'MinDiam_ang'
p190
S'14.63'
p191
sS'Lya_W'
p192
S'42'
p193
sS'NEDname'
p194
S'SDSSJ122950.57+020153.7'
p195
sS'RID_max'
p196
S'-99.99'
p197
sS'Dec_target'
p198
S'2.0525'
p199
sS'Bmag_min'
p200
S'17.8'
p201
sS'z_target'
p202
S'0.15834'
p203
sS'paKey'
p204
S'r_sdss_iso'
p205
sS'diameterKey'
p206
S'r_sdss_iso'
p207
sS'flag'
p208
S'0'
p209
sS'b'
p210
S'57.9'
p211
sS'target'
p212
g26
sS'e_bestDist'
p213
S'2.93'
p214
sS'e_Lstar_max'
p215
S'0.0054'
p216
sS'RC3_type'
p217
g131
sS'RA_target'
p218
S'187.27791666666667'
p219
sS'altNames'
p220
S"['SDSSJ122950.57+020153.7']"
p221
sS'RAdeg'
p222
S'187.46075'
p223
sS'e_Lstar_med'
p224
S'0.0054'
p225
sS'vcorr'
p226
S'2084'
p227
sS'e_Lstar_sdss'
p228
S'0.0057'
p229
sS'inc'
p230
S'60'
p231
sS'ratioKey'
p232
S'r_sdss_iso'
p233
sS'e_MajDiam_ang'
p234
S'0.32'
p235
sS'group_mem'
p236
S'-99'
p237
sS'Bmag_sdss'
p238
S'17.6'
p239
sS'Vhel'
p240
S'1789'
p241
sS'MajDiam_ang'
p242
S'29.26'
p243
sS'DE-'
p244
S'+'
p245
sS'e_MinDiam'
p246
g144
sS'E(B-V)'
p247
S'0.0165'
p248
sS'Lstar_max'
p249
S'0.012'
p250
sS'RID_std'
p251
S'-99.99'
p252
sS'GLAT'
p253
S'64.375538'
p254
sS'RC3_d25'
p255
S'-99.99'
p256
sS'azimuth'
p257
F55.5
sS'Lstar_min'
p258
S'0.01'
p259
sS'MinDiam'
p260
S'2.082'
p261
saas.