(dp0
S'Vhels'
p1
(lp2
sS'impacts'
p3
(lp4
sS'group_dists'
p5
(lp6
sS'MTypes'
p7
(lp8
sS'e_Lya_Ws'
p9
(lp10
sS'e_Lstar_sdsss'
p11
(lp12
sS'Bmag_sdsss'
p13
(lp14
sS'Nas'
p15
(lp16
sS'Lya_Ws'
p17
(lp18
sS'bestDists'
p19
(lp20
sS'adjustedIncs'
p21
(lp22
sS'targets'
p23
(lp24
sS'e_bs'
p25
(lp26
sS'incs'
p27
(lp28
sS'azimuths'
p29
(lp30
sS'group_nums'
p31
(lp32
sS'Ws'
p33
(lp34
sS'ls'
p35
(lp36
sS'Lya_vs'
p37
(lp38
sS'R_virs'
p39
(lp40
sS'Bmags'
p41
(lp42
sS'cuss'
p43
(lp44
sS'vcorrs'
p45
(lp46
sS'e_Nas'
p47
(lp48
sS'e_bestDists'
p49
(lp50
sS'group_mems'
p51
(lp52
sS'e_Lstar_meds'
p53
(lp54
sS'Dec_targets'
p55
(lp56
sS'PAs'
p57
(lp58
sS'Lstar_meds'
p59
(lp60
sS'RA_galaxies'
p61
(lp62
sS'bs'
p63
(lp64
sS'e_Ws'
p65
(lp66
sS'Dec_galaxies'
p67
(lp68
sS'MajDiams'
p69
(lp70
sS'RA_targets'
p71
(lp72
sS'e_Lya_vs'
p73
(lp74
sS'z_targets'
p75
(lp76
sS'Lstar_sdsss'
p77
(lp78
sS'Names'
p79
(lp80
sS'l_cuss'
p81
(lp82
sS'others'
p83
(lp84
s.