(dp0
S'Vhels'
p1
(lp2
F733.0
aF2517.0
aF1808.0
asS'impacts'
p3
(lp4
F107.749
aF421.114
aF348.733
asS'group_dists'
p5
(lp6
F-99.99
aF28.5
aF21.0
asS'MTypes'
p7
(lp8
S'SB(s)cd_HII'
p9
aS'SAB(r)b;LINER_Sy1'
p10
aS'SAB(rs)bc;HII_Sbrst'
p11
asS'e_Lya_Ws'
p12
(lp13
F16.0
aF136.0
aF3.0
asS'e_Lstar_sdsss'
p14
(lp15
F0.048
aF-99.99
aF0.093
asS'Bmag_sdsss'
p16
(lp17
F15.0
aF-99.99
aF13.8
asS'Nas'
p18
(lp19
F18600000000000.0
aF4120000000000000.0
aF7950000000000.0
asS'Lya_Ws'
p20
(lp21
F89.0
aF8660.0
aF42.0
asS'bestDists'
p22
(lp23
F16.1
aF39.2
aF14.9
asS'adjustedIncs'
p24
(lp25
F49.0
aF61.0
aF61.0
asS'targets'
p26
(lp27
S'MS1217.0+0700'
p28
aS'HS1543+5921'
p29
aS'3C273.0'
p30
asS'e_bs'
p31
(lp32
F4.0
aF16.1
aF3.8
asS'incs'
p33
(lp34
F48.0
aF59.0
aF59.0
asS'azimuths'
p35
(lp36
F63.9
aF88.6
aF10.8
asS'group_nums'
p37
(lp38
S'-99'
p39
aS'100429'
p40
aS'170002'
p41
asS'Ws'
p42
(lp43
F78.2
aF-99.0
aF96.4
asS'ls'
p44
(lp45
F0.005770192460697953
aF0.006117147822879036
aF0.0011373482130821312
asS'Lya_vs'
p46
(lp47
F1084.0
aF2889.0
aF2156.0
asS'R_virs'
p48
(lp49
F74.8
aF329.13
aF180.05
asS'Bmags'
p50
(lp51
F13.7
aF11.7
aF10.6
asS'cuss'
p52
(lp53
F23.877504750036174
aF598.2566338955214
aF161.20465603697681
asS'vcorrs'
p54
(lp55
F1031.0
aF2674.0
aF2103.0
asS'e_Nas'
p56
(lp57
F3600000000000.0
aF362000000000000.0
aF539000000000.0
asS'e_bestDists'
p58
(lp59
F3.98
aF12.5
aF2.83
asS'group_mems'
p60
(lp61
S'-99'
p62
aS'5'
p63
aS'4'
p64
asS'e_Lstar_meds'
p65
(lp66
F0.16
aF7.5
aF1.8
asS'Dec_targets'
p67
(lp68
F6.726388888888889
aF59.2075
aF2.0525
asS'PAs'
p69
(lp70
F143.0
aF13.0
aF95.0
asS'Lstar_meds'
p71
(lp72
F0.14
aF5.1
aF2.0
asS'RA_galaxies'
p73
(lp74
F184.49958
aF234.90454
aF188.61271
asS'bs'
p75
(lp76
F47.0
aF885.9
aF57.9
asS'e_Ws'
p77
(lp78
F6.6
aF-99.0
aF6.3
asS'Dec_galaxies'
p79
(lp80
F6.65419
aF59.33194
aF2.18814
asS'MajDiams'
p81
(lp82
F8.292
aF71.0
aF29.62
asS'RA_targets'
p83
(lp84
F184.87875
aF236.08416666666665
aF187.27791666666667
asS'e_Lya_vs'
p85
(lp86
F1.0
aF1.0
aF5.0
asS'z_targets'
p87
(lp88
F0.08058
aF0.807
aF0.15834
asS'Lstar_sdsss'
p89
(lp90
F0.042
aF-99.99
aF0.11
asS'Names'
p91
(lp92
S'NGC4241'
p93
aS'NGC5985'
p94
aS'NGC4536'
p95
asS'l_cuss'
p96
(lp97
F6.58694466254597e-11
aF0.019157175594628498
aF0.00044947101847996377
asS'others'
p98
(lp99
(lp100
(dp101
S'RAm'
p102
S'22'
p103
sS'RAh'
p104
S'12'
p105
sS'RID_median'
p106
S'-99.99'
p107
sS'group_num'
p108
S'100002'
p109
sS'impact'
p110
F226.087
sS'cus'
p111
F38.13685405221569
sS'adjustedInc'
p112
S'50'
p113
sS'z'
p114
S'0.002899'
p115
sS'Bmag_max_key'
p116
S'B_(m_B^0)'
p117
sS'e_W'
p118
S'6.6'
p119
sS'GLON'
p120
S'282.460229'
p121
sS'Bmag_min_key'
p122
S'B_(m_B)'
p123
sS'group_dist'
p124
S'14.9'
p125
sS'rmag_sdss'
p126
S'12.841'
p127
sS'identified'
p128
S'Lya'
p129
sS'e_b'
p130
g64
sS'zmag_sdss'
p131
S'12.189'
p132
sS'bestDist'
p133
S'16.44'
p134
sS'RAs'
p135
S'12.384'
p136
sS'RC3_pa'
p137
S'85'
p138
sS'distIndicator'
p139
S'x'
p140
sS'e_Lstar_min'
p141
S'0.068'
p142
sS'l'
p143
F0.0008292938264752367
sS'MajDiam'
p144
S'11.33'
p145
sS'distvcorr'
p146
S'16.442'
p147
sS'R_vir'
p148
S'92.77'
p149
sS'Name'
p150
S'NGC4309'
p151
sS'e_MajDiam'
p152
S'0.75'
p153
sS'DEdeg'
p154
S'7.14431'
p155
sS'DEs'
p156
S'39.516'
p157
sS'RID_mean'
p158
S'-99.99'
p159
sS'PA'
p160
S'70'
p161
sS'DEm'
p162
S'8'
p163
sS'lumClass'
p164
g140
sS'DEd'
p165
S'7'
p166
sS'Lstar_med'
p167
S'0.14'
p168
sS'W'
p169
S'78.2'
p170
sS'e_Lya_W'
p171
S'16'
p172
sS'l_cus'
p173
F1.7175623062651885e-16
sS'RC3_r25'
p174
S'0.58'
p175
sS'e_inc'
p176
g64
sS'gmag_sdss'
p177
S'13.645'
p178
sS'e_Lya_v'
p179
S'1'
p180
sS'e_Na'
p181
S'3.60E+12'
p182
sS'Bmag'
p183
S'13.7'
p184
sS'Lya_v'
p185
F1084.0
sS'RID_min'
p186
S'-99.99'
p187
sS'Na'
p188
S'1.86E+13'
p189
sS'e_MinDiam_ang'
p190
S'4.7'
p191
sS'Lstar_sdss'
p192
S'0.095'
p193
sS'MType'
p194
S'SAB(r)0+'
p195
sS'Bmag_max'
p196
S'13.7'
p197
sS'Bmag_key'
p198
S'B_(m_B^0)'
p199
sS'MinDiam_ang'
p200
S'93.79'
p201
sS'Lya_W'
p202
S'89'
p203
sS'NEDname'
p204
S'NGC4309'
p205
sS'RID_max'
p206
S'-99.99'
p207
sS'Dec_target'
p208
S'6.726388888888889'
p209
sS'Bmag_min'
p210
S'13.7'
p211
sS'z_target'
p212
S'0.08058'
p213
sS'paKey'
p214
S'K_2mass_tot'
p215
sS'diameterKey'
p216
S'K_2mass_tot'
p217
sS'flag'
p218
S'0'
p219
sS'b'
p220
S'47'
p221
sS'target'
p222
g28
sS'e_bestDist'
p223
S'1.64'
p224
sS'e_Lstar_max'
p225
S'0.067'
p226
sS'RC3_type'
p227
S'.LXR+..'
p228
sS'RA_target'
p229
S'184.87875'
p230
sS'altNames'
p231
S"['NGC4309', 'UGC07435', '2MASXJ12221234+0708398', 'SDSSJ122212.38+070839.4']"
p232
sS'RAdeg'
p233
S'185.5516'
p234
sS'e_Lstar_med'
p235
S'0.067'
p236
sS'vcorr'
p237
S'1167'
p238
sS'e_Lstar_sdss'
p239
S'0.044'
p240
sS'inc'
p241
S'49'
p242
sS'ratioKey'
p243
S'K_2mass_tot'
p244
sS'e_MajDiam_ang'
p245
S'7.1'
p246
sS'group_mem'
p247
S'197'
p248
sS'Bmag_sdss'
p249
S'14.1'
p250
sS'Vhel'
p251
S'869'
p252
sS'MajDiam_ang'
p253
S'142.1'
p254
sS'DE-'
p255
S'+'
p256
sS'e_MinDiam'
p257
g153
sS'E(B-V)'
p258
S'0.0172'
p259
sS'Lstar_max'
p260
S'0.14'
p261
sS'RID_std'
p262
S'-99.99'
p263
sS'GLAT'
p264
S'68.8462'
p265
sS'RC3_d25'
p266
S'111.73'
p267
sS'azimuth'
p268
F12.0
sS'Lstar_min'
p269
S'0.14'
p270
sS'MinDiam'
p271
S'7.476'
p272
saa(lp273
(dp274
g102
S'38'
p275
sg104
S'15'
p276
sg106
S'38.1'
p277
sg108
S'100429'
p278
sg110
F491.747
sg111
F184.42403314101986
sg112
S'47'
p279
sg114
S'0.010064'
p280
sg116
S'B_(B_T)'
p281
sg118
S'-99'
p282
sg120
S'93.097359'
p283
sg122
S'B_(m_B)'
p284
sg124
S'28.5'
p285
sg126
S'11.369'
p286
sg128
S'Lya'
p287
sg130
S'16.1'
p288
sg131
S'10.583'
p289
sg133
S'38.1'
p290
sg135
S'39.8304'
p291
sg137
S'110'
p292
sg139
S'Dsigm'
p293
sg141
S'3.1'
p294
sg143
F0.000911780249625286
sg144
S'32.4'
p295
sg146
S'44.714'
p296
sg148
S'191.55'
p297
sg150
S'NGC5982'
p298
sg152
S'5.0'
p299
sg154
S'59.35584'
p300
sg156
S'21.024'
p301
sg158
S'35.625'
p302
sg160
S'105'
p303
sg162
S'21'
p304
sg164
g140
sg165
S'59'
p305
sg167
S'3.4'
p306
sg169
S'-99'
p307
sg171
S'136'
p308
sg173
F0.000542537664474256
sg174
S'0.76'
p309
sg176
g64
sg177
S'12.13'
p310
sg179
g180
sg181
S'3.62E+14'
p311
sg183
S'12.1'
p312
sg185
F2889.0
sg186
S'22.1'
p313
sg188
S'4.12E+15'
p314
sg190
S'6.1'
p315
sg192
S'2.1'
p316
sg194
S'E3_LINER'
p317
sg196
S'12'
p318
sg198
S'B_(B_T^0)'
p319
sg200
S'122.8'
p320
sg202
S'8660'
p321
sg204
S'NGC5982'
p322
sg206
S'51.7'
p323
sg208
S'59.2075'
p324
sg210
S'12.2'
p325
sg212
S'0.80700'
p326
sg214
S'K_2mass_tot'
p327
sg216
S'K_2mass_tot'
p328
sg218
g219
sg220
S'885.9'
p329
sg222
g29
sg223
S'8.31'
p330
sg225
S'3.5'
p331
sg227
S'.E.3...'
p332
sg229
S'236.08416666666665'
p333
sg231
S"['NGC5982', 'UGC09961', '2MASXJ15383977+5921212', 'SDSSJ153839.82+592121.0']"
p334
sg233
S'234.66596'
p335
sg235
S'3.4'
p336
sg237
S'3175'
p337
sg239
S'2.1'
p338
sg241
S'46'
p339
sg243
S'K_2mass_tot'
p340
sg245
S'8.8'
p341
sg247
g63
sg249
S'12.6'
p342
sg251
S'3017'
p343
sg253
S'175.4'
p344
sg255
g256
sg257
g299
sg258
S'0.0151'
p345
sg260
S'3.4'
p346
sg262
S'8.317'
p347
sg264
S'46.923589'
p348
sg266
S'154.22'
p349
sg268
F3.5
sg269
S'3.1'
p350
sg271
S'22.68'
p351
saa(lp352
(dp353
g102
S'29'
p354
sg104
S'12'
p355
sg106
S'-99.99'
p356
sg108
S'-99'
p357
sg110
F94.177
sg111
F8.49394836027392
sg112
S'62'
p358
sg114
S'0.005966'
p359
sg116
S'B_(LCO)'
p360
sg118
S'6.3'
p361
sg120
S'290.374472'
p362
sg122
S'b_J'
p363
sg124
S'-99.99'
p364
sg126
S'16.674'
p365
sg128
S'Lya'
p366
sg130
S'3.8'
p367
sg131
S'16.08'
p368
sg133
S'29.34'
p369
sg135
S'50.58'
p370
sg137
S'-99'
p371
sg139
g140
sg141
S'0.0049'
p372
sg143
F0.0005694282204351126
sg144
S'4.163'
p373
sg146
S'29.346'
p374
sg148
S'46.49'
p375
sg150
S'2PIGGNGPGALB+3.26065+0.04028'
p376
sg152
S'0.31'
p377
sg154
S'2.03158'
p378
sg156
S'53.688'
p379
sg158
S'-99.99'
p380
sg160
S'152'
p381
sg162
g180
sg164
g140
sg165
S'2'
p382
sg167
S'0.012'
p383
sg169
S'96.4'
p384
sg171
S'3'
p385
sg173
F1.4069039445706562e-55
sg174
S'-99.99'
p386
sg176
g382
sg177
S'17.204'
p387
sg179
g63
sg181
S'5.39E+11'
p388
sg183
S'17.6'
p389
sg185
F2156.0
sg186
S'-99.99'
p390
sg188
S'7.95E+12'
p391
sg190
S'0.67'
p392
sg192
S'0.012'
p393
sg194
g140
sg196
S'17.6'
p394
sg198
S'B_(LCO)'
p395
sg200
S'14.63'
p396
sg202
S'42'
p397
sg204
S'SDSSJ122950.57+020153.7'
p398
sg206
S'-99.99'
p399
sg208
S'2.0525'
p400
sg210
S'17.8'
p401
sg212
S'0.15834'
p402
sg214
S'r_sdss_iso'
p403
sg216
S'r_sdss_iso'
p404
sg218
g219
sg220
S'57.9'
p405
sg222
g30
sg223
S'2.93'
p406
sg225
S'0.0054'
p407
sg227
g140
sg229
S'187.27791666666667'
p408
sg231
S"['SDSSJ122950.57+020153.7']"
p409
sg233
S'187.46075'
p410
sg235
S'0.0054'
p411
sg237
S'2084'
p412
sg239
S'0.0057'
p413
sg241
S'60'
p414
sg243
S'r_sdss_iso'
p415
sg245
S'0.32'
p416
sg247
S'-99'
p417
sg249
S'17.6'
p418
sg251
S'1789'
p419
sg253
S'29.26'
p420
sg255
g256
sg257
g377
sg258
S'0.0165'
p421
sg260
S'0.012'
p422
sg262
S'-99.99'
p423
sg264
S'64.375538'
p424
sg266
S'-99.99'
p425
sg268
F55.5
sg269
S'0.01'
p426
sg271
S'2.082'
p427
saas.