(dp0
S'Vhels'
p1
(lp2
F1128.0
aF7312.0
aF4955.0
aF3838.0
aF1999.0
asS'impacts'
p3
(lp4
F209.758
aF366.79
aF214.386
aF277.326
aF180.324
asS'group_dists'
p5
(lp6
F8.6
aF76.7
aF-99.99
aF-99.99
aF-99.99
asS'MTypes'
p7
(lp8
S'SA(s)cd:_sp_HII'
p9
aS'SA(s)0^0^:'
p10
aS'Sc(f)'
p11
aS'Im:'
p12
aS'Sc_(on_edge)'
p13
asS'e_Lya_Ws'
p14
(lp15
F3.0
aF13.0
aF17.0
aF6.0
aF10.0
asS'Nas'
p16
(lp17
F39900000000000.0
aF138000000000000.0
aF252000000000000.0
aF86800000000000.0
aF7290000000000.0
asS'Lya_Ws'
p18
(lp19
F160.0
aF429.0
aF500.0
aF268.0
aF36.0
asS'bestDists'
p20
(lp21
F9.7
aF110.0
aF66.0
aF58.08
aF47.6
asS'adjustedIncs'
p22
(lp23
F90.0
aF17.0
aF80.0
aF0.0
aF75.0
asS'targets'
p24
(lp25
S'HE1228+0131'
p26
aS'RX_J1236.0+2641'
p27
aS'SDSSJ021218.32-073719.8'
p28
aS'TON605'
p29
aS'MS1217.0+0700'
p30
asS'e_bs'
p31
(lp32
F2.4
aF2.1
aF3.0
aF2.2
aF2.1
asS'incs'
p33
(lp34
F81.0
aF16.0
aF75.0
aF0.0
aF71.0
asS'azimuths'
p35
(lp36
F74.1
aF45.6
aF16.4
aF24.0
aF74.8
asS'group_nums'
p37
(lp38
S'0'
p39
aS'100082'
p40
aS'-99'
p41
aS'-99'
p42
aS'-99'
p43
asS'Ws'
p44
(lp45
F55.9
aF96.5
aF98.0
aF61.6
aF39.9
asS'ls'
p46
(lp47
F0.012395907429292505
aF0.026244115723386953
aF0.018545498217265474
aF0.014066292800413004
aF0.013780555128751287
asS'Lya_vs'
p48
(lp49
F1495.0
aF7111.0
aF4833.0
aF3781.0
aF1720.0
asS'R_virs'
p50
(lp51
F207.37
aF226.16
aF112.75
aF135.6
aF117.92
asS'Bmags'
p52
(lp53
F11.1
aF14.3
aF17.3
aF-99.99
aF15.4
asS'cuss'
p54
(lp55
F219.1576438890508
aF264.6439567569983
aF58.26912155679026
aF87.03866579859782
aF64.24014993755851
asS'vcorrs'
p56
(lp57
F1420.0
aF7603.0
aF4686.0
aF4124.0
aF2297.0
asS'e_Nas'
p58
(lp59
F860000000000.0
aF6530000000000.0
aF33600000000000.0
aF2740000000000.0
aF2190000000000.0
asS'e_bestDists'
p60
(lp61
F2.78
aF7.34
aF6.6
aF5.8
aF7.92
asS'group_mems'
p62
(lp63
S'1'
p64
aS'12'
p65
aS'-99'
p66
aS'-99'
p67
aS'-99'
p68
asS'e_Lstar_meds'
p69
(lp70
F0.72
aF1.2
aF0.039
aF-99.99
aF0.19
asS'Dec_targets'
p71
(lp72
F1.256388889
aF26.69333333
aF-7.622222222
aF30.11694444
aF6.726388889
asS'PAs'
p73
(lp74
F83.0
aF90.0
aF4.0
aF148.0
aF160.0
asS'Lstar_meds'
p75
(lp76
F0.54
aF3.8
aF0.082
aF-99.99
aF0.25
asS'RA_galaxies'
p77
(lp78
F188.18996
aF189.16625
aF33.0107
aF184.2047
aF184.66095
asS'bs'
p79
(lp80
F33.6
aF57.9
aF58.8
aF37.0
aF24.0
asS'e_Ws'
p81
(lp82
F4.1
aF3.5
aF5.0
aF3.7
aF3.5
asS'Dec_galaxies'
p83
(lp84
F0.11503
aF26.82994
aF-7.79663
aF30.26996
aF6.70838
asS'MajDiams'
p85
(lp86
F36.35
aF41.22
aF15.03
aF19.64
aF16.04
asS'RA_targets'
p87
(lp88
F187.7083333
aF189.0166667
aF33.07625
aF184.4670833
aF184.87875
asS'e_Lya_vs'
p89
(lp90
F1.0
aF1.0
aF1.0
aF1.0
aF1.0
asS'z_targets'
p91
(lp92
F0.117
aF0.20915
aF0.17392
aF0.13
aF0.08058
asS'Names'
p93
(lp94
S'NGC4517'
p95
aS'IC3585'
p96
aS'SDSSJ021202.56-074747.8'
p97
aS'UGC07302'
p98
aS'PGC039556'
p99
asS'l_cuss'
p100
(lp101
F0.013797266420318222
aF0.053346192899736515
aF9.108418805240421e-07
aF3.5951326024299546e-05
aF5.405870528438405e-05
asS'others'
p102
(lp103
(lp104
(dp105
S'RAm'
p106
S'32'
p107
sS'RAh'
p108
S'12'
p109
sS'RID_median'
p110
S'24.1'
p111
sS'group_num'
p112
S'-99'
p113
sS'impact'
p114
F403.143
sS'cus'
p115
F170.0181681732867
sS'adjustedInc'
p116
S'58'
p117
sS'z'
p118
S'0.005087'
p119
sS'Bmag_max_key'
p120
S'B_(m_B)'
p121
sS'e_W'
p122
S'4.1'
p123
sS'GLON'
p124
S'292.484881'
p125
sS'Bmag_min_key'
p126
S'B_(Johnson)'
p127
sS'group_dist'
p128
S'-99.99'
p129
sS'rmag_sdss'
p130
S'13.865'
p131
sS'identified'
p132
S'Lya'
p133
sS'e_b'
p134
S'2.4'
p135
sS'zmag_sdss'
p136
S'14.01'
p137
sS'bestDist'
p138
S'24.1'
p139
sS'RAs'
p140
S'28.1568'
p141
sS'RC3_pa'
p142
S'30'
p143
sS'distIndicator'
p144
S'TF'
p145
sS'e_Lstar_min'
p146
S'0.051'
p147
sS'l'
p148
F0.008258963476947786
sS'MajDiam'
p149
S'30.69'
p150
sS'distvcorr'
p151
S'25.602'
p152
sS'R_vir'
p153
S'184.51'
p154
sS'Name'
p155
S'NGC4517A'
p156
sS'e_MajDiam'
p157
S'4.2'
p158
sS'DEdeg'
p159
S'0.38967'
p160
sS'DEs'
p161
S'22.812'
p162
sS'RID_mean'
p163
S'22.68'
p164
sS'PA'
p165
S'30'
p166
sS'DEm'
p167
S'23'
p168
sS'lumClass'
p169
S'LC_IV-V'
p170
sS'DEd'
p171
g39
sS'Lstar_med'
p172
S'0.77'
p173
sS'W'
p174
S'55.9'
p175
sS'e_Lya_W'
p176
S'3'
p177
sS'l_cus'
p178
F0.0035352345723019653
sS'RC3_r25'
p179
S'0.66'
p180
sS'e_inc'
p181
S'2'
p182
sS'gmag_sdss'
p183
S'14.289'
p184
sS'e_Lya_v'
p185
g64
sS'e_Na'
p186
S'8.60E+11'
p187
sS'Bmag'
p188
S'12.7'
p189
sS'Lya_v'
p190
F1495.0
sS'RID_min'
p191
S'14.5'
p192
sS'Na'
p193
S'3.99E+13'
p194
sS'e_MinDiam_ang'
p195
S'9.4'
p196
sS'Lstar_sdss'
p197
S'0.13'
p198
sS'MType'
p199
S'SB(rs)dm:_HII'
p200
sS'Bmag_max'
p201
S'12.5'
p202
sS'Bmag_key'
p203
S'B_J'
p204
sS'MinDiam_ang'
p205
S'144.5'
p206
sS'Lya_W'
p207
S'160'
p208
sS'NEDname'
p209
S'NGC4517A'
p210
sS'RID_max'
p211
S'26.7'
p212
sS'Dec_target'
p213
S'1.256388889'
p214
sS'Bmag_min'
p215
S'15.4'
p216
sS'z_target'
p217
S'0.117'
p218
sS'paKey'
p219
S'poss_103a-O'
p220
sS'diameterKey'
p221
S'poss_103a-O'
p222
sS'flag'
p223
g39
sS'b'
p224
S'33.6'
p225
sS'target'
p226
g26
sS'e_bestDist'
p227
S'4.22'
p228
sS'e_Lstar_max'
p229
S'0.78'
p230
sS'RC3_type'
p231
S'.SBT8*.'
p232
sS'RA_target'
p233
S'187.7083333'
p234
sS'altNames'
p235
S"['NGC4517A', 'UGC07685', 'SDSSJ123227.94+002326.2']"
p236
sS'RAdeg'
p237
S'188.11732'
p238
sS'e_Lstar_med'
p239
S'0.62'
p240
sS'vcorr'
p241
S'1818'
p242
sS'e_Lstar_sdss'
p243
S'0.1'
p244
sS'inc'
p245
S'57'
p246
sS'ratioKey'
p247
S'poss_103a-O'
p248
sS'e_MajDiam_ang'
p249
S'2.4'
p250
sS'group_mem'
p251
S'-99'
p252
sS'Bmag_sdss'
p253
S'14.6'
p254
sS'Vhel'
p255
S'1525'
p256
sS'MajDiam_ang'
p257
S'262.6'
p258
sS'DE-'
p259
S'+'
p260
sS'e_MinDiam'
p261
g158
sS'E(B-V)'
p262
S'0.0193'
p263
sS'Lstar_max'
p264
S'0.93'
p265
sS'RID_std'
p266
S'4.225'
p267
sS'GLAT'
p268
S'62.876024'
p269
sS'RC3_d25'
p270
S'238.86'
p271
sS'azimuth'
p272
F55.3
sS'Lstar_min'
p273
S'0.063'
p274
sS'MinDiam'
p275
S'16.88'
p276
sa(dp277
g106
S'34'
p278
sg108
S'12'
p279
sg110
S'13.6'
p280
sg112
S'170002'
p281
sg114
F385.415
sg115
F175.280107165645
sg116
S'74'
p282
sg118
S'0.005791'
p283
sg120
S'B_(B_T^0)'
p284
sg122
g123
sg124
S'292.59582'
p285
sg126
S'B_(m_B)'
p286
sg128
S'21'
p287
sg130
S'-99.99'
p288
sg132
g133
sg134
g135
sg136
S'-99.99'
p289
sg138
S'13.6'
p290
sg140
S'8.4216'
p291
sg142
S'67'
p292
sg144
S'SBF'
p293
sg146
S'0.9'
p294
sg148
F0.0033645005882420548
sg149
S'31.32'
p295
sg151
S'28.606'
p296
sg153
S'187.12'
p297
sg155
S'NGC4527'
p298
sg157
S'2.6'
p299
sg159
S'2.65366'
p300
sg161
S'13.176'
p301
sg163
S'14.243'
p302
sg165
S'70'
p303
sg167
S'39'
p304
sg169
S'LC_II-III'
p305
sg171
g182
sg172
S'0.81'
p306
sg174
g175
sg176
g177
sg178
F0.0018603795338843314
sg179
S'0.34'
p307
sg181
g64
sg183
S'-99.99'
p308
sg185
g64
sg186
g187
sg188
S'11.4'
p309
sg190
F1495.0
sg191
S'10.1'
p310
sg193
g194
sg195
S'8.1'
p311
sg197
S'-99.99'
p312
sg199
S'SAB(s)bc;HII_LINER'
p313
sg201
S'10.7'
p314
sg203
S'B_(B_T)'
p315
sg205
S'161.5'
p316
sg207
g208
sg209
S'NGC4527'
p317
sg211
S'29.4'
p318
sg213
g214
sg215
S'11.4'
p319
sg217
g218
sg219
S'K_lga2mass_tot'
p320
sg221
S'K_lga2mass_tot'
p321
sg223
g39
sg224
g225
sg226
g26
sg227
S'3.3'
p322
sg229
S'1.8'
p323
sg231
S'.SXS4..'
p324
sg233
g234
sg235
S"['NGC4527', 'UGC07721', '2MASXJ12340849+0239137', 'SDSSJ123408.44+023913.7']"
p325
sg237
S'188.53509'
p326
sg239
S'0.91'
p327
sg241
S'2031'
p328
sg243
S'-99.99'
p329
sg245
S'70'
p330
sg247
S'K_lga2mass_tot'
p331
sg249
S'24.0'
p332
sg251
S'4'
p333
sg253
S'-99.99'
p334
sg255
S'1736'
p335
sg257
S'475.0'
p336
sg259
g260
sg261
g299
sg262
S'0.0189'
p337
sg264
S'1.6'
p338
sg266
S'3.307'
p339
sg268
S'65.177691'
p340
sg270
S'369.96'
p341
sg272
F39.4
sg273
S'0.8'
p342
sg275
S'10.65'
p343
sa(dp344
g106
S'34'
p345
sg108
S'12'
p346
sg110
S'14.9'
p347
sg112
S'170002'
p348
sg114
F337.658
sg115
F161.20465603697681
sg116
S'61'
p349
sg118
S'0.006031'
p350
sg120
S'B'
p351
sg122
g123
sg124
S'292.949501'
p352
sg126
S'B_(B_T)'
p353
sg128
S'21'
p354
sg130
S'12'
p355
sg132
g133
sg134
g135
sg136
S'11.106'
p356
sg138
S'14.9'
p357
sg140
S'27.0504'
p358
sg142
S'130'
p359
sg144
S'Ceph'
p360
sg146
S'1.0'
p361
sg148
F0.002563996006912428
sg149
S'29.62'
p362
sg151
S'29.614'
p363
sg153
S'180.05'
p364
sg155
S'NGC4536'
p365
sg157
S'2.9'
p366
sg159
S'2.18814'
p367
sg161
S'17.304'
p368
sg163
S'15.363'
p369
sg165
S'95'
p370
sg167
S'11'
p371
sg169
S'LC_II-III'
p372
sg171
g182
sg172
S'2.0'
p373
sg174
g175
sg176
g177
sg178
F0.0010738111988060058
sg179
S'0.43'
p374
sg181
g177
sg183
S'13.181'
p375
sg185
g64
sg186
g187
sg188
S'10.6'
p376
sg190
F1495.0
sg191
S'8.67'
p377
sg193
g194
sg195
S'11.0'
p378
sg197
S'0.11'
p379
sg199
S'SAB(rs)bc;HII_Sbrst'
p380
sg201
S'9.89'
p381
sg203
S'B_(B_T^0)'
p382
sg205
S'213.2'
p383
sg207
g208
sg209
S'NGC4536'
p384
sg211
S'28.0'
p385
sg213
g214
sg215
S'11.2'
p386
sg217
g218
sg219
S'K_lga2mass_tot'
p387
sg221
S'K_lga2mass_tot'
p388
sg223
g39
sg224
g225
sg226
g26
sg227
S'2.83'
p389
sg229
S'3.3'
p390
sg231
S'.SXT4..'
p391
sg233
g234
sg235
S"['NGC4536', 'UGC07732', '2MASXJ12342712+0211163', 'SDSSJ123427.04+021117.2']"
p392
sg237
S'188.61271'
p393
sg239
S'1.8'
p394
sg241
S'2103'
p395
sg243
S'0.093'
p396
sg245
S'59'
p397
sg247
S'K_lga2mass_tot'
p398
sg249
S'21.0'
p399
sg251
g333
sg253
S'13.8'
p400
sg255
S'1808'
p401
sg257
S'410.0'
p402
sg259
g260
sg261
g366
sg262
S'0.0157'
p403
sg264
S'3.8'
p404
sg266
S'2.83'
p405
sg268
S'64.730132'
p406
sg270
S'455.15'
p407
sg272
F50.9
sg273
S'1.2'
p408
sg275
S'15.4'
p409
saa(lp410
(dp411
g106
S'36'
p412
sg108
S'12'
p413
sg110
S'-99.99'
p414
sg112
S'-99'
p415
sg114
F131.693
sg115
F25.599397118994816
sg116
S'45'
p416
sg118
S'0.024591'
p417
sg120
S'x'
p418
sg122
S'3.5'
p419
sg124
S'218.322536'
p420
sg126
g418
sg128
S'-99.99'
p421
sg130
S'16.007'
p422
sg132
S'Lya'
p423
sg134
S'2.1'
p424
sg136
S'15.395'
p425
sg138
S'107.93'
p426
sg140
S'12.2616'
p427
sg142
S'-99'
p428
sg144
g418
sg146
S'-99.99'
p429
sg148
F0.00994435843304841
sg149
S'8.686'
p430
sg151
S'107.931'
p431
sg153
S'77.23'
p432
sg155
S'IC3565'
p433
sg157
S'0.63'
p434
sg159
S'26.75612'
p435
sg161
S'22.032'
p436
sg163
S'-99.99'
p437
sg165
S'25'
p438
sg167
S'45'
p439
sg169
g418
sg171
S'26'
p440
sg172
S'-99.99'
p441
sg174
S'96.5'
p442
sg176
S'13'
p443
sg178
F5.847102829500024e-13
sg179
S'-99.99'
p444
sg181
g333
sg183
S'16.711'
p445
sg185
g64
sg186
S'6.53E+12'
p446
sg188
S'-99.99'
p447
sg190
F7111.0
sg191
S'-99.99'
p448
sg193
S'1.38E+14'
p449
sg195
S'0.6'
p450
sg197
S'0.25'
p451
sg199
g418
sg201
S'-99.99'
p452
sg203
g418
sg205
S'11.95'
p453
sg207
S'429'
p454
sg209
S'IC3565'
p455
sg211
S'-99.99'
p456
sg213
S'26.69333333'
p457
sg215
S'-99.99'
p458
sg217
S'0.20915'
p459
sg219
S'K_2mass_tot'
p460
sg221
S'K_2mass_tot'
p461
sg223
g39
sg224
S'57.9'
p462
sg226
g27
sg227
S'10.79'
p463
sg229
S'-99.99'
p464
sg231
g418
sg233
S'189.0166667'
p465
sg235
S"['IC3565', '2MASXJ12361227+2645221', 'SDSSJ123612.26+264521.9']"
p466
sg237
S'189.05109'
p467
sg239
S'-99.99'
p468
sg241
S'7663'
p469
sg243
S'0.12'
p470
sg245
S'44'
p471
sg247
S'r_sdss_iso'
p472
sg249
S'0.83'
p473
sg251
S'-99'
p474
sg253
S'17.2'
p475
sg255
S'7372'
p476
sg257
S'16.6'
p477
sg259
g260
sg261
g434
sg262
S'0.0172'
p478
sg264
S'-99.99'
p479
sg266
S'-99.99'
p480
sg268
S'86.58476'
p481
sg270
S'-99.99'
p482
sg272
F1.1
sg273
S'-99.99'
p483
sg275
S'6.254'
p484
saa(lp485
(dp486
g106
S'13'
p487
sg108
g182
sg110
S'-99.99'
p488
sg112
S'-99'
p489
sg114
F268.145
sg115
F72.70633045340689
sg116
S'52'
p490
sg118
S'0.016011'
p491
sg120
g418
sg122
S'5'
p492
sg124
S'171.589161'
p493
sg126
g418
sg128
S'-99.99'
p494
sg130
S'13.476'
p495
sg132
S'f:Lya'
p496
sg134
g177
sg136
S'12.873'
p497
sg138
S'63.82'
p498
sg140
S'15.7968'
p499
sg142
S'-99'
p500
sg144
g418
sg146
S'-99.99'
p501
sg148
F0.009643427719152282
sg149
S'17.42'
p502
sg151
S'63.828'
p503
sg153
S'124.83'
p504
sg155
S'SDSSJ021315.79-073942.7'
p505
sg157
S'1.7'
p506
sg159
S'-7.66188'
p507
sg161
S'42.768'
p508
sg163
S'-99.99'
p509
sg165
S'129'
p510
sg167
S'39'
p511
sg169
g418
sg171
S'7'
p512
sg172
S'-99.99'
p513
sg174
S'98'
p514
sg176
S'17'
p515
sg178
F1.205061197542848e-06
sg179
S'-99.99'
p516
sg181
g182
sg183
S'14.241'
p517
sg185
g64
sg186
S'3.36E+13'
p518
sg188
S'-99.99'
p519
sg190
F4833.0
sg191
S'-99.99'
p520
sg193
S'2.52E+14'
p521
sg195
S'1.7'
p522
sg197
S'0.84'
p523
sg199
S'Sb'
p524
sg201
S'-99.99'
p525
sg203
g418
sg205
S'36.02'
p526
sg207
S'500'
p527
sg209
S'SDSSJ021315.79-073942.7'
p528
sg211
S'-99.99'
p529
sg213
S'-7.622222222'
p530
sg215
S'-99.99'
p531
sg217
S'0.17392'
p532
sg219
S'r_sdss_dev'
p533
sg221
S'r_sdss_pet'
p534
sg223
g39
sg224
S'58.8'
p535
sg226
g28
sg227
S'6.38'
p536
sg229
S'-99.99'
p537
sg231
g418
sg233
S'33.07625'
p538
sg235
S"['SDSSJ021315.79-073942.7']"
p539
sg237
S'33.31582'
p540
sg239
S'-99.99'
p541
sg241
S'4532'
p542
sg243
S'0.39'
p543
sg245
S'50'
p544
sg247
S'r_sdss_iso'
p545
sg249
S'0.56'
p546
sg251
S'-99'
p547
sg253
S'14.7'
p548
sg255
S'4800'
p549
sg257
S'56.29'
p550
sg259
S'-'
p551
sg261
g506
sg262
S'0.0224'
p552
sg264
S'-99.99'
p553
sg266
S'-99.99'
p554
sg268
S'-62.525293'
p555
sg270
S'-99.99'
p556
sg272
F29.5
sg273
S'-99.99'
p557
sg275
S'11.15'
p558
saa(lp559
(dp560
g106
S'18'
p561
sg108
S'12'
p562
sg110
S'-99.99'
p563
sg112
S'110580'
p564
sg114
F336.118
sg115
F106.58460016343825
sg116
S'52'
p565
sg118
S'0.012929'
p566
sg120
S'B_(m_B^0)'
p567
sg122
S'3.7'
p568
sg124
S'190.681271'
p569
sg126
g351
sg128
S'42.1'
p570
sg130
S'13.022'
p571
sg132
S'Lya'
p572
sg134
S'2.2'
p573
sg136
S'12.406'
p574
sg138
S'58.63'
p575
sg140
S'26.5104'
p576
sg142
S'-99'
p577
sg144
g418
sg146
S'0.091'
p578
sg148
F0.004870128301349112
sg149
S'22.48'
p579
sg151
S'58.632'
p580
sg153
S'148.85'
p581
sg155
S'NGC4253'
p582
sg157
S'1.4'
p583
sg159
S'29.81287'
p584
sg161
S'46.332'
p585
sg163
S'-99.99'
p586
sg165
S'110'
p587
sg167
S'48'
p588
sg169
S'LC_I'
p589
sg171
S'29'
p590
sg172
S'1.4'
p591
sg174
S'61.6'
p592
sg176
S'6'
p593
sg178
F3.828730449058177e-05
sg179
S'0.87'
p594
sg181
g177
sg183
S'13.622'
p595
sg185
g64
sg186
S'2.74E+12'
p596
sg188
S'13.9'
p597
sg190
F3781.0
sg191
S'-99.99'
p598
sg193
S'8.68E+13'
p599
sg195
S'2.5'
p600
sg197
S'1.3'
p601
sg199
S"(R')SB(s)a:_Sy1.5"
p602
sg201
S'13.7'
p603
sg203
S'B_T(25)_'
p604
sg205
S'50.62'
p605
sg207
S'268'
p606
sg209
S'NGC4253'
p607
sg211
S'-99.99'
p608
sg213
S'30.11694444'
p609
sg215
S'16.1'
p610
sg217
S'0.13'
p611
sg219
S'K_2mass_tot'
p612
sg221
S'K_2mass_tot'
p613
sg223
g39
sg224
S'37'
p614
sg226
g29
sg227
S'5.86'
p615
sg229
S'0.79'
p616
sg231
S'PSBS1*.'
p617
sg233
S'184.4670833'
p618
sg235
S"['NGC4253', 'UGC07344', 'MRK0766', '2MASXJ12182648+2948461', 'SDSSJ121826.51+294846.5']"
p619
sg237
S'184.61046'
p620
sg239
S'0.68'
p621
sg241
S'4163'
p622
sg243
S'0.6'
p623
sg245
S'50'
p624
sg247
S'K_2mass_tot'
p625
sg249
S'4.0'
p626
sg251
g64
sg253
S'14'
p627
sg255
S'3876'
p628
sg257
S'79.1'
p629
sg259
g260
sg261
g583
sg262
S'0.017'
p630
sg264
S'1.7'
p631
sg266
S'-99.99'
p632
sg268
S'82.270131'
p633
sg270
S'57.3'
p634
sg272
F47.8
sg273
S'0.2'
p635
sg275
S'14.39'
p636
saa(lp637
(dp638
g106
S'19'
p639
sg108
S'12'
p640
sg110
S'37.7'
p641
sg112
S'120002'
p642
sg114
F413.715
sg115
F200.00421995547995
sg116
S'64'
p643
sg118
S'0.006531'
p644
sg120
S'B_(B_T^0)'
p645
sg122
S'3.5'
p646
sg124
S'281.562899'
p647
sg126
S'B_(B_T)'
p648
sg128
S'25.7'
p649
sg130
S'11.935'
p650
sg132
S'Lya'
p651
sg134
S'2.1'
p652
sg136
S'11.009'
p653
sg138
S'37.7'
p654
sg140
S'22.2408'
p655
sg142
S'58'
p656
sg144
S'TF'
p657
sg146
S'1.2'
p658
sg148
F0.0031967851122073608
sg149
S'34.2'
p659
sg151
S'31.77'
p660
sg153
S'198.83'
p661
sg155
S'NGC4260'
p662
sg157
S'2.3'
p663
sg159
S'6.09868'
p664
sg161
S'55.248'
p665
sg163
S'38.317'
p666
sg165
S'45'
p667
sg167
g492
sg169
S'LC_I'
p668
sg171
g593
sg172
S'2.0'
p669
sg174
S'39.9'
p670
sg176
S'10'
p671
sg178
F0.003362999602782306
sg179
S'0.5'
p672
sg181
g182
sg183
S'12.615'
p673
sg185
g64
sg186
S'2.19E+12'
p674
sg188
S'12.6'
p675
sg190
F1720.0
sg191
S'30.7'
p676
sg193
S'7.29E+12'
p677
sg195
S'4.5'
p678
sg197
S'1.3'
p679
sg199
S'SB(s)a;Sy_LINER'
p680
sg201
S'12.3'
p681
sg203
S'B_(m_B)'
p682
sg205
S'89.81'
p683
sg207
S'36'
p684
sg209
S'NGC4260'
p685
sg211
S'48.4'
p686
sg213
S'6.726388889'
p687
sg215
S'12.7'
p688
sg217
S'0.08058'
p689
sg219
S'K_2mass_tot'
p690
sg221
S'K_2mass_tot'
p691
sg223
g39
sg224
S'24'
p692
sg226
g30
sg227
S'5.34'
p693
sg229
S'1.7'
p694
sg231
S'.SBS1..'
p695
sg233
S'184.87875'
p696
sg235
S"['NGC4260', 'UGC07361', '2MASXJ12192224+0605556', 'SDSSJ121922.23+060555.2']"
p697
sg237
S'184.84267'
p698
sg239
S'1.3'
p699
sg241
S'2256'
p700
sg243
S'0.87'
p701
sg245
S'61'
p702
sg247
S'K_2mass_tot'
p703
sg249
S'9.4'
p704
sg251
S'39'
p705
sg253
S'13.1'
p706
sg255
S'1958'
p707
sg257
S'187.1'
p708
sg259
g260
sg261
g663
sg262
S'0.019'
p709
sg264
S'2.7'
p710
sg266
S'5.345'
p711
sg268
S'67.630207'
p712
sg270
S'161.49'
p713
sg272
F41.7
sg273
S'1.9'
p714
sg275
S'16.41'
p715
saas.