(dp0
S'Vhels'
p1
(lp2
F1128.0
aF1284.0
aF1284.0
aF7312.0
aF616.0
aF616.0
aF1736.0
aF2410.0
asS'impacts'
p3
(lp4
F209.758
aF100.931
aF100.931
aF366.291
aF20.517
aF20.517
aF330.608
aF247.452
asS'group_dists'
p5
(lp6
F8.6
aF14.9
aF14.9
aF76.7
aF8.9
aF8.9
aF21.0
aF25.7
asS'MTypes'
p7
(lp8
S'SA(s)cd:_sp_HII'
p9
aS'E+0-1_pec;NLRG_Sy'
p10
aS'E+0-1_pec;NLRG_Sy'
p11
aS'SA(s)0^0^:'
p12
aS'SB(s)m;LINER_HII'
p13
aS'SB(s)m;LINER_HII'
p14
aS'SAB(s)bc;HII_LINER'
p15
aS'SA(s)a_Sy1'
p16
asS'e_Lya_Ws'
p17
(lp18
F3.0
aF20.0
aF16.0
aF9.0
aF25.0
aF30.0
aF2.0
aF5.0
asS'e_Lstar_sdsss'
p19
(lp20
F-99.99
aF3.3
aF3.3
aF0.49
aF-99.99
aF-99.99
aF-99.99
aF0.59
asS'Bmag_sdsss'
p21
(lp22
F-99.99
aF10.0
aF10.0
aF15.2
aF-99.99
aF-99.99
aF-99.99
aF13.1
asS'Nas'
p23
(lp24
F39900000000000.0
aF46400000000000.0
aF235000000000000.0
aF10700000000000.0
aF262000000000000.0
aF262000000000000.0
aF143000000000000.0
aF6410000000000.0
asS'Lya_Ws'
p25
(lp26
F160.0
aF176.0
aF525.0
aF51.0
aF568.0
aF585.0
aF369.0
aF31.0
asS'bestDists'
p27
(lp28
F9.7
aF16.4
aF16.4
aF110.0
aF11.3
aF11.3
aF13.6
aF18.4
asS'adjustedIncs'
p29
(lp30
F90.0
aF31.0
aF31.0
aF17.0
aF90.0
aF90.0
aF74.0
aF74.0
asS'targets'
p31
(lp32
S'HE1228+0131'
p33
aS'MS1228.6+1219'
p34
aS'MS1228.6+1219'
p35
aS'RX_J1236.0+2641'
p36
aS'CSO295'
p37
aS'CSO295'
p38
aS'3C273.0'
p39
aS'PG1216+069'
p40
asS'e_bs'
p41
(lp42
F2.4
aF2.4
aF1.4
aF3.0
aF3.7
aF3.9
aF2.2
aF1.4
asS'incs'
p43
(lp44
F81.0
aF31.0
aF31.0
aF16.0
aF78.0
aF78.0
aF70.0
aF70.0
asS'azimuths'
p45
(lp46
F74.1
aF11.1
aF11.1
aF45.7
aF81.6
aF81.6
aF5.6
aF85.3
asS'group_nums'
p47
(lp48
S'0'
p49
aS'100002'
p50
aS'100002'
p51
aS'100082'
p52
aS'112910'
p53
aS'112910'
p54
aS'170002'
p55
aS'120002'
p56
asS'Ws'
p57
(lp58
F55.9
aF57.5
aF94.4
aF34.6
aF106.8
aF129.0
aF70.0
aF22.7
asS'ls'
p59
(lp60
F0.012395907429292505
aF0.19277267513827911
aF0.7943400512297468
aF0.05953674544917223
aF0.9804125209542504
aF0.9358670472419909
aF0.023991275666620748
aF0.025568341864647147
asS'Lya_vs'
p61
(lp62
F1495.0
aF1046.0
aF1286.0
aF7223.0
aF600.0
aF662.0
aF1580.0
aF2548.0
asS'R_virs'
p63
(lp64
F207.37
aF210.39
aF210.39
aF226.16
aF177.36
aF177.36
aF187.12
aF138.54
asS'Bmags'
p65
(lp66
F11.1
aF9.59
aF9.59
aF14.3
aF11.7
aF11.7
aF11.4
aF12.6
asS'cuss'
p67
(lp68
F219.1576438890508
aF226.1579981517346
aF226.1579981517346
aF264.6439567569983
aF156.0082523201898
aF156.0082523201898
aF175.280107165645
aF91.1925083326476
asS'vcorrs'
p69
(lp70
F1420.0
aF1584.0
aF1584.0
aF7603.0
aF871.0
aF871.0
aF2031.0
aF2708.0
asS'e_Nas'
p71
(lp72
F860000000000.0
aF6410000000000.0
aF28400000000000.0
aF2010000000000.0
aF42500000000000.0
aF43300000000000.0
aF1050000000000.0
aF1030000000000.0
asS'e_bestDists'
p73
(lp74
F2.78
aF2.79
aF2.79
aF7.34
aF4.21
aF4.21
aF3.3
aF8.02
asS'group_mems'
p75
(lp76
S'1'
p77
aS'197'
p78
aS'197'
p79
aS'12'
p80
ag77
ag77
aS'4'
p81
aS'39'
p82
asS'e_Lstar_meds'
p83
(lp84
F0.72
aF4.8
aF4.8
aF1.2
aF0.72
aF0.72
aF0.91
aF1.0
asS'Dec_targets'
p85
(lp86
F1.256388888888889
aF12.051944444444445
aF12.051944444444445
aF26.693333333333335
aF36.67777777777778
aF36.67777777777778
aF2.0525
aF6.643888888888889
asS'PAs'
p87
(lp88
F83.0
aF153.0
aF153.0
aF90.0
aF43.0
aF43.0
aF70.0
aF50.0
asS'Lstar_meds'
p89
(lp90
F0.54
aF6.2
aF6.2
aF3.8
aF0.42
aF0.42
aF0.81
aF0.5
asS'RA_galaxies'
p91
(lp92
F188.18996
aF187.70593
aF187.70593
aF189.16625
aF163.12971
aF163.12971
aF188.53509
aF184.29117
asS'bs'
p93
(lp94
F33.6
aF34.5
aF56.7
aF20.8
aF64.1
aF77.5
aF42.0
aF13.6
asS'e_Ws'
p95
(lp96
F4.1
aF3.9
aF2.4
aF5.0
aF6.1
aF6.5
aF3.6
aF2.4
asS'Dec_galaxies'
p97
(lp98
F0.11503
aF12.39112
aF12.39112
aF26.82994
aF36.61878
aF36.61878
aF2.65366
aF7.19158
asS'MajDiams'
p99
(lp100
F36.35
aF37.12
aF37.12
aF41.22
aF28.98
aF28.98
aF31.32
aF20.26
asS'RA_targets'
p101
(lp102
F187.70833333333334
aF187.80458333333334
aF187.80458333333334
aF189.01708333333332
aF163.02291666666667
aF163.02291666666667
aF187.27791666666667
aF184.83708333333334
asS'e_Lya_vs'
p103
(lp104
F1.0
aF2.0
aF2.0
aF1.0
aF1.0
aF7.0
aF1.0
aF4.0
asS'z_targets'
p105
(lp106
F0.117
aF0.11612
aF0.11612
aF0.20915
aF0.60999
aF0.60999
aF0.15834
aF0.3313
asS'Lstar_sdsss'
p107
(lp108
F-99.99
aF4.2
aF4.2
aF1.6
aF-99.99
aF-99.99
aF-99.99
aF0.29
asS'Names'
p109
(lp110
S'NGC4517'
p111
aS'NGC4486'
p112
aS'NGC4486'
p113
aS'IC3585'
p114
aS'NGC3432'
p115
aS'NGC3432'
p116
aS'NGC4527'
p117
aS'NGC4235'
p118
asS'l_cuss'
p119
(lp120
F0.013797266420318222
aF0.19883685626508646
aF0.8193281463707167
aF0.12078664404544016
aF0.9765830553408188
aF0.9322115750814878
aF0.015513641382541077
aF0.00039396463280967316
asS'others'
p121
(lp122
(lp123
(dp124
S'RAm'
p125
S'32'
p126
sS'RAh'
p127
S'12'
p128
sS'RID_median'
p129
S'24.1'
p130
sS'group_num'
p131
S'-99'
p132
sS'impact'
p133
F403.143
sS'cus'
p134
F170.0181681732867
sS'adjustedInc'
p135
S'58'
p136
sS'z'
p137
S'0.005087'
p138
sS'Bmag_max_key'
p139
S'B_(m_B)'
p140
sS'e_W'
p141
S'4.1'
p142
sS'GLON'
p143
S'292.484881'
p144
sS'Bmag_min_key'
p145
S'B_(Johnson)'
p146
sS'group_dist'
p147
S'-99.99'
p148
sS'rmag_sdss'
p149
S'13.865'
p150
sS'identified'
p151
S'Lya'
p152
sS'e_b'
p153
S'2.4'
p154
sS'zmag_sdss'
p155
S'14.01'
p156
sS'bestDist'
p157
S'24.1'
p158
sS'RAs'
p159
S'28.1568'
p160
sS'RC3_pa'
p161
S'30'
p162
sS'distIndicator'
p163
S'TF'
p164
sS'e_Lstar_min'
p165
S'0.051'
p166
sS'l'
p167
F0.008258963476947786
sS'MajDiam'
p168
S'30.69'
p169
sS'distvcorr'
p170
S'25.602'
p171
sS'R_vir'
p172
S'184.51'
p173
sS'Name'
p174
S'NGC4517A'
p175
sS'e_MajDiam'
p176
S'4.2'
p177
sS'DEdeg'
p178
S'0.38967'
p179
sS'DEs'
p180
S'22.812'
p181
sS'RID_mean'
p182
S'22.68'
p183
sS'PA'
p184
S'30'
p185
sS'DEm'
p186
S'23'
p187
sS'lumClass'
p188
S'LC_IV-V'
p189
sS'DEd'
p190
g49
sS'Lstar_med'
p191
S'0.77'
p192
sS'W'
p193
S'55.9'
p194
sS'e_Lya_W'
p195
S'3'
p196
sS'l_cus'
p197
F0.0035352345723019653
sS'RC3_r25'
p198
S'0.66'
p199
sS'e_inc'
p200
S'2'
p201
sS'gmag_sdss'
p202
S'14.289'
p203
sS'e_Lya_v'
p204
g77
sS'e_Na'
p205
S'8.60E+11'
p206
sS'Bmag'
p207
S'12.7'
p208
sS'Lya_v'
p209
F1495.0
sS'RID_min'
p210
S'14.5'
p211
sS'Na'
p212
S'3.99E+13'
p213
sS'e_MinDiam_ang'
p214
S'9.4'
p215
sS'Lstar_sdss'
p216
S'0.13'
p217
sS'MType'
p218
S'SB(rs)dm:_HII'
p219
sS'Bmag_max'
p220
S'12.5'
p221
sS'Bmag_key'
p222
S'B_J'
p223
sS'MinDiam_ang'
p224
S'144.5'
p225
sS'Lya_W'
p226
S'160'
p227
sS'NEDname'
p228
S'NGC4517A'
p229
sS'RID_max'
p230
S'26.7'
p231
sS'Dec_target'
p232
S'1.256388888888889'
p233
sS'Bmag_min'
p234
S'15.4'
p235
sS'z_target'
p236
S'0.11700'
p237
sS'paKey'
p238
S'poss_103a-O'
p239
sS'diameterKey'
p240
S'poss_103a-O'
p241
sS'flag'
p242
g49
sS'b'
p243
S'33.6'
p244
sS'target'
p245
g33
sS'e_bestDist'
p246
S'4.22'
p247
sS'e_Lstar_max'
p248
S'0.78'
p249
sS'RC3_type'
p250
S'.SBT8*.'
p251
sS'RA_target'
p252
S'187.70833333333334'
p253
sS'altNames'
p254
S"['NGC4517A', 'UGC07685', 'SDSSJ123227.94+002326.2']"
p255
sS'RAdeg'
p256
S'188.11732'
p257
sS'e_Lstar_med'
p258
S'0.62'
p259
sS'vcorr'
p260
S'1818'
p261
sS'e_Lstar_sdss'
p262
S'0.1'
p263
sS'inc'
p264
S'57'
p265
sS'ratioKey'
p266
S'poss_103a-O'
p267
sS'e_MajDiam_ang'
p268
S'2.4'
p269
sS'group_mem'
p270
S'-99'
p271
sS'Bmag_sdss'
p272
S'14.6'
p273
sS'Vhel'
p274
S'1525'
p275
sS'MajDiam_ang'
p276
S'262.6'
p277
sS'DE-'
p278
S'+'
p279
sS'e_MinDiam'
p280
g177
sS'E(B-V)'
p281
S'0.0193'
p282
sS'Lstar_max'
p283
S'0.93'
p284
sS'RID_std'
p285
S'4.225'
p286
sS'GLAT'
p287
S'62.876024'
p288
sS'RC3_d25'
p289
S'238.86'
p290
sS'azimuth'
p291
F55.3
sS'Lstar_min'
p292
S'0.063'
p293
sS'MinDiam'
p294
S'16.88'
p295
sa(dp296
g125
S'34'
p297
sg127
S'12'
p298
sg129
S'13.6'
p299
sg131
S'170002'
p300
sg133
F385.415
sg134
F175.280107165645
sg135
S'74'
p301
sg137
S'0.005791'
p302
sg139
S'B_(B_T^0)'
p303
sg141
g142
sg143
S'292.59582'
p304
sg145
S'B_(m_B)'
p305
sg147
S'21'
p306
sg149
S'-99.99'
p307
sg151
g152
sg153
g154
sg155
S'-99.99'
p308
sg157
S'13.6'
p309
sg159
S'8.4216'
p310
sg161
S'67'
p311
sg163
S'SBF'
p312
sg165
S'0.9'
p313
sg167
F0.0033645005882420548
sg168
S'31.32'
p314
sg170
S'28.606'
p315
sg172
S'187.12'
p316
sg174
S'NGC4527'
p317
sg176
S'2.6'
p318
sg178
S'2.65366'
p319
sg180
S'13.176'
p320
sg182
S'14.243'
p321
sg184
S'70'
p322
sg186
S'39'
p323
sg188
S'LC_II-III'
p324
sg190
g201
sg191
S'0.81'
p325
sg193
g194
sg195
g196
sg197
F0.0018603795338843314
sg198
S'0.34'
p326
sg200
g77
sg202
S'-99.99'
p327
sg204
g77
sg205
g206
sg207
S'11.4'
p328
sg209
F1495.0
sg210
S'10.1'
p329
sg212
g213
sg214
S'8.1'
p330
sg216
S'-99.99'
p331
sg218
S'SAB(s)bc;HII_LINER'
p332
sg220
S'10.7'
p333
sg222
S'B_(B_T)'
p334
sg224
S'161.5'
p335
sg226
g227
sg228
S'NGC4527'
p336
sg230
S'29.4'
p337
sg232
g233
sg234
S'11.4'
p338
sg236
g237
sg238
S'K_lga2mass_tot'
p339
sg240
S'K_lga2mass_tot'
p340
sg242
g49
sg243
g244
sg245
g33
sg246
S'3.3'
p341
sg248
S'1.8'
p342
sg250
S'.SXS4..'
p343
sg252
g253
sg254
S"['NGC4527', 'UGC07721', '2MASXJ12340849+0239137', 'SDSSJ123408.44+023913.7']"
p344
sg256
S'188.53509'
p345
sg258
S'0.91'
p346
sg260
S'2031'
p347
sg262
S'-99.99'
p348
sg264
S'70'
p349
sg266
S'K_lga2mass_tot'
p350
sg268
S'24.0'
p351
sg270
g81
sg272
S'-99.99'
p352
sg274
S'1736'
p353
sg276
S'475.0'
p354
sg278
g279
sg280
g318
sg281
S'0.0189'
p355
sg283
S'1.6'
p356
sg285
S'3.307'
p357
sg287
S'65.177691'
p358
sg289
S'369.96'
p359
sg291
F39.4
sg292
S'0.8'
p360
sg294
S'10.65'
p361
sa(dp362
g125
S'34'
p363
sg127
S'12'
p364
sg129
S'14.9'
p365
sg131
S'170002'
p366
sg133
F337.658
sg134
F161.20465603697681
sg135
S'61'
p367
sg137
S'0.006031'
p368
sg139
S'B'
p369
sg141
g142
sg143
S'292.949501'
p370
sg145
S'B_(B_T)'
p371
sg147
S'21'
p372
sg149
S'12'
p373
sg151
g152
sg153
g154
sg155
S'11.106'
p374
sg157
S'14.9'
p375
sg159
S'27.0504'
p376
sg161
S'130'
p377
sg163
S'Ceph'
p378
sg165
S'1.0'
p379
sg167
F0.002563996006912428
sg168
S'29.62'
p380
sg170
S'29.614'
p381
sg172
S'180.05'
p382
sg174
S'NGC4536'
p383
sg176
S'2.9'
p384
sg178
S'2.18814'
p385
sg180
S'17.304'
p386
sg182
S'15.363'
p387
sg184
S'95'
p388
sg186
S'11'
p389
sg188
S'LC_II-III'
p390
sg190
g201
sg191
S'2.0'
p391
sg193
g194
sg195
g196
sg197
F0.0010738111988060058
sg198
S'0.43'
p392
sg200
g196
sg202
S'13.181'
p393
sg204
g77
sg205
g206
sg207
S'10.6'
p394
sg209
F1495.0
sg210
S'8.67'
p395
sg212
g213
sg214
S'11.0'
p396
sg216
S'0.11'
p397
sg218
S'SAB(rs)bc;HII_Sbrst'
p398
sg220
S'9.89'
p399
sg222
S'B_(B_T^0)'
p400
sg224
S'213.2'
p401
sg226
g227
sg228
S'NGC4536'
p402
sg230
S'28.0'
p403
sg232
g233
sg234
S'11.2'
p404
sg236
g237
sg238
S'K_lga2mass_tot'
p405
sg240
S'K_lga2mass_tot'
p406
sg242
g49
sg243
g244
sg245
g33
sg246
S'2.83'
p407
sg248
S'3.3'
p408
sg250
S'.SXT4..'
p409
sg252
g253
sg254
S"['NGC4536', 'UGC07732', '2MASXJ12342712+0211163', 'SDSSJ123427.04+021117.2']"
p410
sg256
S'188.61271'
p411
sg258
S'1.8'
p412
sg260
S'2103'
p413
sg262
S'0.093'
p414
sg264
S'59'
p415
sg266
S'K_lga2mass_tot'
p416
sg268
S'21.0'
p417
sg270
g81
sg272
S'13.8'
p418
sg274
S'1808'
p419
sg276
S'410.0'
p420
sg278
g279
sg280
g384
sg281
S'0.0157'
p421
sg283
S'3.8'
p422
sg285
S'2.83'
p423
sg287
S'64.730132'
p424
sg289
S'455.15'
p425
sg291
F50.9
sg292
S'1.2'
p426
sg294
S'15.4'
p427
saa(lp428
(dp429
g125
S'31'
p430
sg127
S'12'
p431
sg129
S'-99.99'
p432
sg131
S'100002'
p433
sg133
F143.636
sg134
F50.099014750791255
sg135
S'71'
p434
sg137
S'0.003486'
p435
sg139
S'B_(B_T)'
p436
sg141
S'3.9'
p437
sg143
S'285.201512'
p438
sg145
S'B_(m_B)'
p439
sg147
S'14.9'
p440
sg149
S'12.506'
p441
sg151
S'Lya'
p442
sg153
S'2.4'
p443
sg155
S'11.947'
p444
sg157
S'18.94'
p445
sg159
S'32.5272'
p446
sg161
S'65'
p447
sg163
S'x'
p448
sg165
S'0.12'
p449
sg167
F0.15490468605143468
sg168
S'13.59'
p450
sg170
S'18.942'
p451
sg172
S'105.18'
p452
sg174
S'NGC4497'
p453
sg176
S'0.52'
p454
sg178
S'11.62472'
p455
sg180
S'28.992'
p456
sg182
S'-99.99'
p457
sg184
S'75'
p458
sg186
S'37'
p459
sg188
g448
sg190
S'11'
p460
sg191
S'0.3'
p461
sg193
S'57.5'
p462
sg195
S'20'
p463
sg197
F0.0002692265924263614
sg198
S'0.46'
p464
sg200
g201
sg202
S'13.215'
p465
sg204
g201
sg205
S'6.41E+12'
p466
sg207
S'13.2'
p467
sg209
F1046.0
sg210
S'-99.99'
p468
sg212
S'4.64E+13'
p469
sg214
S'2.8'
p470
sg216
S'0.2'
p471
sg218
S'SAB(s)0+:'
p472
sg220
S'13.2'
p473
sg222
S'B_(B_T^0)'
p474
sg224
S'56.24'
p475
sg226
S'176'
p476
sg228
S'NGC4497'
p477
sg230
S'-99.99'
p478
sg232
S'12.051944444444445'
p479
sg234
S'13.4'
p480
sg236
S'0.11612'
p481
sg238
S'K_2mass_tot'
p482
sg240
S'K_2mass_tot'
p483
sg242
g49
sg243
S'34.5'
p484
sg245
g34
sg246
S'1.89'
p485
sg248
S'0.15'
p486
sg250
S'.LXS+*.'
p487
sg252
S'187.80458333333334'
p488
sg254
S"['NGC4497', 'IC3452', 'UGC07665', '2MASXJ12313253+1137291', 'SDSSJ123132.52+113728.9']"
p489
sg256
S'187.88553'
p490
sg258
S'0.14'
p491
sg260
S'1345'
p492
sg262
S'0.093'
p493
sg264
S'68'
p494
sg266
S'K_2mass_tot'
p495
sg268
S'7.4'
p496
sg270
S'197'
p497
sg272
S'13.7'
p498
sg274
S'1045'
p499
sg276
S'148.0'
p500
sg278
g279
sg280
g454
sg281
S'0.0369'
p501
sg283
S'0.31'
p502
sg285
S'-99.99'
p503
sg287
S'73.807687'
p504
sg289
S'122.5'
p505
sg291
F85.5
sg292
S'0.25'
p506
sg294
S'5.165'
p507
sa(dp508
g125
S'31'
p509
sg127
S'12'
p510
sg129
S'-99.99'
p511
sg131
S'-99'
p512
sg133
F22.059
sg134
F4.134459937646028
sg135
S'50'
p513
sg137
S'0.002591'
p514
sg139
S'B_t'
p515
sg141
g437
sg143
S'284.766394'
p516
sg145
S'B_J_25'
p517
sg147
S'-99.99'
p518
sg149
S'16.371'
p519
sg151
g442
sg153
g443
sg155
S'16.007'
p520
sg157
S'15.16'
p521
sg159
S'33.3528'
p522
sg161
S'-99'
p523
sg163
g448
sg165
S'0.0018'
p524
sg167
F0.10587677862750439
sg168
S'2.576'
p525
sg170
S'15.168'
p526
sg172
S'33.39'
p527
sg174
S'PGC041458'
p528
sg176
S'0.22'
p529
sg178
S'12.06378'
p530
sg180
S'49.608'
p531
sg182
S'-99.99'
p532
sg184
S'154'
p533
sg186
g196
sg188
g448
sg190
S'12'
p534
sg191
S'0.0064'
p535
sg193
g462
sg195
g463
sg197
F7.104062631394904e-14
sg198
S'-99.99'
p536
sg200
g77
sg202
S'16.991'
p537
sg204
g201
sg205
g466
sg207
S'16.9'
p538
sg209
F1046.0
sg210
S'-99.99'
p539
sg212
g469
sg214
S'0.58'
p540
sg216
S'0.004'
p541
sg218
S'dE6,N'
p542
sg220
S'16.8'
p543
sg222
S'B_tot__(INT/WFC)'
p544
sg224
S'23.12'
p545
sg226
g476
sg228
S'VCC1369'
p546
sg230
S'-99.99'
p547
sg232
g479
sg234
S'17.4'
p548
sg236
g481
sg238
S'r_sdss_iso'
p549
sg240
S'r_sdss_iso'
p550
sg242
g49
sg243
g484
sg245
g34
sg246
S'1.51'
p551
sg248
S'0.0033'
p552
sg250
g448
sg252
g488
sg254
S"['SDSSJ123133.35+120349.5']"
p553
sg256
S'187.88897'
p554
sg258
S'0.0029'
p555
sg260
S'1077'
p556
sg262
S'0.0018'
p557
sg264
S'49'
p558
sg266
S'r_sdss_iso'
p559
sg268
S'0.35'
p560
sg270
S'-99'
p561
sg272
S'17.4'
p562
sg274
S'777'
p563
sg276
S'35.03'
p564
sg278
g279
sg280
g529
sg281
S'0.0242'
p565
sg283
S'0.0069'
p566
sg285
S'-99.99'
p567
sg287
S'74.230105'
p568
sg289
S'-99.99'
p569
sg291
F72.2
sg292
S'0.0039'
p570
sg294
S'1.7'
p571
sa(dp572
g125
S'30'
p573
sg127
S'12'
p574
sg129
S'-99.99'
p575
sg131
S'-99'
p576
sg133
F134.905
sg134
F72.76894534758628
sg135
S'12'
p577
sg137
S'0.0042'
p578
sg139
g448
sg141
g437
sg143
S'283.753686'
p579
sg145
g448
sg147
S'-99.99'
p580
sg149
S'11.752'
p581
sg151
g442
sg153
g443
sg155
S'10.94'
p582
sg157
S'21.95'
p583
sg159
S'47.5512'
p584
sg161
S'-99'
p585
sg163
g448
sg165
S'-99.99'
p586
sg167
F0.10013624810395332
sg168
S'17.43'
p587
sg170
S'21.957'
p588
sg172
S'124.88'
p589
sg174
S'SDSSJ123047.55+122318.1'
p590
sg176
S'1.9'
p591
sg178
S'12.38836'
p592
sg180
S'18.096'
p593
sg182
S'-99.99'
p594
sg184
S'5'
p595
sg186
S'23'
p596
sg188
g448
sg190
S'12'
p597
sg191
S'-99.99'
p598
sg193
g462
sg195
g463
sg197
F0.01034655632516298
sg198
S'-99.99'
p599
sg200
g196
sg202
S'12.544'
p600
sg204
g201
sg205
g466
sg207
S'-99.99'
p601
sg209
F1046.0
sg210
S'-99.99'
p602
sg212
g469
sg214
S'1.3'
p603
sg216
S'0.47'
p604
sg218
g448
sg220
S'-99.99'
p605
sg222
g448
sg224
S'160.5'
p606
sg226
g476
sg228
S'SDSSJ123047.55+122318.1'
p607
sg230
S'-99.99'
p608
sg232
g479
sg234
S'-99.99'
p609
sg236
g481
sg238
S'r_sdss_dev'
p610
sg240
S'r_sdss_pet'
p611
sg242
g49
sg243
g484
sg245
g34
sg246
S'2.19'
p612
sg248
S'-99.99'
p613
sg250
g448
sg252
g488
sg254
S"['SDSSJ123047.55+122318.1']"
p614
sg256
S'187.69813'
p615
sg258
S'-99.99'
p616
sg260
S'1559'
p617
sg262
S'0.22'
p618
sg264
S'12'
p619
sg266
S'r_sdss_dev'
p620
sg268
S'1.3'
p621
sg270
S'-99'
p622
sg272
S'13'
p623
sg274
S'1259'
p624
sg276
S'163.8'
p625
sg278
g279
sg280
g591
sg281
S'0.0196'
p626
sg283
S'-99.99'
p627
sg285
S'-99.99'
p628
sg287
S'74.486215'
p629
sg289
S'-99.99'
p630
sg291
F22.2
sg292
S'-99.99'
p631
sg294
S'17.08'
p632
sa(dp633
g125
S'30'
p634
sg127
S'12'
p635
sg129
S'16.8'
p636
sg131
S'-99'
p637
sg133
F29.438
sg134
F1.991688300663535
sg135
S'61'
p638
sg137
S'0.004183'
p639
sg139
S'B_J_25'
p640
sg141
g437
sg143
S'284.144051'
p641
sg145
S'B_t'
p642
sg147
S'-99.99'
p643
sg149
S'16.681'
p644
sg151
g442
sg153
g443
sg155
S'16.821'
p645
sg157
S'16.8'
p646
sg159
S'48.5208'
p647
sg161
S'-99'
p648
sg163
S'TFest'
p649
sg165
S'0.00049'
p650
sg167
F0.07399083536634846
sg168
S'1.583'
p651
sg170
S'21.886'
p652
sg172
S'23.86'
p653
sg174
S'PGC041360'
p654
sg176
S'0.057'
p655
sg178
S'12.04502'
p656
sg180
S'42.072'
p657
sg182
S'16.9'
p658
sg184
S'78'
p659
sg186
g201
sg188
g448
sg190
S'12'
p660
sg191
S'0.0031'
p661
sg193
g462
sg195
g463
sg197
F4.506852821624547e-96
sg198
S'0.51'
p662
sg200
g201
sg202
S'16.71'
p663
sg204
g201
sg205
g466
sg207
S'17.9'
p664
sg209
F1046.0
sg210
S'16.8'
p665
sg212
g469
sg214
S'0.63'
p666
sg216
S'0.0075'
p667
sg218
S'Blue_Compact_Dwarf'
p668
sg220
S'17.9'
p669
sg222
S'B_J_25'
p670
sg224
S'9.911'
p671
sg226
g476
sg228
S'VCC1313'
p672
sg230
S'17.0'
p673
sg232
g479
sg234
S'18'
p674
sg236
g481
sg238
S'r_sdss_iso'
p675
sg240
S'r_sdss_iso'
p676
sg242
g49
sg243
g484
sg245
g34
sg246
S'0.1'
p677
sg248
S'0.0003'
p678
sg250
S'       '
p679
sg252
g488
sg254
S"['SDSSJ123048.61+120242.8']"
p680
sg256
S'187.70217'
p681
sg258
S'0.0003'
p682
sg260
S'1554'
p683
sg262
S'0.00026'
p684
sg264
S'59'
p685
sg266
S'rc3_dr_25'
p686
sg268
S'0.27'
p687
sg270
S'-99'
p688
sg272
S'16.9'
p689
sg274
S'1254'
p690
sg276
S'19.43'
p691
sg278
g279
sg280
g655
sg281
S'0.0235'
p692
sg283
S'0.0031'
p693
sg285
S'0.1'
p694
sg287
S'74.159451'
p695
sg289
S'13.13'
p696
sg291
F8.0
sg292
S'0.0029'
p697
sg294
S'0.8073'
p698
sa(dp699
g125
S'30'
p700
sg127
S'12'
p701
sg129
S'17.1'
p702
sg131
S'100002'
p703
sg133
F67.818
sg134
F18.8386547290405
sg135
S'38'
p704
sg137
S'0.002528'
p705
sg139
S'B_T__(Johnson)'
p706
sg141
g437
sg143
S'284.03156'
p707
sg145
S'B_(HST)'
p708
sg147
S'14.9'
p709
sg149
S'12.217'
p710
sg151
g442
sg153
g443
sg155
S'11.078'
p711
sg157
S'17.1'
p712
sg159
S'57.7104'
p713
sg161
S'-99'
p714
sg163
S'GCLF'
p715
sg165
S'0.087'
p716
sg167
F0.04522842883697785
sg168
S'7.08'
p717
sg170
S'14.901'
p718
sg172
S'67.07'
p719
sg174
S'NGC4486A'
p720
sg176
S'0.46'
p721
sg178
S'12.27036'
p722
sg180
S'13.296'
p723
sg182
S'16.871'
p724
sg184
g595
sg186
S'16'
p725
sg188
g448
sg190
S'12'
p726
sg191
S'0.26'
p727
sg193
g462
sg195
g463
sg197
F2.9592559063604426e-07
sg198
S'-99.99'
p728
sg200
g595
sg202
S'12.85'
p729
sg204
g201
sg205
g466
sg207
S'13.1'
p730
sg209
F1046.0
sg210
S'15.0'
p731
sg212
g469
sg214
S'3.4'
p732
sg216
S'0.23'
p733
sg218
S'E2'
p734
sg220
S'13.1'
p735
sg222
S'B_T__(Johnson)'
p736
sg224
S'68.32'
p737
sg226
g476
sg228
S'NGC4486A'
p738
sg230
S'18.4'
p739
sg232
g479
sg234
S'13.3'
p740
sg236
g481
sg238
S'K_2mass_tot'
p741
sg240
S'K_2mass_tot'
p742
sg242
g49
sg243
g484
sg245
g34
sg246
S'1.39'
p743
sg248
S'0.099'
p744
sg250
g448
sg252
g488
sg254
S"['NGC4486A', 'UGC07658', '2MASXJ12305772+1216132', 'SDSSJ123057.71+121613.2']"
p745
sg256
S'187.74046'
p746
sg258
S'0.099'
p747
sg260
S'1058'
p748
sg262
S'0.085'
p749
sg264
S'37'
p750
sg266
S'K_2mass_tot'
p751
sg268
S'4.3'
p752
sg270
S'197'
p753
sg272
S'13.3'
p754
sg274
S'758'
p755
sg276
S'85.4'
p756
sg278
g279
sg280
g721
sg281
S'0.0202'
p757
sg283
S'0.26'
p758
sg285
S'1.394'
p759
sg287
S'74.385832'
p760
sg289
S'-99.99'
p761
sg291
F21.0
sg292
S'0.23'
p762
sg294
S'5.664'
p763
saa(lp764
(dp765
g125
S'30'
p766
sg127
S'12'
p767
sg129
S'-99.99'
p768
sg131
S'-99'
p769
sg133
F134.905
sg134
F72.76894534758628
sg135
S'12'
p770
sg137
S'0.0042'
p771
sg139
g448
sg141
S'2.4'
p772
sg143
S'283.753686'
p773
sg145
g448
sg147
S'-99.99'
p774
sg149
S'11.752'
p775
sg151
S'Lya'
p776
sg153
S'1.4'
p777
sg155
S'10.94'
p778
sg157
S'21.95'
p779
sg159
S'47.5512'
p780
sg161
S'-99'
p781
sg163
g448
sg165
S'-99.99'
p782
sg167
F0.3056778408534248
sg168
S'17.43'
p783
sg170
S'21.957'
p784
sg172
S'124.88'
p785
sg174
S'SDSSJ123047.55+122318.1'
p786
sg176
S'1.9'
p787
sg178
S'12.38836'
p788
sg180
S'18.096'
p789
sg182
S'-99.99'
p790
sg184
g595
sg186
S'23'
p791
sg188
g448
sg190
S'12'
p792
sg191
S'-99.99'
p793
sg193
S'94.4'
p794
sg195
S'16'
p795
sg197
F0.031584097243796204
sg198
S'-99.99'
p796
sg200
g196
sg202
S'12.544'
p797
sg204
g201
sg205
S'2.84E+13'
p798
sg207
S'-99.99'
p799
sg209
F1286.0
sg210
S'-99.99'
p800
sg212
S'2.35E+14'
p801
sg214
S'1.3'
p802
sg216
S'0.47'
p803
sg218
g448
sg220
S'-99.99'
p804
sg222
g448
sg224
S'160.5'
p805
sg226
S'525'
p806
sg228
S'SDSSJ123047.55+122318.1'
p807
sg230
S'-99.99'
p808
sg232
S'12.051944444444445'
p809
sg234
S'-99.99'
p810
sg236
S'0.11612'
p811
sg238
S'r_sdss_dev'
p812
sg240
S'r_sdss_pet'
p813
sg242
g49
sg243
S'56.7'
p814
sg245
g35
sg246
S'2.19'
p815
sg248
S'-99.99'
p816
sg250
g448
sg252
S'187.80458333333334'
p817
sg254
S"['SDSSJ123047.55+122318.1']"
p818
sg256
S'187.69813'
p819
sg258
S'-99.99'
p820
sg260
S'1559'
p821
sg262
S'0.22'
p822
sg264
S'12'
p823
sg266
S'r_sdss_dev'
p824
sg268
S'1.3'
p825
sg270
S'-99'
p826
sg272
S'13'
p827
sg274
S'1259'
p828
sg276
S'163.8'
p829
sg278
g279
sg280
g787
sg281
S'0.0196'
p830
sg283
S'-99.99'
p831
sg285
S'-99.99'
p832
sg287
S'74.486215'
p833
sg289
S'-99.99'
p834
sg291
F22.2
sg292
S'-99.99'
p835
sg294
S'17.08'
p836
sa(dp837
g125
S'30'
p838
sg127
S'12'
p839
sg129
S'16.8'
p840
sg131
S'-99'
p841
sg133
F29.438
sg134
F1.991688300663535
sg135
S'61'
p842
sg137
S'0.004183'
p843
sg139
S'B_J_25'
p844
sg141
g772
sg143
S'284.144051'
p845
sg145
S'B_t'
p846
sg147
S'-99.99'
p847
sg149
S'16.681'
p848
sg151
g776
sg153
g777
sg155
S'16.821'
p849
sg157
S'16.8'
p850
sg159
S'48.5208'
p851
sg161
S'-99'
p852
sg163
S'TFest'
p853
sg165
S'0.00049'
p854
sg167
F0.21271244691469227
sg168
S'1.583'
p855
sg170
S'21.886'
p856
sg172
S'23.86'
p857
sg174
S'PGC041360'
p858
sg176
S'0.057'
p859
sg178
S'12.04502'
p860
sg180
S'42.072'
p861
sg182
S'16.9'
p862
sg184
S'78'
p863
sg186
g201
sg188
g448
sg190
S'12'
p864
sg191
S'0.0031'
p865
sg193
g794
sg195
g795
sg197
F1.2956519369264337e-95
sg198
S'0.51'
p866
sg200
g201
sg202
S'16.71'
p867
sg204
g201
sg205
g798
sg207
S'17.9'
p868
sg209
F1286.0
sg210
S'16.8'
p869
sg212
g801
sg214
S'0.63'
p870
sg216
S'0.0075'
p871
sg218
S'Blue_Compact_Dwarf'
p872
sg220
S'17.9'
p873
sg222
S'B_J_25'
p874
sg224
S'9.911'
p875
sg226
g806
sg228
S'VCC1313'
p876
sg230
S'17.0'
p877
sg232
g809
sg234
S'18'
p878
sg236
g811
sg238
S'r_sdss_iso'
p879
sg240
S'r_sdss_iso'
p880
sg242
g49
sg243
g814
sg245
g35
sg246
S'0.1'
p881
sg248
S'0.0003'
p882
sg250
S'       '
p883
sg252
g817
sg254
S"['SDSSJ123048.61+120242.8']"
p884
sg256
S'187.70217'
p885
sg258
S'0.0003'
p886
sg260
S'1554'
p887
sg262
S'0.00026'
p888
sg264
S'59'
p889
sg266
S'rc3_dr_25'
p890
sg268
S'0.27'
p891
sg270
S'-99'
p892
sg272
S'16.9'
p893
sg274
S'1254'
p894
sg276
S'19.43'
p895
sg278
g279
sg280
g859
sg281
S'0.0235'
p896
sg283
S'0.0031'
p897
sg285
S'0.1'
p898
sg287
S'74.159451'
p899
sg289
S'13.13'
p900
sg291
F8.0
sg292
S'0.0029'
p901
sg294
S'0.8073'
p902
sa(dp903
g125
S'30'
p904
sg127
S'12'
p905
sg129
S'16.4'
p906
sg131
S'100002'
p907
sg133
F102.384
sg134
F30.173112234040428
sg135
S'36'
p908
sg137
S'0.0045'
p909
sg139
S'B_(m_B)'
p910
sg141
g772
sg143
S'283.385189'
p911
sg145
S'B_(B_T)'
p912
sg147
S'14.9'
p913
sg149
S'14.046'
p914
sg151
g776
sg153
g777
sg155
S'13.373'
p915
sg157
S'16.4'
p916
sg159
S'17.4168'
p917
sg161
S'140'
p918
sg163
S'SBF'
p919
sg165
S'0.37'
p920
sg167
F0.19990541991855112
sg168
S'9.692'
p921
sg170
S'23.225'
p922
sg172
S'83.3'
p923
sg174
S'NGC4478'
p924
sg176
S'1.3'
p925
sg178
S'12.32855'
p926
sg180
S'42.78'
p927
sg182
S'16.11'
p928
sg184
S'140'
p929
sg186
S'19'
p930
sg188
g448
sg190
S'12'
p931
sg191
S'0.55'
p932
sg193
g794
sg195
g795
sg197
F9.046205293878549e-06
sg198
S'0.85'
p933
sg200
S'6'
p934
sg202
S'14.873'
p935
sg204
g201
sg205
g798
sg207
S'12.2'
p936
sg209
F1286.0
sg210
S'8.87'
p937
sg212
g801
sg214
S'5.0'
p938
sg216
S'0.03'
p939
sg218
S'E2'
p940
sg220
S'12.2'
p941
sg222
S'B_(HST)'
p942
sg224
S'99.96'
p943
sg226
g806
sg228
S'NGC4478'
p944
sg230
S'23.3'
p945
sg232
g809
sg234
S'12.4'
p946
sg236
g811
sg238
S'K_2mass_tot'
p947
sg240
S'K_2mass_tot'
p948
sg242
g49
sg243
g814
sg245
g35
sg246
S'2.74'
p949
sg248
S'0.44'
p950
sg250
S'.E.2...'
p951
sg252
g817
sg254
S"['NGC4478', 'UGC07645', '2MASXJ12301743+1219428', 'SDSSJ123017.41+121942.7']"
p952
sg256
S'187.57257'
p953
sg258
S'0.43'
p954
sg260
S'1649'
p955
sg262
S'0.023'
p956
sg264
S'35'
p957
sg266
S'K_2mass_tot'
p958
sg268
S'6.1'
p959
sg270
S'197'
p960
sg272
S'15.4'
p961
sg274
S'1349'
p962
sg276
S'121.9'
p963
sg278
g279
sg280
g925
sg281
S'0.0207'
p964
sg283
S'0.57'
p965
sg285
S'2.74'
p966
sg287
S'74.392153'
p967
sg289
S'114.33'
p968
sg291
F0.6
sg292
S'0.48'
p969
sg294
S'7.948'
p970
saa(lp971
(dp972
g125
S'36'
p973
sg127
S'12'
p974
sg129
S'-99.99'
p975
sg131
S'-99'
p976
sg133
F131.386
sg134
F25.599397118994816
sg135
S'45'
p977
sg137
S'0.024591'
p978
sg139
g448
sg141
g595
sg143
S'218.322536'
p979
sg145
g448
sg147
S'-99.99'
p980
sg149
S'16.007'
p981
sg151
S'Lya'
p982
sg153
g196
sg155
S'15.395'
p983
sg157
S'107.93'
p984
sg159
S'12.2616'
p985
sg161
S'-99'
p986
sg163
g448
sg165
S'-99.99'
p987
sg167
F0.031770762648058115
sg168
S'8.686'
p988
sg170
S'107.931'
p989
sg172
S'77.23'
p990
sg174
S'IC3565'
p991
sg176
S'0.63'
p992
sg178
S'26.75612'
p993
sg180
S'22.032'
p994
sg182
S'-99.99'
p995
sg184
S'25'
p996
sg186
S'45'
p997
sg188
g448
sg190
S'26'
p998
sg191
S'-99.99'
p999
sg193
S'34.6'
p1000
sg195
S'9'
p1001
sg197
F2.084658396859238e-12
sg198
S'-99.99'
p1002
sg200
g81
sg202
S'16.711'
p1003
sg204
g77
sg205
S'2.01E+12'
p1004
sg207
S'-99.99'
p1005
sg209
F7223.0
sg210
S'-99.99'
p1006
sg212
S'1.07E+13'
p1007
sg214
S'0.6'
p1008
sg216
S'0.25'
p1009
sg218
g448
sg220
S'-99.99'
p1010
sg222
g448
sg224
S'11.95'
p1011
sg226
S'51'
p1012
sg228
S'IC3565'
p1013
sg230
S'-99.99'
p1014
sg232
S'26.693333333333335'
p1015
sg234
S'-99.99'
p1016
sg236
S'0.20915'
p1017
sg238
S'K_2mass_tot'
p1018
sg240
S'K_2mass_tot'
p1019
sg242
g49
sg243
S'20.8'
p1020
sg245
g36
sg246
S'10.79'
p1021
sg248
S'-99.99'
p1022
sg250
g448
sg252
S'189.01708333333332'
p1023
sg254
S"['IC3565', '2MASXJ12361227+2645221', 'SDSSJ123612.26+264521.9']"
p1024
sg256
S'189.05109'
p1025
sg258
S'-99.99'
p1026
sg260
S'7663'
p1027
sg262
S'0.12'
p1028
sg264
S'44'
p1029
sg266
S'r_sdss_iso'
p1030
sg268
S'0.83'
p1031
sg270
S'-99'
p1032
sg272
S'17.2'
p1033
sg274
S'7372'
p1034
sg276
S'16.6'
p1035
sg278
g279
sg280
g992
sg281
S'0.0172'
p1036
sg283
S'-99.99'
p1037
sg285
S'-99.99'
p1038
sg287
S'86.58476'
p1039
sg289
S'-99.99'
p1040
sg291
F0.8
sg292
S'-99.99'
p1041
sg294
S'6.254'
p1042
sa(dp1043
g125
S'36'
p1044
sg127
S'12'
p1045
sg129
S'-99.99'
p1046
sg131
S'-99'
p1047
sg133
F177.718
sg134
F130.05851860989347
sg135
S'77'
p1048
sg137
S'0.025151'
p1049
sg139
g448
sg141
g595
sg143
S'217.76268'
p1050
sg145
g448
sg147
S'-99.99'
p1051
sg149
S'-99.99'
p1052
sg151
g982
sg153
g196
sg155
S'-99.99'
p1053
sg157
S'110.29'
p1054
sg159
S'2.2104'
p1055
sg161
S'-99'
p1056
sg163
g448
sg165
S'-99.99'
p1057
sg167
F0.024742850860609622
sg168
S'25.67'
p1058
sg170
S'110.297'
p1059
sg172
S'163.12'
p1060
sg174
S'2MFGC09922'
p1061
sg176
S'0.77'
p1062
sg178
S'26.78539'
p1063
sg180
S'7.404'
p1064
sg182
S'-99.99'
p1065
sg184
S'25'
p1066
sg186
S'47'
p1067
sg188
g448
sg190
S'26'
p1068
sg191
S'-99.99'
p1069
sg193
g1000
sg195
g1001
sg197
F0.01253286507834713
sg198
S'-99.99'
p1070
sg200
g77
sg202
S'-99.99'
p1071
sg204
g77
sg205
g1004
sg207
S'-99.99'
p1072
sg209
F7223.0
sg210
S'-99.99'
p1073
sg212
g1007
sg214
S'0.72'
p1074
sg216
S'-99.99'
p1075
sg218
g448
sg220
S'-99.99'
p1076
sg222
g448
sg224
S'14.4'
p1077
sg226
g1012
sg228
S'2MFGC09922'
p1078
sg230
S'-99.99'
p1079
sg232
g1015
sg234
S'-99.99'
p1080
sg236
g1017
sg238
S'K_2mass_tot'
p1081
sg240
S'K_2mass_tot'
p1082
sg242
g49
sg243
g1020
sg245
g36
sg246
S'11.02'
p1083
sg248
S'-99.99'
p1084
sg250
g448
sg252
g1023
sg254
S"['2MASXJ12360219+2647071', 'SDSSJ123602.20+264707.3']"
p1085
sg256
S'189.00921'
p1086
sg258
S'-99.99'
p1087
sg260
S'7831'
p1088
sg262
S'-99.99'
p1089
sg264
S'73'
p1090
sg266
S'K_2mass_tot'
p1091
sg268
S'2.4'
p1092
sg270
S'-99'
p1093
sg272
S'-99.99'
p1094
sg274
S'7540'
p1095
sg276
S'48.0'
p1096
sg278
g279
sg280
g1062
sg281
S'0.0163'
p1097
sg283
S'-99.99'
p1098
sg285
S'-99.99'
p1099
sg287
S'86.551124'
p1100
sg289
S'-99.99'
p1101
sg291
F29.4
sg292
S'-99.99'
p1102
sg294
S'7.7'
p1103
sa(dp1104
g125
S'35'
p1105
sg127
S'12'
p1106
sg129
S'110.0'
p1107
sg131
S'100082'
p1108
sg133
F433.857
sg134
F404.11450691109815
sg135
S'47'
p1109
sg137
S'0.024987'
p1110
sg139
S'B_(m_B^0)'
p1111
sg141
g595
sg143
S'215.636722'
p1112
sg145
S'B_(Johnson)'
p1113
sg147
S'76.7'
p1114
sg149
S'12.94'
p1115
sg151
g982
sg153
g196
sg155
S'12.294'
p1116
sg157
S'110'
p1117
sg159
S'45.8568'
p1118
sg161
S'80'
p1119
sg163
S'TF'
p1120
sg165
S'0.64'
p1121
sg167
F0.013724070411467367
sg168
S'54.66'
p1122
sg170
S'109.605'
p1123
sg172
S'274.78'
p1124
sg174
S'NGC4556'
p1125
sg176
S'1.7'
p1126
sg178
S'26.90889'
p1127
sg180
S'32.004'
p1128
sg182
S'108.667'
p1129
sg184
S'70'
p1130
sg186
S'54'
p1131
sg188
g448
sg190
S'26'
p1132
sg191
S'4.4'
p1133
sg193
g1000
sg195
g1001
sg197
F0.05243320621074266
sg198
S'0.83'
p1134
sg200
g81
sg202
S'13.747'
p1135
sg204
g77
sg205
g1004
sg207
S'14.1'
p1136
sg209
F7223.0
sg210
S'102.0'
p1137
sg212
g1007
sg214
S'3.6'
p1138
sg216
S'3.8'
p1139
sg218
S'E+:'
p1140
sg220
S'13.9'
p1141
sg222
S'B_(m_B)'
p1142
sg224
S'71.75'
p1143
sg226
g1012
sg228
S'NGC4556'
p1144
sg230
S'114.0'
p1145
sg232
g1015
sg234
S'14.6'
p1146
sg236
g1017
sg238
S'K_2mass_tot'
p1147
sg240
S'K_2mass_tot'
p1148
sg242
g49
sg243
g1020
sg245
g36
sg246
S'4.98'
p1149
sg248
S'1.0'
p1150
sg250
S'.E+..*.'
p1151
sg252
g1023
sg254
S"['NGC4556', 'UGC07765', '2MASXJ12354585+2654317', 'SDSSJ123545.85+265431.9']"
p1152
sg256
S'188.94107'
p1153
sg258
S'1.1'
p1154
sg260
S'7782'
p1155
sg262
S'0.8'
p1156
sg264
S'46'
p1157
sg266
S'K_2mass_tot'
p1158
sg268
S'5.1'
p1159
sg270
S'12'
p1160
sg272
S'14.2'
p1161
sg274
S'7491'
p1162
sg276
S'102.5'
p1163
sg278
g279
sg280
g1126
sg281
S'0.0151'
p1164
sg283
S'5.0'
p1165
sg285
S'4.989'
p1166
sg287
S'86.502512'
p1167
sg289
S'72.14'
p1168
sg291
F87.5
sg292
S'2.7'
p1169
sg294
S'38.26'
p1170
saa(lp1171
(dp1172
g125
S'52'
p1173
sg127
S'10'
p1174
sg129
S'-99.99'
p1175
sg131
S'-99'
p1176
sg133
F21.742
sg134
F25.119044488853472
sg135
S'66'
p1177
sg137
S'0.001947'
p1178
sg139
g448
sg141
S'6.1'
p1179
sg143
S'184.751984'
p1180
sg145
g448
sg147
S'-99.99'
p1181
sg149
S'12.132'
p1182
sg151
S'Lya'
p1183
sg153
S'3.7'
p1184
sg155
S'11.796'
p1185
sg157
S'11.81'
p1186
sg159
S'33.1392'
p1187
sg161
S'-99'
p1188
sg163
g448
sg165
S'-99.99'
p1189
sg167
F0.9166328354925924
sg168
S'8.577'
p1190
sg170
S'11.817'
p1191
sg172
S'76.56'
p1192
sg174
S'SDSSJ105233.13+363736.7'
p1193
sg176
S'0.44'
p1194
sg178
S'36.62689'
p1195
sg180
S'36.804'
p1196
sg182
S'-99.99'
p1197
sg184
S'41'
p1198
sg186
S'37'
p1199
sg188
g448
sg190
S'36'
p1200
sg191
S'-99.99'
p1201
sg193
S'106.8'
p1202
sg195
S'25'
p1203
sg197
F0.4697327576425702
sg198
S'-99.99'
p1204
sg200
g49
sg202
S'13.064'
p1205
sg204
g77
sg205
S'4.25E+13'
p1206
sg207
S'-99.99'
p1207
sg209
F600.0
sg210
S'-99.99'
p1208
sg212
S'2.62E+14'
p1209
sg214
S'0.98'
p1210
sg216
S'0.079'
p1211
sg218
S'WR?_HII'
p1212
sg220
S'-99.99'
p1213
sg222
g448
sg224
S'65.87'
p1214
sg226
S'568'
p1215
sg228
S'SDSSJ105233.13+363736.7'
p1216
sg230
S'-99.99'
p1217
sg232
S'36.67777777777778'
p1218
sg234
S'-99.99'
p1219
sg236
S'0.60999'
p1220
sg238
S'r_sdss_iso'
p1221
sg240
S'r_sdss_iso'
p1222
sg242
g49
sg243
S'64.1'
p1223
sg245
g37
sg246
S'1.18'
p1224
sg248
S'-99.99'
p1225
sg250
g448
sg252
S'163.02291666666667'
p1226
sg254
S"['SDSSJ105233.13+363736.7']"
p1227
sg256
S'163.13808'
p1228
sg258
S'-99.99'
p1229
sg260
S'839'
p1230
sg262
S'0.036'
p1231
sg264
S'64'
p1232
sg266
S'r_sdss_iso'
p1233
sg268
S'0.95'
p1234
sg270
S'-99'
p1235
sg272
S'13.6'
p1236
sg274
S'584'
p1237
sg276
S'149.7'
p1238
sg278
g279
sg280
g1194
sg281
S'0.011'
p1239
sg283
S'-99.99'
p1240
sg285
S'-99.99'
p1241
sg287
S'63.167249'
p1242
sg289
S'-99.99'
p1243
sg291
F77.9
sg292
S'-99.99'
p1244
sg294
S'3.774'
p1245
sa(dp1246
g125
S'52'
p1247
sg127
S'10'
p1248
sg129
S'-99.99'
p1249
sg131
S'-99'
p1250
sg133
F22.037
sg134
F14.42223381189613
sg135
S'70'
p1251
sg137
S'0.001671'
p1252
sg139
g448
sg141
g1179
sg143
S'184.657548'
p1253
sg145
g448
sg147
S'-99.99'
p1254
sg149
S'15.698'
p1255
sg151
g1183
sg153
g1184
sg155
S'18.915'
p1256
sg157
S'10.64'
p1257
sg159
S'40.8'
p1258
sg161
S'-99'
p1259
sg163
g448
sg165
S'-99.99'
p1260
sg167
F0.6817590163539798
sg168
S'5.925'
p1261
sg170
S'10.648'
p1262
sg172
S'59.31'
p1263
sg174
S'SDSSJ105240.79+363953.7'
p1264
sg176
S'0.38'
p1265
sg178
S'36.66494'
p1266
sg180
S'53.784'
p1267
sg182
S'-99.99'
p1268
sg184
S'42'
p1269
sg186
S'39'
p1270
sg188
g448
sg190
S'36'
p1271
sg191
S'-99.99'
p1272
sg193
g1202
sg195
g1203
sg197
F0.07579126077112487
sg198
S'-99.99'
p1273
sg200
g77
sg202
S'15.611'
p1274
sg204
g77
sg205
g1206
sg207
S'-99.99'
p1275
sg209
F600.0
sg210
S'-99.99'
p1276
sg212
g1209
sg214
S'2.6'
p1277
sg216
S'0.0082'
p1278
sg218
g448
sg220
S'-99.99'
p1279
sg222
g448
sg224
S'44.76'
p1280
sg226
g1215
sg228
S'SDSSJ105240.79+363953.7'
p1281
sg230
S'-99.99'
p1282
sg232
g1218
sg234
S'-99.99'
p1283
sg236
g1220
sg238
S'r_sdss_iso'
p1284
sg240
S'r_sdss_pet'
p1285
sg242
g49
sg243
g1223
sg245
g37
sg246
S'1.06'
p1286
sg248
S'-99.99'
p1287
sg250
g448
sg252
g1226
sg254
S"['SDSSJ105240.79+363953.7']"
p1288
sg256
S'163.17'
p1289
sg258
S'-99.99'
p1290
sg260
S'756'
p1291
sg262
S'0.0038'
p1292
sg264
S'67'
p1293
sg266
S'r_sdss_iso'
p1294
sg268
S'0.96'
p1295
sg270
S'-99'
p1296
sg272
S'15.8'
p1297
sg274
S'501'
p1298
sg276
S'114.8'
p1299
sg278
g279
sg280
g1265
sg281
S'0.011'
p1300
sg283
S'-99.99'
p1301
sg285
S'-99.99'
p1302
sg287
S'63.184219'
p1303
sg289
S'-99.99'
p1304
sg291
F54.2
sg292
S'-99.99'
p1305
sg294
S'2.311'
p1306
sa(dp1307
g125
S'52'
p1308
sg127
S'10'
p1309
sg129
S'-99.99'
p1310
sg131
S'-99'
p1311
sg133
F22.9
sg134
F13.191720520349119
sg135
S'35'
p1312
sg137
S'0.002552'
p1313
sg139
g448
sg141
g1179
sg143
S'184.847516'
p1314
sg145
g448
sg147
S'-99.99'
p1315
sg149
S'15.532'
p1316
sg151
g1183
sg153
g1184
sg155
S'15.837'
p1317
sg157
S'14.36'
p1318
sg159
S'16.7496'
p1319
sg161
S'-99'
p1320
sg163
g448
sg165
S'-99.99'
p1321
sg167
F0.4306632764541731
sg168
S'5.583'
p1322
sg170
S'14.366'
p1323
sg172
S'56.93'
p1324
sg174
S'UGC05983'
p1325
sg176
S'0.75'
p1326
sg178
S'36.59451'
p1327
sg180
S'40.236'
p1328
sg182
S'-99.99'
p1329
sg184
S'96'
p1330
sg186
S'35'
p1331
sg188
g448
sg190
S'36'
p1332
sg191
S'-99.99'
p1333
sg193
g1202
sg195
g1203
sg197
F0.02486974218211488
sg198
S'-99.99'
p1334
sg200
g595
sg202
S'15.79'
p1335
sg204
g77
sg205
g1206
sg207
S'-99.99'
p1336
sg209
F600.0
sg210
S'-99.99'
p1337
sg212
g1209
sg214
S'3.8'
p1338
sg216
S'0.011'
p1339
sg218
S'DWARF'
p1340
sg220
S'-99.99'
p1341
sg222
g448
sg224
S'66.54'
p1342
sg226
g1215
sg228
S'UGC05983'
p1343
sg230
S'-99.99'
p1344
sg232
g1218
sg234
S'-99.99'
p1345
sg236
g1220
sg238
S'r_sdss_iso'
p1346
sg240
S'poss_103a-O'
p1347
sg242
g49
sg243
g1223
sg245
g37
sg246
S'1.43'
p1348
sg248
S'-99.99'
p1349
sg250
g448
sg252
g1226
sg254
S"['UGC05983', 'SDSSJ105216.74+363540.2']"
p1350
sg256
S'163.06979'
p1351
sg258
S'-99.99'
p1352
sg260
S'1020'
p1353
sg262
S'0.0053'
p1354
sg264
S'34'
p1355
sg266
S'poss_103a-O'
p1356
sg268
S'0.87'
p1357
sg270
S'-99'
p1358
sg272
S'16.1'
p1359
sg274
S'765'
p1360
sg276
S'80.16'
p1361
sg278
g279
sg280
g1326
sg281
S'0.011'
p1362
sg283
S'-99.99'
p1363
sg285
S'-99.99'
p1364
sg287
S'63.12044'
p1365
sg289
S'-99.99'
p1366
sg291
F59.7
sg292
S'-99.99'
p1367
sg294
S'4.634'
p1368
saa(lp1369
(dp1370
g125
S'52'
p1371
sg127
S'10'
p1372
sg129
S'-99.99'
p1373
sg131
S'-99'
p1374
sg133
F21.742
sg134
F25.119044488853472
sg135
S'66'
p1375
sg137
S'0.001947'
p1376
sg139
g448
sg141
S'6.5'
p1377
sg143
S'184.751984'
p1378
sg145
g448
sg147
S'-99.99'
p1379
sg149
S'12.132'
p1380
sg151
S'Lya'
p1381
sg153
S'3.9'
p1382
sg155
S'11.796'
p1383
sg157
S'11.81'
p1384
sg159
S'33.1392'
p1385
sg161
S'-99'
p1386
sg163
g448
sg165
S'-99.99'
p1387
sg167
F0.7923529960293945
sg168
S'8.577'
p1388
sg170
S'11.817'
p1389
sg172
S'76.56'
p1390
sg174
S'SDSSJ105233.13+363736.7'
p1391
sg176
S'0.44'
p1392
sg178
S'36.62689'
p1393
sg180
S'36.804'
p1394
sg182
S'-99.99'
p1395
sg184
S'41'
p1396
sg186
S'37'
p1397
sg188
g448
sg190
S'36'
p1398
sg191
S'-99.99'
p1399
sg193
S'129'
p1400
sg195
S'30'
p1401
sg197
F0.4060449761776484
sg198
S'-99.99'
p1402
sg200
g49
sg202
S'13.064'
p1403
sg204
S'7'
p1404
sg205
S'4.33E+13'
p1405
sg207
S'-99.99'
p1406
sg209
F662.0
sg210
S'-99.99'
p1407
sg212
S'2.62E+14'
p1408
sg214
S'0.98'
p1409
sg216
S'0.079'
p1410
sg218
S'WR?_HII'
p1411
sg220
S'-99.99'
p1412
sg222
g448
sg224
S'65.87'
p1413
sg226
S'585'
p1414
sg228
S'SDSSJ105233.13+363736.7'
p1415
sg230
S'-99.99'
p1416
sg232
S'36.67777777777778'
p1417
sg234
S'-99.99'
p1418
sg236
S'0.60999'
p1419
sg238
S'r_sdss_iso'
p1420
sg240
S'r_sdss_iso'
p1421
sg242
g49
sg243
S'77.5'
p1422
sg245
g38
sg246
S'1.18'
p1423
sg248
S'-99.99'
p1424
sg250
g448
sg252
S'163.02291666666667'
p1425
sg254
S"['SDSSJ105233.13+363736.7']"
p1426
sg256
S'163.13808'
p1427
sg258
S'-99.99'
p1428
sg260
S'839'
p1429
sg262
S'0.036'
p1430
sg264
S'64'
p1431
sg266
S'r_sdss_iso'
p1432
sg268
S'0.95'
p1433
sg270
S'-99'
p1434
sg272
S'13.6'
p1435
sg274
S'584'
p1436
sg276
S'149.7'
p1437
sg278
g279
sg280
g1392
sg281
S'0.011'
p1438
sg283
S'-99.99'
p1439
sg285
S'-99.99'
p1440
sg287
S'63.167249'
p1441
sg289
S'-99.99'
p1442
sg291
F77.9
sg292
S'-99.99'
p1443
sg294
S'3.774'
p1444
sa(dp1445
g125
S'52'
p1446
sg127
S'10'
p1447
sg129
S'-99.99'
p1448
sg131
S'-99'
p1449
sg133
F22.9
sg134
F13.191720520349119
sg135
S'35'
p1450
sg137
S'0.002552'
p1451
sg139
g448
sg141
g1377
sg143
S'184.847516'
p1452
sg145
g448
sg147
S'-99.99'
p1453
sg149
S'15.532'
p1454
sg151
g1381
sg153
g1382
sg155
S'15.837'
p1455
sg157
S'14.36'
p1456
sg159
S'16.7496'
p1457
sg161
S'-99'
p1458
sg163
g448
sg165
S'-99.99'
p1459
sg167
F0.652444790680418
sg168
S'5.583'
p1460
sg170
S'14.366'
p1461
sg172
S'56.93'
p1462
sg174
S'UGC05983'
p1463
sg176
S'0.75'
p1464
sg178
S'36.59451'
p1465
sg180
S'40.236'
p1466
sg182
S'-99.99'
p1467
sg184
S'96'
p1468
sg186
S'35'
p1469
sg188
g448
sg190
S'36'
p1470
sg191
S'-99.99'
p1471
sg193
g1400
sg195
g1401
sg197
F0.0376770777064678
sg198
S'-99.99'
p1472
sg200
g595
sg202
S'15.79'
p1473
sg204
g1404
sg205
g1405
sg207
S'-99.99'
p1474
sg209
F662.0
sg210
S'-99.99'
p1475
sg212
g1408
sg214
S'3.8'
p1476
sg216
S'0.011'
p1477
sg218
S'DWARF'
p1478
sg220
S'-99.99'
p1479
sg222
g448
sg224
S'66.54'
p1480
sg226
g1414
sg228
S'UGC05983'
p1481
sg230
S'-99.99'
p1482
sg232
g1417
sg234
S'-99.99'
p1483
sg236
g1419
sg238
S'r_sdss_iso'
p1484
sg240
S'poss_103a-O'
p1485
sg242
g49
sg243
g1422
sg245
g38
sg246
S'1.43'
p1486
sg248
S'-99.99'
p1487
sg250
g448
sg252
g1425
sg254
S"['UGC05983', 'SDSSJ105216.74+363540.2']"
p1488
sg256
S'163.06979'
p1489
sg258
S'-99.99'
p1490
sg260
S'1020'
p1491
sg262
S'0.0053'
p1492
sg264
S'34'
p1493
sg266
S'poss_103a-O'
p1494
sg268
S'0.87'
p1495
sg270
S'-99'
p1496
sg272
S'16.1'
p1497
sg274
S'765'
p1498
sg276
S'80.16'
p1499
sg278
g279
sg280
g1464
sg281
S'0.011'
p1500
sg283
S'-99.99'
p1501
sg285
S'-99.99'
p1502
sg287
S'63.12044'
p1503
sg289
S'-99.99'
p1504
sg291
F59.7
sg292
S'-99.99'
p1505
sg294
S'4.634'
p1506
sa(dp1507
g125
S'52'
p1508
sg127
S'10'
p1509
sg129
S'-99.99'
p1510
sg131
S'-99'
p1511
sg133
F22.037
sg134
F14.42223381189613
sg135
S'70'
p1512
sg137
S'0.001671'
p1513
sg139
g448
sg141
g1377
sg143
S'184.657548'
p1514
sg145
g448
sg147
S'-99.99'
p1515
sg149
S'15.698'
p1516
sg151
g1381
sg153
g1382
sg155
S'18.915'
p1517
sg157
S'10.64'
p1518
sg159
S'40.8'
p1519
sg161
S'-99'
p1520
sg163
g448
sg165
S'-99.99'
p1521
sg167
F0.4556277994522937
sg168
S'5.925'
p1522
sg170
S'10.648'
p1523
sg172
S'59.31'
p1524
sg174
S'SDSSJ105240.79+363953.7'
p1525
sg176
S'0.38'
p1526
sg178
S'36.66494'
p1527
sg180
S'53.784'
p1528
sg182
S'-99.99'
p1529
sg184
S'42'
p1530
sg186
S'39'
p1531
sg188
g448
sg190
S'36'
p1532
sg191
S'-99.99'
p1533
sg193
g1400
sg195
g1401
sg197
F0.05065221659632986
sg198
S'-99.99'
p1534
sg200
g77
sg202
S'15.611'
p1535
sg204
g1404
sg205
g1405
sg207
S'-99.99'
p1536
sg209
F662.0
sg210
S'-99.99'
p1537
sg212
g1408
sg214
S'2.6'
p1538
sg216
S'0.0082'
p1539
sg218
g448
sg220
S'-99.99'
p1540
sg222
g448
sg224
S'44.76'
p1541
sg226
g1414
sg228
S'SDSSJ105240.79+363953.7'
p1542
sg230
S'-99.99'
p1543
sg232
g1417
sg234
S'-99.99'
p1544
sg236
g1419
sg238
S'r_sdss_iso'
p1545
sg240
S'r_sdss_pet'
p1546
sg242
g49
sg243
g1422
sg245
g38
sg246
S'1.06'
p1547
sg248
S'-99.99'
p1548
sg250
g448
sg252
g1425
sg254
S"['SDSSJ105240.79+363953.7']"
p1549
sg256
S'163.17'
p1550
sg258
S'-99.99'
p1551
sg260
S'756'
p1552
sg262
S'0.0038'
p1553
sg264
S'67'
p1554
sg266
S'r_sdss_iso'
p1555
sg268
S'0.96'
p1556
sg270
S'-99'
p1557
sg272
S'15.8'
p1558
sg274
S'501'
p1559
sg276
S'114.8'
p1560
sg278
g279
sg280
g1526
sg281
S'0.011'
p1561
sg283
S'-99.99'
p1562
sg285
S'-99.99'
p1563
sg287
S'63.184219'
p1564
sg289
S'-99.99'
p1565
sg291
F54.2
sg292
S'-99.99'
p1566
sg294
S'2.311'
p1567
saa(lp1568
(dp1569
g125
S'29'
p1570
sg127
S'12'
p1571
sg129
S'14.6'
p1572
sg131
S'-99'
p1573
sg133
F170.98
sg134
F28.659042240190093
sg135
S'62'
p1574
sg137
S'0.005254'
p1575
sg139
S'B_(Johnson)'
p1576
sg141
S'3.6'
p1577
sg143
S'289.589197'
p1578
sg145
S'B_(Johnson)'
p1579
sg147
S'-99.99'
p1580
sg149
S'14.741'
p1581
sg151
S'Lya'
p1582
sg153
S'2.2'
p1583
sg155
S'14.788'
p1584
sg157
S'14.6'
p1585
sg159
S'2.1408'
p1586
sg161
S'145'
p1587
sg163
S'TF'
p1588
sg165
S'0.094'
p1589
sg167
F0.012056946068598393
sg168
S'9.365'
p1590
sg170
S'26.341'
p1591
sg172
S'81.35'
p1592
sg174
S'UGC07612'
p1593
sg176
S'4.2'
p1594
sg178
S'2.72319'
p1595
sg180
S'23.484'
p1596
sg182
S'24.25'
p1597
sg184
S'145'
p1598
sg186
S'43'
p1599
sg188
S'LC_V'
p1600
sg190
g201
sg191
S'0.058'
p1601
sg193
S'70'
p1602
sg195
g201
sg197
F3.481685003745826e-16
sg198
S'0.54'
p1603
sg200
g595
sg202
S'14.993'
p1604
sg204
g77
sg205
S'1.05E+12'
p1605
sg207
S'14.4'
p1606
sg209
F1580.0
sg210
S'14.6'
p1607
sg212
S'1.43E+14'
p1608
sg214
S'9.6'
p1609
sg216
S'0.025'
p1610
sg218
S'Sm:_HII'
p1611
sg220
S'14.1'
p1612
sg222
S'B_(B_T^0)'
p1613
sg224
S'66.15'
p1614
sg226
S'369'
p1615
sg228
S'UGC07612'
p1616
sg230
S'33.9'
p1617
sg232
S'2.0525'
p1618
sg234
S'15.1'
p1619
sg236
S'0.15834'
p1620
sg238
S'poss_103a-O'
p1621
sg240
S'poss_103a-O'
p1622
sg242
g49
sg243
S'42'
p1623
sg245
g39
sg246
S'9.65'
p1624
sg248
S'0.23'
p1625
sg250
S'.S..9*.'
p1626
sg252
S'187.27791666666667'
p1627
sg254
S"['UGC07612', 'SDSSJ122901.87+024324.6']"
p1628
sg256
S'187.25892'
p1629
sg258
S'0.17'
p1630
sg260
S'1870'
p1631
sg262
S'0.076'
p1632
sg264
S'60'
p1633
sg266
S'poss_103a-O'
p1634
sg268
S'1.3'
p1635
sg270
S'-99'
p1636
sg272
S'15.3'
p1637
sg274
S'1575'
p1638
sg276
S'132.3'
p1639
sg278
g279
sg280
g1594
sg281
S'0.0153'
p1640
sg283
S'0.074'
p1641
sg285
S'9.65'
p1642
sg287
S'65.012984'
p1643
sg289
S'128.28'
p1644
sg291
F33.4
sg292
S'0.031'
p1645
sg294
S'4.682'
p1646
sa(dp1647
g125
S'34'
p1648
sg127
S'12'
p1649
sg129
S'14.9'
p1650
sg131
S'170002'
p1651
sg133
F348.733
sg134
F161.20465603697681
sg135
S'61'
p1652
sg137
S'0.006031'
p1653
sg139
g369
sg141
g1577
sg143
S'292.949501'
p1654
sg145
S'B_(B_T)'
p1655
sg147
S'21'
p1656
sg149
S'12'
p1657
sg151
g1582
sg153
g1583
sg155
S'11.106'
p1658
sg157
S'14.9'
p1659
sg159
S'27.0504'
p1660
sg161
S'130'
p1661
sg163
S'Ceph'
p1662
sg165
S'1.0'
p1663
sg167
F0.0064025696903046705
sg168
S'29.62'
p1664
sg170
S'29.614'
p1665
sg172
S'180.05'
p1666
sg174
S'NGC4536'
p1667
sg176
S'2.9'
p1668
sg178
S'2.18814'
p1669
sg180
S'17.304'
p1670
sg182
S'15.363'
p1671
sg184
S'95'
p1672
sg186
S'11'
p1673
sg188
S'LC_II-III'
p1674
sg190
g201
sg191
S'2.0'
p1675
sg193
g1602
sg195
g201
sg197
F0.0025302449034422273
sg198
S'0.43'
p1676
sg200
g196
sg202
S'13.181'
p1677
sg204
g77
sg205
g1605
sg207
S'10.6'
p1678
sg209
F1580.0
sg210
S'8.67'
p1679
sg212
g1608
sg214
S'11.0'
p1680
sg216
S'0.11'
p1681
sg218
S'SAB(rs)bc;HII_Sbrst'
p1682
sg220
S'9.89'
p1683
sg222
S'B_(B_T^0)'
p1684
sg224
S'213.2'
p1685
sg226
g1615
sg228
S'NGC4536'
p1686
sg230
S'28.0'
p1687
sg232
g1618
sg234
S'11.2'
p1688
sg236
g1620
sg238
S'K_lga2mass_tot'
p1689
sg240
S'K_lga2mass_tot'
p1690
sg242
g49
sg243
g1623
sg245
g39
sg246
S'2.83'
p1691
sg248
S'3.3'
p1692
sg250
S'.SXT4..'
p1693
sg252
g1627
sg254
S"['NGC4536', 'UGC07732', '2MASXJ12342712+0211163', 'SDSSJ123427.04+021117.2']"
p1694
sg256
S'188.61271'
p1695
sg258
S'1.8'
p1696
sg260
S'2103'
p1697
sg262
S'0.093'
p1698
sg264
S'59'
p1699
sg266
S'K_lga2mass_tot'
p1700
sg268
S'21.0'
p1701
sg270
g81
sg272
S'13.8'
p1702
sg274
S'1808'
p1703
sg276
S'410.0'
p1704
sg278
g279
sg280
g1668
sg281
S'0.0157'
p1705
sg283
S'3.8'
p1706
sg285
S'2.83'
p1707
sg287
S'64.730132'
p1708
sg289
S'455.15'
p1709
sg291
F10.8
sg292
S'1.2'
p1710
sg294
S'15.4'
p1711
sa(dp1712
g125
S'29'
p1713
sg127
S'12'
p1714
sg129
S'-99.99'
p1715
sg131
S'-99'
p1716
sg133
F94.177
sg134
F8.49394836027392
sg135
S'62'
p1717
sg137
S'0.005966'
p1718
sg139
S'B_(LCO)'
p1719
sg141
g1577
sg143
S'290.374472'
p1720
sg145
S'b_J'
p1721
sg147
S'-99.99'
p1722
sg149
S'16.674'
p1723
sg151
g1582
sg153
g1583
sg155
S'16.08'
p1724
sg157
S'29.34'
p1725
sg159
S'50.58'
p1726
sg161
S'-99'
p1727
sg163
g448
sg165
S'0.0049'
p1728
sg167
F0.005540459592975663
sg168
S'4.163'
p1729
sg170
S'29.346'
p1730
sg172
S'46.49'
p1731
sg174
S'2PIGGNGPGALB+3.26065+0.04028'
p1732
sg176
S'0.31'
p1733
sg178
S'2.03158'
p1734
sg180
S'53.688'
p1735
sg182
S'-99.99'
p1736
sg184
S'152'
p1737
sg186
g77
sg188
g448
sg190
g201
sg191
S'0.012'
p1738
sg193
g1602
sg195
g201
sg197
F1.368898515450383e-54
sg198
S'-99.99'
p1739
sg200
g201
sg202
S'17.204'
p1740
sg204
g77
sg205
g1605
sg207
S'17.6'
p1741
sg209
F1580.0
sg210
S'-99.99'
p1742
sg212
g1608
sg214
S'0.67'
p1743
sg216
S'0.012'
p1744
sg218
g448
sg220
S'17.6'
p1745
sg222
S'B_(LCO)'
p1746
sg224
S'14.63'
p1747
sg226
g1615
sg228
S'SDSSJ122950.57+020153.7'
p1748
sg230
S'-99.99'
p1749
sg232
g1618
sg234
S'17.8'
p1750
sg236
g1620
sg238
S'r_sdss_iso'
p1751
sg240
S'r_sdss_iso'
p1752
sg242
g49
sg243
g1623
sg245
g39
sg246
S'2.93'
p1753
sg248
S'0.0054'
p1754
sg250
g448
sg252
g1627
sg254
S"['SDSSJ122950.57+020153.7']"
p1755
sg256
S'187.46075'
p1756
sg258
S'0.0054'
p1757
sg260
S'2084'
p1758
sg262
S'0.0057'
p1759
sg264
S'60'
p1760
sg266
S'r_sdss_iso'
p1761
sg268
S'0.32'
p1762
sg270
S'-99'
p1763
sg272
S'17.6'
p1764
sg274
S'1789'
p1765
sg276
S'29.26'
p1766
sg278
g279
sg280
g1733
sg281
S'0.0165'
p1767
sg283
S'0.012'
p1768
sg285
S'-99.99'
p1769
sg287
S'64.375538'
p1770
sg289
S'-99.99'
p1771
sg291
F55.5
sg292
S'0.01'
p1772
sg294
S'2.082'
p1773
saa(lp1774
(dp1775
g125
S'19'
p1776
sg127
S'12'
p1777
sg129
S'-99.99'
p1778
sg131
S'-99'
p1779
sg133
F37.396
sg134
F8.30490471354127
sg135
S'31'
p1780
sg137
S'0.007295'
p1781
sg139
S'B_(Magellan)'
p1782
sg141
S'2.4'
p1783
sg143
S'281.013838'
p1784
sg145
S'B_(LCO)'
p1785
sg147
S'-99.99'
p1786
sg149
S'16.948'
p1787
sg151
S'Lya'
p1788
sg153
S'1.4'
p1789
sg155
S'16.572'
p1790
sg157
S'35'
p1791
sg159
S'20.6736'
p1792
sg161
S'-99'
p1793
sg163
g448
sg165
S'0.0056'
p1794
sg167
F0.01986817541366812
sg168
S'4.101'
p1795
sg170
S'35.001'
p1796
sg172
S'46.01'
p1797
sg174
S'PGC039653'
p1798
sg176
S'0.43'
p1799
sg178
S'6.7051'
p1800
sg180
S'18.36'
p1801
sg182
S'-99.99'
p1802
sg184
S'79'
p1803
sg186
S'42'
p1804
sg188
g448
sg190
g934
sg191
S'0.014'
p1805
sg193
S'22.7'
p1806
sg195
g595
sg197
F6.016292255345809e-11
sg198
S'-99.99'
p1807
sg200
g201
sg202
S'17.614'
p1808
sg204
g81
sg205
S'1.03E+12'
p1809
sg207
S'17.8'
p1810
sg209
F2548.0
sg210
S'-99.99'
p1811
sg212
S'6.41E+12'
p1812
sg214
S'0.39'
p1813
sg216
S'0.012'
p1814
sg218
g448
sg220
S'17.8'
p1815
sg222
S'B_(Magellan)'
p1816
sg224
S'20.78'
p1817
sg226
S'31'
p1818
sg228
S'VCC0339'
p1819
sg230
S'-99.99'
p1820
sg232
S'6.643888888888889'
p1821
sg234
S'18'
p1822
sg236
S'0.33130'
p1823
sg238
S'r_sdss_iso'
p1824
sg240
S'r_sdss_iso'
p1825
sg242
g49
sg243
S'13.6'
p1826
sg245
g40
sg246
S'3.5'
p1827
sg248
S'0.0064'
p1828
sg250
g448
sg252
S'184.83708333333334'
p1829
sg254
S"['SDSSJ121920.67+064218.3']"
p1830
sg256
S'184.83614'
p1831
sg258
S'0.0064'
p1832
sg260
S'2485'
p1833
sg262
S'0.0053'
p1834
sg264
S'31'
p1835
sg266
S'r_sdss_iso'
p1836
sg268
S'0.29'
p1837
sg270
S'-99'
p1838
sg272
S'18'
p1839
sg274
S'2187'
p1840
sg276
S'24.17'
p1841
sg278
g279
sg280
g1799
sg281
S'0.018'
p1842
sg283
S'0.014'
p1843
sg285
S'-99.99'
p1844
sg287
S'68.200452'
p1845
sg289
S'-99.99'
p1846
sg291
F79.9
sg292
S'0.012'
p1847
sg294
S'3.527'
p1848
sa(dp1849
g125
S'17'
p1850
sg127
S'12'
p1851
sg129
S'27.9'
p1852
sg131
S'120002'
p1853
sg133
F233.021
sg134
F103.68203191971115
sg135
S'59'
p1854
sg137
S'0.007455'
p1855
sg139
S'B_(B_T^0)'
p1856
sg141
g1783
sg143
S'279.829994'
p1857
sg145
S'B_(B_T)'
p1858
sg147
S'25.7'
p1859
sg149
S'12.223'
p1860
sg151
g1788
sg153
g1789
sg155
S'11.488'
p1861
sg157
S'27.9'
p1862
sg159
S'25.812'
p1863
sg161
S'128'
p1864
sg163
S'TF'
p1865
sg165
S'0.63'
p1866
sg167
F0.006991664309550501
sg168
S'22.07'
p1867
sg170
S'35.676'
p1868
sg172
S'146.97'
p1869
sg174
S'NGC4223'
p1870
sg176
S'2.1'
p1871
sg178
S'6.69007'
p1872
sg180
S'24.252'
p1873
sg182
S'28.0'
p1874
sg184
S'130'
p1875
sg186
S'41'
p1876
sg188
g448
sg190
g934
sg191
S'0.81'
p1877
sg193
g1806
sg195
g595
sg197
F0.0005529229276766317
sg198
S'0.52'
p1878
sg200
g196
sg202
S'12.993'
p1879
sg204
g81
sg205
g1809
sg207
S'12.9'
p1880
sg209
F2548.0
sg210
S'20.4'
p1881
sg212
g1812
sg214
S'4.4'
p1882
sg216
S'0.5'
p1883
sg218
S'SA(s)0+:;Sy_LINER'
p1884
sg220
S'12.9'
p1885
sg222
S'B_(m_B)'
p1886
sg224
S'88.13'
p1887
sg226
g1818
sg228
S'NGC4223'
p1888
sg230
S'33.9'
p1889
sg232
g1821
sg234
S'13'
p1890
sg236
g1823
sg238
S'K_2mass_tot'
p1891
sg240
S'K_2mass_tot'
p1892
sg242
g49
sg243
g1826
sg245
g40
sg246
S'4.89'
p1893
sg248
S'0.66'
p1894
sg250
S'.LAS+*.'
p1895
sg252
g1829
sg254
S"['NGC4223', 'IC3102', 'UGC07319', '2MASXJ12172582+0641239', 'SDSSJ121725.80+064124.2']"
p1896
sg256
S'184.35755'
p1897
sg258
S'0.66'
p1898
sg260
S'2533'
p1899
sg262
S'0.41'
p1900
sg264
S'57'
p1901
sg266
S'K_2mass_tot'
p1902
sg268
S'8.2'
p1903
sg270
S'39'
p1904
sg272
S'13.5'
p1905
sg274
S'2235'
p1906
sg276
S'163.2'
p1907
sg278
g279
sg280
g1871
sg281
S'0.0186'
p1908
sg283
S'0.81'
p1909
sg285
S'4.894'
p1910
sg287
S'68.023262'
p1911
sg289
S'154.22'
p1912
sg291
F34.5
sg292
S'0.78'
p1913
sg294
S'11.92'
p1914
sa(dp1915
g125
S'18'
p1916
sg127
S'12'
p1917
sg129
S'-99.99'
p1918
sg131
S'-99'
p1919
sg133
F196.518
sg134
F32.14598467927215
sg135
S'53'
p1920
sg137
S'0.008596'
p1921
sg139
g448
sg141
g1783
sg143
S'280.414182'
p1922
sg145
g448
sg147
S'-99.99'
p1923
sg149
S'14.642'
p1924
sg151
g1788
sg153
g1789
sg155
S'14.015'
p1925
sg157
S'40.49'
p1926
sg159
S'14.4192'
p1927
sg161
S'-99'
p1928
sg163
g448
sg165
S'-99.99'
p1929
sg167
F0.005133633054362335
sg168
S'10.11'
p1930
sg170
S'40.492'
p1931
sg172
S'85.76'
p1932
sg174
S'PGC039509'
p1933
sg176
S'0.63'
p1934
sg178
S'6.60364'
p1935
sg180
S'13.104'
p1936
sg182
S'-99.99'
p1937
sg184
S'105'
p1938
sg186
S'36'
p1939
sg188
g448
sg190
g934
sg191
S'-99.99'
p1940
sg193
g1806
sg195
g595
sg197
F5.75749797317063e-17
sg198
S'-99.99'
p1941
sg200
g196
sg202
S'15.299'
p1942
sg204
g81
sg205
g1809
sg207
S'-99.99'
p1943
sg209
F2548.0
sg210
S'-99.99'
p1944
sg212
g1812
sg214
S'1.6'
p1945
sg216
S'0.13'
p1946
sg218
S'dS0,N_pec'
p1947
sg220
S'-99.99'
p1948
sg222
g448
sg224
S'31.93'
p1949
sg226
g1818
sg228
S'VCC0278'
p1950
sg230
S'-99.99'
p1951
sg232
g1821
sg234
S'-99.99'
p1952
sg236
g1823
sg238
S'K_2mass_tot'
p1953
sg240
S'K_2mass_tot'
p1954
sg242
g49
sg243
g1826
sg245
g40
sg246
S'4.04'
p1955
sg248
S'-99.99'
p1956
sg250
g448
sg252
g1829
sg254
S"['2MASXJ12181446+0636142', 'SDSSJ121814.42+063613.1']"
p1957
sg256
S'184.56008'
p1958
sg258
S'-99.99'
p1959
sg260
S'2875'
p1960
sg262
S'0.06'
p1961
sg264
S'52'
p1962
sg266
S'K_2mass_tot'
p1963
sg268
S'2.6'
p1964
sg270
S'-99'
p1965
sg272
S'15.7'
p1966
sg274
S'2577'
p1967
sg276
S'51.5'
p1968
sg278
g279
sg280
g1934
sg281
S'0.0188'
p1969
sg283
S'-99.99'
p1970
sg285
S'-99.99'
p1971
sg287
S'68.012089'
p1972
sg289
S'-99.99'
p1973
sg291
F23.3
sg292
S'-99.99'
p1974
sg294
S'6.268'
p1975
saas.