(dp0
S'Vhels'
p1
(lp2
F1128.0
aF1284.0
aF7312.0
aF616.0
aF616.0
aF1736.0
asS'impacts'
p3
(lp4
F209.758
aF100.931
aF366.291
aF20.517
aF20.517
aF330.608
asS'group_dists'
p5
(lp6
F8.6
aF14.9
aF76.7
aF8.9
aF8.9
aF21.0
asS'MTypes'
p7
(lp8
S'SA(s)cd:_sp_HII'
p9
aS'E+0-1_pec;NLRG_Sy'
p10
aS'SA(s)0^0^:'
p11
aS'SB(s)m;LINER_HII'
p12
aS'SB(s)m;LINER_HII'
p13
aS'SAB(s)bc;HII_LINER'
p14
asS'e_Lya_Ws'
p15
(lp16
F3.0
aF20.0
aF9.0
aF25.0
aF30.0
aF2.0
asS'e_Lstar_sdsss'
p17
(lp18
F-99.99
aF3.3
aF0.49
aF-99.99
aF-99.99
aF-99.99
asS'Bmag_sdsss'
p19
(lp20
F-99.99
aF10.0
aF15.2
aF-99.99
aF-99.99
aF-99.99
asS'Nas'
p21
(lp22
F39900000000000.0
aF46400000000000.0
aF10700000000000.0
aF262000000000000.0
aF262000000000000.0
aF143000000000000.0
asS'Lya_Ws'
p23
(lp24
F160.0
aF176.0
aF51.0
aF568.0
aF585.0
aF369.0
asS'bestDists'
p25
(lp26
F9.7
aF16.4
aF110.0
aF11.3
aF11.3
aF13.6
asS'adjustedIncs'
p27
(lp28
F90.0
aF31.0
aF17.0
aF90.0
aF90.0
aF74.0
asS'targets'
p29
(lp30
S'HE1228+0131'
p31
aS'MS1228.6+1219'
p32
aS'RX_J1236.0+2641'
p33
aS'CSO295'
p34
aS'CSO295'
p35
aS'3C273.0'
p36
asS'e_bs'
p37
(lp38
F2.4
aF2.4
aF3.0
aF3.7
aF3.9
aF2.2
asS'incs'
p39
(lp40
F81.0
aF31.0
aF16.0
aF78.0
aF78.0
aF70.0
asS'azimuths'
p41
(lp42
F74.1
aF11.1
aF45.7
aF81.6
aF81.6
aF5.6
asS'group_nums'
p43
(lp44
S'0'
p45
aS'100002'
p46
aS'100082'
p47
aS'112910'
p48
aS'112910'
p49
aS'170002'
p50
asS'Ws'
p51
(lp52
F55.9
aF57.5
aF34.6
aF106.8
aF129.0
aF70.0
asS'ls'
p53
(lp54
F0.012395907429292505
aF0.19277267513827911
aF0.05953674544917223
aF0.9804125209542504
aF0.9358670472419909
aF0.023991275666620748
asS'Lya_vs'
p55
(lp56
F1495.0
aF1046.0
aF7223.0
aF600.0
aF662.0
aF1580.0
asS'R_virs'
p57
(lp58
F207.37
aF210.39
aF226.16
aF177.36
aF177.36
aF187.12
asS'Bmags'
p59
(lp60
F11.1
aF9.59
aF14.3
aF11.7
aF11.7
aF11.4
asS'cuss'
p61
(lp62
F219.1576438890508
aF226.1579981517346
aF264.6439567569983
aF156.0082523201898
aF156.0082523201898
aF175.280107165645
asS'vcorrs'
p63
(lp64
F1420.0
aF1584.0
aF7603.0
aF871.0
aF871.0
aF2031.0
asS'e_Nas'
p65
(lp66
F860000000000.0
aF6410000000000.0
aF2010000000000.0
aF42500000000000.0
aF43300000000000.0
aF1050000000000.0
asS'e_bestDists'
p67
(lp68
F2.78
aF2.79
aF7.34
aF4.21
aF4.21
aF3.3
asS'group_mems'
p69
(lp70
S'1'
p71
aS'197'
p72
aS'12'
p73
ag71
ag71
aS'4'
p74
asS'e_Lstar_meds'
p75
(lp76
F0.72
aF4.8
aF1.2
aF0.72
aF0.72
aF0.91
asS'Dec_targets'
p77
(lp78
F1.256388888888889
aF12.051944444444445
aF26.693333333333335
aF36.67777777777778
aF36.67777777777778
aF2.0525
asS'PAs'
p79
(lp80
F83.0
aF153.0
aF90.0
aF43.0
aF43.0
aF70.0
asS'Lstar_meds'
p81
(lp82
F0.54
aF6.2
aF3.8
aF0.42
aF0.42
aF0.81
asS'RA_galaxies'
p83
(lp84
F188.18996
aF187.70593
aF189.16625
aF163.12971
aF163.12971
aF188.53509
asS'bs'
p85
(lp86
F33.6
aF34.5
aF20.8
aF64.1
aF77.5
aF42.0
asS'e_Ws'
p87
(lp88
F4.1
aF3.9
aF5.0
aF6.1
aF6.5
aF3.6
asS'Dec_galaxies'
p89
(lp90
F0.11503
aF12.39112
aF26.82994
aF36.61878
aF36.61878
aF2.65366
asS'MajDiams'
p91
(lp92
F36.35
aF37.12
aF41.22
aF28.98
aF28.98
aF31.32
asS'RA_targets'
p93
(lp94
F187.70833333333334
aF187.80458333333334
aF189.01708333333332
aF163.02291666666667
aF163.02291666666667
aF187.27791666666667
asS'e_Lya_vs'
p95
(lp96
F1.0
aF2.0
aF1.0
aF1.0
aF7.0
aF1.0
asS'z_targets'
p97
(lp98
F0.117
aF0.11612
aF0.20915
aF0.60999
aF0.60999
aF0.15834
asS'Lstar_sdsss'
p99
(lp100
F-99.99
aF4.2
aF1.6
aF-99.99
aF-99.99
aF-99.99
asS'Names'
p101
(lp102
S'NGC4517'
p103
aS'NGC4486'
p104
aS'IC3585'
p105
aS'NGC3432'
p106
aS'NGC3432'
p107
aS'NGC4527'
p108
asS'l_cuss'
p109
(lp110
F0.013797266420318222
aF0.19883685626508646
aF0.12078664404544016
aF0.9765830553408188
aF0.9322115750814878
aF0.015513641382541077
asS'others'
p111
(lp112
(lp113
(dp114
S'RAm'
p115
S'32'
p116
sS'RAh'
p117
S'12'
p118
sS'RID_median'
p119
S'24.1'
p120
sS'group_num'
p121
S'-99'
p122
sS'impact'
p123
F403.143
sS'cus'
p124
F170.0181681732867
sS'adjustedInc'
p125
S'58'
p126
sS'z'
p127
S'0.005087'
p128
sS'Bmag_max_key'
p129
S'B_(m_B)'
p130
sS'e_W'
p131
S'4.1'
p132
sS'GLON'
p133
S'292.484881'
p134
sS'Bmag_min_key'
p135
S'B_(Johnson)'
p136
sS'group_dist'
p137
S'-99.99'
p138
sS'rmag_sdss'
p139
S'13.865'
p140
sS'identified'
p141
S'Lya'
p142
sS'e_b'
p143
S'2.4'
p144
sS'zmag_sdss'
p145
S'14.01'
p146
sS'bestDist'
p147
S'24.1'
p148
sS'RAs'
p149
S'28.1568'
p150
sS'RC3_pa'
p151
S'30'
p152
sS'distIndicator'
p153
S'TF'
p154
sS'e_Lstar_min'
p155
S'0.051'
p156
sS'l'
p157
F0.008258963476947786
sS'MajDiam'
p158
S'30.69'
p159
sS'distvcorr'
p160
S'25.602'
p161
sS'R_vir'
p162
S'184.51'
p163
sS'Name'
p164
S'NGC4517A'
p165
sS'e_MajDiam'
p166
S'4.2'
p167
sS'DEdeg'
p168
S'0.38967'
p169
sS'DEs'
p170
S'22.812'
p171
sS'RID_mean'
p172
S'22.68'
p173
sS'PA'
p174
S'30'
p175
sS'DEm'
p176
S'23'
p177
sS'lumClass'
p178
S'LC_IV-V'
p179
sS'DEd'
p180
g45
sS'Lstar_med'
p181
S'0.77'
p182
sS'W'
p183
S'55.9'
p184
sS'e_Lya_W'
p185
S'3'
p186
sS'l_cus'
p187
F0.0035352345723019653
sS'RC3_r25'
p188
S'0.66'
p189
sS'e_inc'
p190
S'2'
p191
sS'gmag_sdss'
p192
S'14.289'
p193
sS'e_Lya_v'
p194
g71
sS'e_Na'
p195
S'8.60E+11'
p196
sS'Bmag'
p197
S'12.7'
p198
sS'Lya_v'
p199
F1495.0
sS'RID_min'
p200
S'14.5'
p201
sS'Na'
p202
S'3.99E+13'
p203
sS'e_MinDiam_ang'
p204
S'9.4'
p205
sS'Lstar_sdss'
p206
S'0.13'
p207
sS'MType'
p208
S'SB(rs)dm:_HII'
p209
sS'Bmag_max'
p210
S'12.5'
p211
sS'Bmag_key'
p212
S'B_J'
p213
sS'MinDiam_ang'
p214
S'144.5'
p215
sS'Lya_W'
p216
S'160'
p217
sS'NEDname'
p218
S'NGC4517A'
p219
sS'RID_max'
p220
S'26.7'
p221
sS'Dec_target'
p222
S'1.256388888888889'
p223
sS'Bmag_min'
p224
S'15.4'
p225
sS'z_target'
p226
S'0.11700'
p227
sS'paKey'
p228
S'poss_103a-O'
p229
sS'diameterKey'
p230
S'poss_103a-O'
p231
sS'flag'
p232
g45
sS'b'
p233
S'33.6'
p234
sS'target'
p235
g31
sS'e_bestDist'
p236
S'4.22'
p237
sS'e_Lstar_max'
p238
S'0.78'
p239
sS'RC3_type'
p240
S'.SBT8*.'
p241
sS'RA_target'
p242
S'187.70833333333334'
p243
sS'altNames'
p244
S"['NGC4517A', 'UGC07685', 'SDSSJ123227.94+002326.2']"
p245
sS'RAdeg'
p246
S'188.11732'
p247
sS'e_Lstar_med'
p248
S'0.62'
p249
sS'vcorr'
p250
S'1818'
p251
sS'e_Lstar_sdss'
p252
S'0.1'
p253
sS'inc'
p254
S'57'
p255
sS'ratioKey'
p256
S'poss_103a-O'
p257
sS'e_MajDiam_ang'
p258
S'2.4'
p259
sS'group_mem'
p260
S'-99'
p261
sS'Bmag_sdss'
p262
S'14.6'
p263
sS'Vhel'
p264
S'1525'
p265
sS'MajDiam_ang'
p266
S'262.6'
p267
sS'DE-'
p268
S'+'
p269
sS'e_MinDiam'
p270
g167
sS'E(B-V)'
p271
S'0.0193'
p272
sS'Lstar_max'
p273
S'0.93'
p274
sS'RID_std'
p275
S'4.225'
p276
sS'GLAT'
p277
S'62.876024'
p278
sS'RC3_d25'
p279
S'238.86'
p280
sS'azimuth'
p281
F55.3
sS'Lstar_min'
p282
S'0.063'
p283
sS'MinDiam'
p284
S'16.88'
p285
sa(dp286
g115
S'34'
p287
sg117
S'12'
p288
sg119
S'13.6'
p289
sg121
S'170002'
p290
sg123
F385.415
sg124
F175.280107165645
sg125
S'74'
p291
sg127
S'0.005791'
p292
sg129
S'B_(B_T^0)'
p293
sg131
g132
sg133
S'292.59582'
p294
sg135
S'B_(m_B)'
p295
sg137
S'21'
p296
sg139
S'-99.99'
p297
sg141
g142
sg143
g144
sg145
S'-99.99'
p298
sg147
S'13.6'
p299
sg149
S'8.4216'
p300
sg151
S'67'
p301
sg153
S'SBF'
p302
sg155
S'0.9'
p303
sg157
F0.0033645005882420548
sg158
S'31.32'
p304
sg160
S'28.606'
p305
sg162
S'187.12'
p306
sg164
S'NGC4527'
p307
sg166
S'2.6'
p308
sg168
S'2.65366'
p309
sg170
S'13.176'
p310
sg172
S'14.243'
p311
sg174
S'70'
p312
sg176
S'39'
p313
sg178
S'LC_II-III'
p314
sg180
g191
sg181
S'0.81'
p315
sg183
g184
sg185
g186
sg187
F0.0018603795338843314
sg188
S'0.34'
p316
sg190
g71
sg192
S'-99.99'
p317
sg194
g71
sg195
g196
sg197
S'11.4'
p318
sg199
F1495.0
sg200
S'10.1'
p319
sg202
g203
sg204
S'8.1'
p320
sg206
S'-99.99'
p321
sg208
S'SAB(s)bc;HII_LINER'
p322
sg210
S'10.7'
p323
sg212
S'B_(B_T)'
p324
sg214
S'161.5'
p325
sg216
g217
sg218
S'NGC4527'
p326
sg220
S'29.4'
p327
sg222
g223
sg224
S'11.4'
p328
sg226
g227
sg228
S'K_lga2mass_tot'
p329
sg230
S'K_lga2mass_tot'
p330
sg232
g45
sg233
g234
sg235
g31
sg236
S'3.3'
p331
sg238
S'1.8'
p332
sg240
S'.SXS4..'
p333
sg242
g243
sg244
S"['NGC4527', 'UGC07721', '2MASXJ12340849+0239137', 'SDSSJ123408.44+023913.7']"
p334
sg246
S'188.53509'
p335
sg248
S'0.91'
p336
sg250
S'2031'
p337
sg252
S'-99.99'
p338
sg254
S'70'
p339
sg256
S'K_lga2mass_tot'
p340
sg258
S'24.0'
p341
sg260
g74
sg262
S'-99.99'
p342
sg264
S'1736'
p343
sg266
S'475.0'
p344
sg268
g269
sg270
g308
sg271
S'0.0189'
p345
sg273
S'1.6'
p346
sg275
S'3.307'
p347
sg277
S'65.177691'
p348
sg279
S'369.96'
p349
sg281
F39.4
sg282
S'0.8'
p350
sg284
S'10.65'
p351
sa(dp352
g115
S'34'
p353
sg117
S'12'
p354
sg119
S'14.9'
p355
sg121
S'170002'
p356
sg123
F337.658
sg124
F161.20465603697681
sg125
S'61'
p357
sg127
S'0.006031'
p358
sg129
S'B'
p359
sg131
g132
sg133
S'292.949501'
p360
sg135
S'B_(B_T)'
p361
sg137
S'21'
p362
sg139
S'12'
p363
sg141
g142
sg143
g144
sg145
S'11.106'
p364
sg147
S'14.9'
p365
sg149
S'27.0504'
p366
sg151
S'130'
p367
sg153
S'Ceph'
p368
sg155
S'1.0'
p369
sg157
F0.002563996006912428
sg158
S'29.62'
p370
sg160
S'29.614'
p371
sg162
S'180.05'
p372
sg164
S'NGC4536'
p373
sg166
S'2.9'
p374
sg168
S'2.18814'
p375
sg170
S'17.304'
p376
sg172
S'15.363'
p377
sg174
S'95'
p378
sg176
S'11'
p379
sg178
S'LC_II-III'
p380
sg180
g191
sg181
S'2.0'
p381
sg183
g184
sg185
g186
sg187
F0.0010738111988060058
sg188
S'0.43'
p382
sg190
g186
sg192
S'13.181'
p383
sg194
g71
sg195
g196
sg197
S'10.6'
p384
sg199
F1495.0
sg200
S'8.67'
p385
sg202
g203
sg204
S'11.0'
p386
sg206
S'0.11'
p387
sg208
S'SAB(rs)bc;HII_Sbrst'
p388
sg210
S'9.89'
p389
sg212
S'B_(B_T^0)'
p390
sg214
S'213.2'
p391
sg216
g217
sg218
S'NGC4536'
p392
sg220
S'28.0'
p393
sg222
g223
sg224
S'11.2'
p394
sg226
g227
sg228
S'K_lga2mass_tot'
p395
sg230
S'K_lga2mass_tot'
p396
sg232
g45
sg233
g234
sg235
g31
sg236
S'2.83'
p397
sg238
S'3.3'
p398
sg240
S'.SXT4..'
p399
sg242
g243
sg244
S"['NGC4536', 'UGC07732', '2MASXJ12342712+0211163', 'SDSSJ123427.04+021117.2']"
p400
sg246
S'188.61271'
p401
sg248
S'1.8'
p402
sg250
S'2103'
p403
sg252
S'0.093'
p404
sg254
S'59'
p405
sg256
S'K_lga2mass_tot'
p406
sg258
S'21.0'
p407
sg260
g74
sg262
S'13.8'
p408
sg264
S'1808'
p409
sg266
S'410.0'
p410
sg268
g269
sg270
g374
sg271
S'0.0157'
p411
sg273
S'3.8'
p412
sg275
S'2.83'
p413
sg277
S'64.730132'
p414
sg279
S'455.15'
p415
sg281
F50.9
sg282
S'1.2'
p416
sg284
S'15.4'
p417
saa(lp418
(dp419
g115
S'31'
p420
sg117
S'12'
p421
sg119
S'-99.99'
p422
sg121
S'-99'
p423
sg123
F22.059
sg124
F4.134459937646028
sg125
S'50'
p424
sg127
S'0.002591'
p425
sg129
S'B_t'
p426
sg131
S'3.9'
p427
sg133
S'284.766394'
p428
sg135
S'B_J_25'
p429
sg137
S'-99.99'
p430
sg139
S'16.371'
p431
sg141
S'Lya'
p432
sg143
S'2.4'
p433
sg145
S'16.007'
p434
sg147
S'15.16'
p435
sg149
S'33.3528'
p436
sg151
S'-99'
p437
sg153
S'x'
p438
sg155
S'0.0018'
p439
sg157
F0.10587677862750439
sg158
S'2.576'
p440
sg160
S'15.168'
p441
sg162
S'33.39'
p442
sg164
S'PGC041458'
p443
sg166
S'0.22'
p444
sg168
S'12.06378'
p445
sg170
S'49.608'
p446
sg172
S'-99.99'
p447
sg174
S'154'
p448
sg176
g186
sg178
g438
sg180
S'12'
p449
sg181
S'0.0064'
p450
sg183
S'57.5'
p451
sg185
S'20'
p452
sg187
F7.104062631394904e-14
sg188
S'-99.99'
p453
sg190
g71
sg192
S'16.991'
p454
sg194
g191
sg195
S'6.41E+12'
p455
sg197
S'16.9'
p456
sg199
F1046.0
sg200
S'-99.99'
p457
sg202
S'4.64E+13'
p458
sg204
S'0.58'
p459
sg206
S'0.004'
p460
sg208
S'dE6,N'
p461
sg210
S'16.8'
p462
sg212
S'B_tot__(INT/WFC)'
p463
sg214
S'23.12'
p464
sg216
S'176'
p465
sg218
S'VCC1369'
p466
sg220
S'-99.99'
p467
sg222
S'12.051944444444445'
p468
sg224
S'17.4'
p469
sg226
S'0.11612'
p470
sg228
S'r_sdss_iso'
p471
sg230
S'r_sdss_iso'
p472
sg232
g45
sg233
S'34.5'
p473
sg235
g32
sg236
S'1.51'
p474
sg238
S'0.0033'
p475
sg240
g438
sg242
S'187.80458333333334'
p476
sg244
S"['SDSSJ123133.35+120349.5']"
p477
sg246
S'187.88897'
p478
sg248
S'0.0029'
p479
sg250
S'1077'
p480
sg252
S'0.0018'
p481
sg254
S'49'
p482
sg256
S'r_sdss_iso'
p483
sg258
S'0.35'
p484
sg260
S'-99'
p485
sg262
S'17.4'
p486
sg264
S'777'
p487
sg266
S'35.03'
p488
sg268
g269
sg270
g444
sg271
S'0.0242'
p489
sg273
S'0.0069'
p490
sg275
S'-99.99'
p491
sg277
S'74.230105'
p492
sg279
S'-99.99'
p493
sg281
F72.2
sg282
S'0.0039'
p494
sg284
S'1.7'
p495
sa(dp496
g115
S'31'
p497
sg117
S'12'
p498
sg119
S'-99.99'
p499
sg121
S'100002'
p500
sg123
F143.636
sg124
F50.099014750791255
sg125
S'71'
p501
sg127
S'0.003486'
p502
sg129
S'B_(B_T)'
p503
sg131
g427
sg133
S'285.201512'
p504
sg135
S'B_(m_B)'
p505
sg137
S'14.9'
p506
sg139
S'12.506'
p507
sg141
g432
sg143
g433
sg145
S'11.947'
p508
sg147
S'18.94'
p509
sg149
S'32.5272'
p510
sg151
S'65'
p511
sg153
g438
sg155
S'0.12'
p512
sg157
F0.15490468605143468
sg158
S'13.59'
p513
sg160
S'18.942'
p514
sg162
S'105.18'
p515
sg164
S'NGC4497'
p516
sg166
S'0.52'
p517
sg168
S'11.62472'
p518
sg170
S'28.992'
p519
sg172
S'-99.99'
p520
sg174
S'75'
p521
sg176
S'37'
p522
sg178
g438
sg180
S'11'
p523
sg181
S'0.3'
p524
sg183
g451
sg185
g452
sg187
F0.0002692265924263614
sg188
S'0.46'
p525
sg190
g191
sg192
S'13.215'
p526
sg194
g191
sg195
g455
sg197
S'13.2'
p527
sg199
F1046.0
sg200
S'-99.99'
p528
sg202
g458
sg204
S'2.8'
p529
sg206
S'0.2'
p530
sg208
S'SAB(s)0+:'
p531
sg210
S'13.2'
p532
sg212
S'B_(B_T^0)'
p533
sg214
S'56.24'
p534
sg216
g465
sg218
S'NGC4497'
p535
sg220
S'-99.99'
p536
sg222
g468
sg224
S'13.4'
p537
sg226
g470
sg228
S'K_2mass_tot'
p538
sg230
S'K_2mass_tot'
p539
sg232
g45
sg233
g473
sg235
g32
sg236
S'1.89'
p540
sg238
S'0.15'
p541
sg240
S'.LXS+*.'
p542
sg242
g476
sg244
S"['NGC4497', 'IC3452', 'UGC07665', '2MASXJ12313253+1137291', 'SDSSJ123132.52+113728.9']"
p543
sg246
S'187.88553'
p544
sg248
S'0.14'
p545
sg250
S'1345'
p546
sg252
S'0.093'
p547
sg254
S'68'
p548
sg256
S'K_2mass_tot'
p549
sg258
S'7.4'
p550
sg260
S'197'
p551
sg262
S'13.7'
p552
sg264
S'1045'
p553
sg266
S'148.0'
p554
sg268
g269
sg270
g517
sg271
S'0.0369'
p555
sg273
S'0.31'
p556
sg275
S'-99.99'
p557
sg277
S'73.807687'
p558
sg279
S'122.5'
p559
sg281
F85.5
sg282
S'0.25'
p560
sg284
S'5.165'
p561
sa(dp562
g115
S'30'
p563
sg117
S'12'
p564
sg119
S'-99.99'
p565
sg121
S'-99'
p566
sg123
F134.905
sg124
F72.76894534758628
sg125
S'12'
p567
sg127
S'0.0042'
p568
sg129
g438
sg131
g427
sg133
S'283.753686'
p569
sg135
g438
sg137
S'-99.99'
p570
sg139
S'11.752'
p571
sg141
g432
sg143
g433
sg145
S'10.94'
p572
sg147
S'21.95'
p573
sg149
S'47.5512'
p574
sg151
S'-99'
p575
sg153
g438
sg155
S'-99.99'
p576
sg157
F0.10013624810395332
sg158
S'17.43'
p577
sg160
S'21.957'
p578
sg162
S'124.88'
p579
sg164
S'SDSSJ123047.55+122318.1'
p580
sg166
S'1.9'
p581
sg168
S'12.38836'
p582
sg170
S'18.096'
p583
sg172
S'-99.99'
p584
sg174
S'5'
p585
sg176
S'23'
p586
sg178
g438
sg180
S'12'
p587
sg181
S'-99.99'
p588
sg183
g451
sg185
g452
sg187
F0.01034655632516298
sg188
S'-99.99'
p589
sg190
g186
sg192
S'12.544'
p590
sg194
g191
sg195
g455
sg197
S'-99.99'
p591
sg199
F1046.0
sg200
S'-99.99'
p592
sg202
g458
sg204
S'1.3'
p593
sg206
S'0.47'
p594
sg208
g438
sg210
S'-99.99'
p595
sg212
g438
sg214
S'160.5'
p596
sg216
g465
sg218
S'SDSSJ123047.55+122318.1'
p597
sg220
S'-99.99'
p598
sg222
g468
sg224
S'-99.99'
p599
sg226
g470
sg228
S'r_sdss_dev'
p600
sg230
S'r_sdss_pet'
p601
sg232
g45
sg233
g473
sg235
g32
sg236
S'2.19'
p602
sg238
S'-99.99'
p603
sg240
g438
sg242
g476
sg244
S"['SDSSJ123047.55+122318.1']"
p604
sg246
S'187.69813'
p605
sg248
S'-99.99'
p606
sg250
S'1559'
p607
sg252
S'0.22'
p608
sg254
S'12'
p609
sg256
S'r_sdss_dev'
p610
sg258
S'1.3'
p611
sg260
S'-99'
p612
sg262
S'13'
p613
sg264
S'1259'
p614
sg266
S'163.8'
p615
sg268
g269
sg270
g581
sg271
S'0.0196'
p616
sg273
S'-99.99'
p617
sg275
S'-99.99'
p618
sg277
S'74.486215'
p619
sg279
S'-99.99'
p620
sg281
F22.2
sg282
S'-99.99'
p621
sg284
S'17.08'
p622
saa(lp623
(dp624
g115
S'36'
p625
sg117
S'12'
p626
sg119
S'-99.99'
p627
sg121
S'-99'
p628
sg123
F131.386
sg124
F25.599397118994816
sg125
S'45'
p629
sg127
S'0.024591'
p630
sg129
g438
sg131
g585
sg133
S'218.322536'
p631
sg135
g438
sg137
S'-99.99'
p632
sg139
S'16.007'
p633
sg141
S'Lya'
p634
sg143
g186
sg145
S'15.395'
p635
sg147
S'107.93'
p636
sg149
S'12.2616'
p637
sg151
S'-99'
p638
sg153
g438
sg155
S'-99.99'
p639
sg157
F0.031770762648058115
sg158
S'8.686'
p640
sg160
S'107.931'
p641
sg162
S'77.23'
p642
sg164
S'IC3565'
p643
sg166
S'0.63'
p644
sg168
S'26.75612'
p645
sg170
S'22.032'
p646
sg172
S'-99.99'
p647
sg174
S'25'
p648
sg176
S'45'
p649
sg178
g438
sg180
S'26'
p650
sg181
S'-99.99'
p651
sg183
S'34.6'
p652
sg185
S'9'
p653
sg187
F2.084658396859238e-12
sg188
S'-99.99'
p654
sg190
g74
sg192
S'16.711'
p655
sg194
g71
sg195
S'2.01E+12'
p656
sg197
S'-99.99'
p657
sg199
F7223.0
sg200
S'-99.99'
p658
sg202
S'1.07E+13'
p659
sg204
S'0.6'
p660
sg206
S'0.25'
p661
sg208
g438
sg210
S'-99.99'
p662
sg212
g438
sg214
S'11.95'
p663
sg216
S'51'
p664
sg218
S'IC3565'
p665
sg220
S'-99.99'
p666
sg222
S'26.693333333333335'
p667
sg224
S'-99.99'
p668
sg226
S'0.20915'
p669
sg228
S'K_2mass_tot'
p670
sg230
S'K_2mass_tot'
p671
sg232
g45
sg233
S'20.8'
p672
sg235
g33
sg236
S'10.79'
p673
sg238
S'-99.99'
p674
sg240
g438
sg242
S'189.01708333333332'
p675
sg244
S"['IC3565', '2MASXJ12361227+2645221', 'SDSSJ123612.26+264521.9']"
p676
sg246
S'189.05109'
p677
sg248
S'-99.99'
p678
sg250
S'7663'
p679
sg252
S'0.12'
p680
sg254
S'44'
p681
sg256
S'r_sdss_iso'
p682
sg258
S'0.83'
p683
sg260
S'-99'
p684
sg262
S'17.2'
p685
sg264
S'7372'
p686
sg266
S'16.6'
p687
sg268
g269
sg270
g644
sg271
S'0.0172'
p688
sg273
S'-99.99'
p689
sg275
S'-99.99'
p690
sg277
S'86.58476'
p691
sg279
S'-99.99'
p692
sg281
F0.8
sg282
S'-99.99'
p693
sg284
S'6.254'
p694
sa(dp695
g115
S'36'
p696
sg117
S'12'
p697
sg119
S'-99.99'
p698
sg121
S'-99'
p699
sg123
F177.718
sg124
F130.05851860989347
sg125
S'77'
p700
sg127
S'0.025151'
p701
sg129
g438
sg131
g585
sg133
S'217.76268'
p702
sg135
g438
sg137
S'-99.99'
p703
sg139
S'-99.99'
p704
sg141
g634
sg143
g186
sg145
S'-99.99'
p705
sg147
S'110.29'
p706
sg149
S'2.2104'
p707
sg151
S'-99'
p708
sg153
g438
sg155
S'-99.99'
p709
sg157
F0.024742850860609622
sg158
S'25.67'
p710
sg160
S'110.297'
p711
sg162
S'163.12'
p712
sg164
S'2MFGC09922'
p713
sg166
S'0.77'
p714
sg168
S'26.78539'
p715
sg170
S'7.404'
p716
sg172
S'-99.99'
p717
sg174
S'25'
p718
sg176
S'47'
p719
sg178
g438
sg180
S'26'
p720
sg181
S'-99.99'
p721
sg183
g652
sg185
g653
sg187
F0.01253286507834713
sg188
S'-99.99'
p722
sg190
g71
sg192
S'-99.99'
p723
sg194
g71
sg195
g656
sg197
S'-99.99'
p724
sg199
F7223.0
sg200
S'-99.99'
p725
sg202
g659
sg204
S'0.72'
p726
sg206
S'-99.99'
p727
sg208
g438
sg210
S'-99.99'
p728
sg212
g438
sg214
S'14.4'
p729
sg216
g664
sg218
S'2MFGC09922'
p730
sg220
S'-99.99'
p731
sg222
g667
sg224
S'-99.99'
p732
sg226
g669
sg228
S'K_2mass_tot'
p733
sg230
S'K_2mass_tot'
p734
sg232
g45
sg233
g672
sg235
g33
sg236
S'11.02'
p735
sg238
S'-99.99'
p736
sg240
g438
sg242
g675
sg244
S"['2MASXJ12360219+2647071', 'SDSSJ123602.20+264707.3']"
p737
sg246
S'189.00921'
p738
sg248
S'-99.99'
p739
sg250
S'7831'
p740
sg252
S'-99.99'
p741
sg254
S'73'
p742
sg256
S'K_2mass_tot'
p743
sg258
S'2.4'
p744
sg260
S'-99'
p745
sg262
S'-99.99'
p746
sg264
S'7540'
p747
sg266
S'48.0'
p748
sg268
g269
sg270
g714
sg271
S'0.0163'
p749
sg273
S'-99.99'
p750
sg275
S'-99.99'
p751
sg277
S'86.551124'
p752
sg279
S'-99.99'
p753
sg281
F29.4
sg282
S'-99.99'
p754
sg284
S'7.7'
p755
sa(dp756
g115
S'35'
p757
sg117
S'12'
p758
sg119
S'110.0'
p759
sg121
S'100082'
p760
sg123
F433.857
sg124
F404.11450691109815
sg125
S'47'
p761
sg127
S'0.024987'
p762
sg129
S'B_(m_B^0)'
p763
sg131
g585
sg133
S'215.636722'
p764
sg135
S'B_(Johnson)'
p765
sg137
S'76.7'
p766
sg139
S'12.94'
p767
sg141
g634
sg143
g186
sg145
S'12.294'
p768
sg147
S'110'
p769
sg149
S'45.8568'
p770
sg151
S'80'
p771
sg153
S'TF'
p772
sg155
S'0.64'
p773
sg157
F0.013724070411467367
sg158
S'54.66'
p774
sg160
S'109.605'
p775
sg162
S'274.78'
p776
sg164
S'NGC4556'
p777
sg166
S'1.7'
p778
sg168
S'26.90889'
p779
sg170
S'32.004'
p780
sg172
S'108.667'
p781
sg174
S'70'
p782
sg176
S'54'
p783
sg178
g438
sg180
S'26'
p784
sg181
S'4.4'
p785
sg183
g652
sg185
g653
sg187
F0.05243320621074266
sg188
S'0.83'
p786
sg190
g74
sg192
S'13.747'
p787
sg194
g71
sg195
g656
sg197
S'14.1'
p788
sg199
F7223.0
sg200
S'102.0'
p789
sg202
g659
sg204
S'3.6'
p790
sg206
S'3.8'
p791
sg208
S'E+:'
p792
sg210
S'13.9'
p793
sg212
S'B_(m_B)'
p794
sg214
S'71.75'
p795
sg216
g664
sg218
S'NGC4556'
p796
sg220
S'114.0'
p797
sg222
g667
sg224
S'14.6'
p798
sg226
g669
sg228
S'K_2mass_tot'
p799
sg230
S'K_2mass_tot'
p800
sg232
g45
sg233
g672
sg235
g33
sg236
S'4.98'
p801
sg238
S'1.0'
p802
sg240
S'.E+..*.'
p803
sg242
g675
sg244
S"['NGC4556', 'UGC07765', '2MASXJ12354585+2654317', 'SDSSJ123545.85+265431.9']"
p804
sg246
S'188.94107'
p805
sg248
S'1.1'
p806
sg250
S'7782'
p807
sg252
S'0.8'
p808
sg254
S'46'
p809
sg256
S'K_2mass_tot'
p810
sg258
S'5.1'
p811
sg260
S'12'
p812
sg262
S'14.2'
p813
sg264
S'7491'
p814
sg266
S'102.5'
p815
sg268
g269
sg270
g778
sg271
S'0.0151'
p816
sg273
S'5.0'
p817
sg275
S'4.989'
p818
sg277
S'86.502512'
p819
sg279
S'72.14'
p820
sg281
F87.5
sg282
S'2.7'
p821
sg284
S'38.26'
p822
saa(lp823
(dp824
g115
S'52'
p825
sg117
S'10'
p826
sg119
S'-99.99'
p827
sg121
S'-99'
p828
sg123
F21.742
sg124
F25.119044488853472
sg125
S'66'
p829
sg127
S'0.001947'
p830
sg129
g438
sg131
S'6.1'
p831
sg133
S'184.751984'
p832
sg135
g438
sg137
S'-99.99'
p833
sg139
S'12.132'
p834
sg141
S'Lya'
p835
sg143
S'3.7'
p836
sg145
S'11.796'
p837
sg147
S'11.81'
p838
sg149
S'33.1392'
p839
sg151
S'-99'
p840
sg153
g438
sg155
S'-99.99'
p841
sg157
F0.9166328354925924
sg158
S'8.577'
p842
sg160
S'11.817'
p843
sg162
S'76.56'
p844
sg164
S'SDSSJ105233.13+363736.7'
p845
sg166
S'0.44'
p846
sg168
S'36.62689'
p847
sg170
S'36.804'
p848
sg172
S'-99.99'
p849
sg174
S'41'
p850
sg176
S'37'
p851
sg178
g438
sg180
S'36'
p852
sg181
S'-99.99'
p853
sg183
S'106.8'
p854
sg185
S'25'
p855
sg187
F0.4697327576425702
sg188
S'-99.99'
p856
sg190
g45
sg192
S'13.064'
p857
sg194
g71
sg195
S'4.25E+13'
p858
sg197
S'-99.99'
p859
sg199
F600.0
sg200
S'-99.99'
p860
sg202
S'2.62E+14'
p861
sg204
S'0.98'
p862
sg206
S'0.079'
p863
sg208
S'WR?_HII'
p864
sg210
S'-99.99'
p865
sg212
g438
sg214
S'65.87'
p866
sg216
S'568'
p867
sg218
S'SDSSJ105233.13+363736.7'
p868
sg220
S'-99.99'
p869
sg222
S'36.67777777777778'
p870
sg224
S'-99.99'
p871
sg226
S'0.60999'
p872
sg228
S'r_sdss_iso'
p873
sg230
S'r_sdss_iso'
p874
sg232
g45
sg233
S'64.1'
p875
sg235
g34
sg236
S'1.18'
p876
sg238
S'-99.99'
p877
sg240
g438
sg242
S'163.02291666666667'
p878
sg244
S"['SDSSJ105233.13+363736.7']"
p879
sg246
S'163.13808'
p880
sg248
S'-99.99'
p881
sg250
S'839'
p882
sg252
S'0.036'
p883
sg254
S'64'
p884
sg256
S'r_sdss_iso'
p885
sg258
S'0.95'
p886
sg260
S'-99'
p887
sg262
S'13.6'
p888
sg264
S'584'
p889
sg266
S'149.7'
p890
sg268
g269
sg270
g846
sg271
S'0.011'
p891
sg273
S'-99.99'
p892
sg275
S'-99.99'
p893
sg277
S'63.167249'
p894
sg279
S'-99.99'
p895
sg281
F77.9
sg282
S'-99.99'
p896
sg284
S'3.774'
p897
sa(dp898
g115
S'52'
p899
sg117
S'10'
p900
sg119
S'-99.99'
p901
sg121
S'-99'
p902
sg123
F22.037
sg124
F14.42223381189613
sg125
S'70'
p903
sg127
S'0.001671'
p904
sg129
g438
sg131
g831
sg133
S'184.657548'
p905
sg135
g438
sg137
S'-99.99'
p906
sg139
S'15.698'
p907
sg141
g835
sg143
g836
sg145
S'18.915'
p908
sg147
S'10.64'
p909
sg149
S'40.8'
p910
sg151
S'-99'
p911
sg153
g438
sg155
S'-99.99'
p912
sg157
F0.6817590163539798
sg158
S'5.925'
p913
sg160
S'10.648'
p914
sg162
S'59.31'
p915
sg164
S'SDSSJ105240.79+363953.7'
p916
sg166
S'0.38'
p917
sg168
S'36.66494'
p918
sg170
S'53.784'
p919
sg172
S'-99.99'
p920
sg174
S'42'
p921
sg176
S'39'
p922
sg178
g438
sg180
S'36'
p923
sg181
S'-99.99'
p924
sg183
g854
sg185
g855
sg187
F0.07579126077112487
sg188
S'-99.99'
p925
sg190
g71
sg192
S'15.611'
p926
sg194
g71
sg195
g858
sg197
S'-99.99'
p927
sg199
F600.0
sg200
S'-99.99'
p928
sg202
g861
sg204
S'2.6'
p929
sg206
S'0.0082'
p930
sg208
g438
sg210
S'-99.99'
p931
sg212
g438
sg214
S'44.76'
p932
sg216
g867
sg218
S'SDSSJ105240.79+363953.7'
p933
sg220
S'-99.99'
p934
sg222
g870
sg224
S'-99.99'
p935
sg226
g872
sg228
S'r_sdss_iso'
p936
sg230
S'r_sdss_pet'
p937
sg232
g45
sg233
g875
sg235
g34
sg236
S'1.06'
p938
sg238
S'-99.99'
p939
sg240
g438
sg242
g878
sg244
S"['SDSSJ105240.79+363953.7']"
p940
sg246
S'163.17'
p941
sg248
S'-99.99'
p942
sg250
S'756'
p943
sg252
S'0.0038'
p944
sg254
S'67'
p945
sg256
S'r_sdss_iso'
p946
sg258
S'0.96'
p947
sg260
S'-99'
p948
sg262
S'15.8'
p949
sg264
S'501'
p950
sg266
S'114.8'
p951
sg268
g269
sg270
g917
sg271
S'0.011'
p952
sg273
S'-99.99'
p953
sg275
S'-99.99'
p954
sg277
S'63.184219'
p955
sg279
S'-99.99'
p956
sg281
F54.2
sg282
S'-99.99'
p957
sg284
S'2.311'
p958
sa(dp959
g115
S'52'
p960
sg117
S'10'
p961
sg119
S'-99.99'
p962
sg121
S'-99'
p963
sg123
F22.9
sg124
F13.191720520349119
sg125
S'35'
p964
sg127
S'0.002552'
p965
sg129
g438
sg131
g831
sg133
S'184.847516'
p966
sg135
g438
sg137
S'-99.99'
p967
sg139
S'15.532'
p968
sg141
g835
sg143
g836
sg145
S'15.837'
p969
sg147
S'14.36'
p970
sg149
S'16.7496'
p971
sg151
S'-99'
p972
sg153
g438
sg155
S'-99.99'
p973
sg157
F0.4306632764541731
sg158
S'5.583'
p974
sg160
S'14.366'
p975
sg162
S'56.93'
p976
sg164
S'UGC05983'
p977
sg166
S'0.75'
p978
sg168
S'36.59451'
p979
sg170
S'40.236'
p980
sg172
S'-99.99'
p981
sg174
S'96'
p982
sg176
S'35'
p983
sg178
g438
sg180
S'36'
p984
sg181
S'-99.99'
p985
sg183
g854
sg185
g855
sg187
F0.02486974218211488
sg188
S'-99.99'
p986
sg190
g585
sg192
S'15.79'
p987
sg194
g71
sg195
g858
sg197
S'-99.99'
p988
sg199
F600.0
sg200
S'-99.99'
p989
sg202
g861
sg204
S'3.8'
p990
sg206
S'0.011'
p991
sg208
S'DWARF'
p992
sg210
S'-99.99'
p993
sg212
g438
sg214
S'66.54'
p994
sg216
g867
sg218
S'UGC05983'
p995
sg220
S'-99.99'
p996
sg222
g870
sg224
S'-99.99'
p997
sg226
g872
sg228
S'r_sdss_iso'
p998
sg230
S'poss_103a-O'
p999
sg232
g45
sg233
g875
sg235
g34
sg236
S'1.43'
p1000
sg238
S'-99.99'
p1001
sg240
g438
sg242
g878
sg244
S"['UGC05983', 'SDSSJ105216.74+363540.2']"
p1002
sg246
S'163.06979'
p1003
sg248
S'-99.99'
p1004
sg250
S'1020'
p1005
sg252
S'0.0053'
p1006
sg254
S'34'
p1007
sg256
S'poss_103a-O'
p1008
sg258
S'0.87'
p1009
sg260
S'-99'
p1010
sg262
S'16.1'
p1011
sg264
S'765'
p1012
sg266
S'80.16'
p1013
sg268
g269
sg270
g978
sg271
S'0.011'
p1014
sg273
S'-99.99'
p1015
sg275
S'-99.99'
p1016
sg277
S'63.12044'
p1017
sg279
S'-99.99'
p1018
sg281
F59.7
sg282
S'-99.99'
p1019
sg284
S'4.634'
p1020
saa(lp1021
(dp1022
g115
S'52'
p1023
sg117
S'10'
p1024
sg119
S'-99.99'
p1025
sg121
S'-99'
p1026
sg123
F21.742
sg124
F25.119044488853472
sg125
S'66'
p1027
sg127
S'0.001947'
p1028
sg129
g438
sg131
S'6.5'
p1029
sg133
S'184.751984'
p1030
sg135
g438
sg137
S'-99.99'
p1031
sg139
S'12.132'
p1032
sg141
S'Lya'
p1033
sg143
S'3.9'
p1034
sg145
S'11.796'
p1035
sg147
S'11.81'
p1036
sg149
S'33.1392'
p1037
sg151
S'-99'
p1038
sg153
g438
sg155
S'-99.99'
p1039
sg157
F0.7923529960293945
sg158
S'8.577'
p1040
sg160
S'11.817'
p1041
sg162
S'76.56'
p1042
sg164
S'SDSSJ105233.13+363736.7'
p1043
sg166
S'0.44'
p1044
sg168
S'36.62689'
p1045
sg170
S'36.804'
p1046
sg172
S'-99.99'
p1047
sg174
S'41'
p1048
sg176
S'37'
p1049
sg178
g438
sg180
S'36'
p1050
sg181
S'-99.99'
p1051
sg183
S'129'
p1052
sg185
S'30'
p1053
sg187
F0.4060449761776484
sg188
S'-99.99'
p1054
sg190
g45
sg192
S'13.064'
p1055
sg194
S'7'
p1056
sg195
S'4.33E+13'
p1057
sg197
S'-99.99'
p1058
sg199
F662.0
sg200
S'-99.99'
p1059
sg202
S'2.62E+14'
p1060
sg204
S'0.98'
p1061
sg206
S'0.079'
p1062
sg208
S'WR?_HII'
p1063
sg210
S'-99.99'
p1064
sg212
g438
sg214
S'65.87'
p1065
sg216
S'585'
p1066
sg218
S'SDSSJ105233.13+363736.7'
p1067
sg220
S'-99.99'
p1068
sg222
S'36.67777777777778'
p1069
sg224
S'-99.99'
p1070
sg226
S'0.60999'
p1071
sg228
S'r_sdss_iso'
p1072
sg230
S'r_sdss_iso'
p1073
sg232
g45
sg233
S'77.5'
p1074
sg235
g35
sg236
S'1.18'
p1075
sg238
S'-99.99'
p1076
sg240
g438
sg242
S'163.02291666666667'
p1077
sg244
S"['SDSSJ105233.13+363736.7']"
p1078
sg246
S'163.13808'
p1079
sg248
S'-99.99'
p1080
sg250
S'839'
p1081
sg252
S'0.036'
p1082
sg254
S'64'
p1083
sg256
S'r_sdss_iso'
p1084
sg258
S'0.95'
p1085
sg260
S'-99'
p1086
sg262
S'13.6'
p1087
sg264
S'584'
p1088
sg266
S'149.7'
p1089
sg268
g269
sg270
g1044
sg271
S'0.011'
p1090
sg273
S'-99.99'
p1091
sg275
S'-99.99'
p1092
sg277
S'63.167249'
p1093
sg279
S'-99.99'
p1094
sg281
F77.9
sg282
S'-99.99'
p1095
sg284
S'3.774'
p1096
sa(dp1097
g115
S'52'
p1098
sg117
S'10'
p1099
sg119
S'-99.99'
p1100
sg121
S'-99'
p1101
sg123
F22.9
sg124
F13.191720520349119
sg125
S'35'
p1102
sg127
S'0.002552'
p1103
sg129
g438
sg131
g1029
sg133
S'184.847516'
p1104
sg135
g438
sg137
S'-99.99'
p1105
sg139
S'15.532'
p1106
sg141
g1033
sg143
g1034
sg145
S'15.837'
p1107
sg147
S'14.36'
p1108
sg149
S'16.7496'
p1109
sg151
S'-99'
p1110
sg153
g438
sg155
S'-99.99'
p1111
sg157
F0.652444790680418
sg158
S'5.583'
p1112
sg160
S'14.366'
p1113
sg162
S'56.93'
p1114
sg164
S'UGC05983'
p1115
sg166
S'0.75'
p1116
sg168
S'36.59451'
p1117
sg170
S'40.236'
p1118
sg172
S'-99.99'
p1119
sg174
S'96'
p1120
sg176
S'35'
p1121
sg178
g438
sg180
S'36'
p1122
sg181
S'-99.99'
p1123
sg183
g1052
sg185
g1053
sg187
F0.0376770777064678
sg188
S'-99.99'
p1124
sg190
g585
sg192
S'15.79'
p1125
sg194
g1056
sg195
g1057
sg197
S'-99.99'
p1126
sg199
F662.0
sg200
S'-99.99'
p1127
sg202
g1060
sg204
S'3.8'
p1128
sg206
S'0.011'
p1129
sg208
S'DWARF'
p1130
sg210
S'-99.99'
p1131
sg212
g438
sg214
S'66.54'
p1132
sg216
g1066
sg218
S'UGC05983'
p1133
sg220
S'-99.99'
p1134
sg222
g1069
sg224
S'-99.99'
p1135
sg226
g1071
sg228
S'r_sdss_iso'
p1136
sg230
S'poss_103a-O'
p1137
sg232
g45
sg233
g1074
sg235
g35
sg236
S'1.43'
p1138
sg238
S'-99.99'
p1139
sg240
g438
sg242
g1077
sg244
S"['UGC05983', 'SDSSJ105216.74+363540.2']"
p1140
sg246
S'163.06979'
p1141
sg248
S'-99.99'
p1142
sg250
S'1020'
p1143
sg252
S'0.0053'
p1144
sg254
S'34'
p1145
sg256
S'poss_103a-O'
p1146
sg258
S'0.87'
p1147
sg260
S'-99'
p1148
sg262
S'16.1'
p1149
sg264
S'765'
p1150
sg266
S'80.16'
p1151
sg268
g269
sg270
g1116
sg271
S'0.011'
p1152
sg273
S'-99.99'
p1153
sg275
S'-99.99'
p1154
sg277
S'63.12044'
p1155
sg279
S'-99.99'
p1156
sg281
F59.7
sg282
S'-99.99'
p1157
sg284
S'4.634'
p1158
sa(dp1159
g115
S'52'
p1160
sg117
S'10'
p1161
sg119
S'-99.99'
p1162
sg121
S'-99'
p1163
sg123
F22.037
sg124
F14.42223381189613
sg125
S'70'
p1164
sg127
S'0.001671'
p1165
sg129
g438
sg131
g1029
sg133
S'184.657548'
p1166
sg135
g438
sg137
S'-99.99'
p1167
sg139
S'15.698'
p1168
sg141
g1033
sg143
g1034
sg145
S'18.915'
p1169
sg147
S'10.64'
p1170
sg149
S'40.8'
p1171
sg151
S'-99'
p1172
sg153
g438
sg155
S'-99.99'
p1173
sg157
F0.4556277994522937
sg158
S'5.925'
p1174
sg160
S'10.648'
p1175
sg162
S'59.31'
p1176
sg164
S'SDSSJ105240.79+363953.7'
p1177
sg166
S'0.38'
p1178
sg168
S'36.66494'
p1179
sg170
S'53.784'
p1180
sg172
S'-99.99'
p1181
sg174
S'42'
p1182
sg176
S'39'
p1183
sg178
g438
sg180
S'36'
p1184
sg181
S'-99.99'
p1185
sg183
g1052
sg185
g1053
sg187
F0.05065221659632986
sg188
S'-99.99'
p1186
sg190
g71
sg192
S'15.611'
p1187
sg194
g1056
sg195
g1057
sg197
S'-99.99'
p1188
sg199
F662.0
sg200
S'-99.99'
p1189
sg202
g1060
sg204
S'2.6'
p1190
sg206
S'0.0082'
p1191
sg208
g438
sg210
S'-99.99'
p1192
sg212
g438
sg214
S'44.76'
p1193
sg216
g1066
sg218
S'SDSSJ105240.79+363953.7'
p1194
sg220
S'-99.99'
p1195
sg222
g1069
sg224
S'-99.99'
p1196
sg226
g1071
sg228
S'r_sdss_iso'
p1197
sg230
S'r_sdss_pet'
p1198
sg232
g45
sg233
g1074
sg235
g35
sg236
S'1.06'
p1199
sg238
S'-99.99'
p1200
sg240
g438
sg242
g1077
sg244
S"['SDSSJ105240.79+363953.7']"
p1201
sg246
S'163.17'
p1202
sg248
S'-99.99'
p1203
sg250
S'756'
p1204
sg252
S'0.0038'
p1205
sg254
S'67'
p1206
sg256
S'r_sdss_iso'
p1207
sg258
S'0.96'
p1208
sg260
S'-99'
p1209
sg262
S'15.8'
p1210
sg264
S'501'
p1211
sg266
S'114.8'
p1212
sg268
g269
sg270
g1178
sg271
S'0.011'
p1213
sg273
S'-99.99'
p1214
sg275
S'-99.99'
p1215
sg277
S'63.184219'
p1216
sg279
S'-99.99'
p1217
sg281
F54.2
sg282
S'-99.99'
p1218
sg284
S'2.311'
p1219
saa(lp1220
(dp1221
g115
S'29'
p1222
sg117
S'12'
p1223
sg119
S'14.6'
p1224
sg121
S'-99'
p1225
sg123
F170.98
sg124
F28.659042240190093
sg125
S'62'
p1226
sg127
S'0.005254'
p1227
sg129
S'B_(Johnson)'
p1228
sg131
S'3.6'
p1229
sg133
S'289.589197'
p1230
sg135
S'B_(Johnson)'
p1231
sg137
S'-99.99'
p1232
sg139
S'14.741'
p1233
sg141
S'Lya'
p1234
sg143
S'2.2'
p1235
sg145
S'14.788'
p1236
sg147
S'14.6'
p1237
sg149
S'2.1408'
p1238
sg151
S'145'
p1239
sg153
S'TF'
p1240
sg155
S'0.094'
p1241
sg157
F0.012056946068598393
sg158
S'9.365'
p1242
sg160
S'26.341'
p1243
sg162
S'81.35'
p1244
sg164
S'UGC07612'
p1245
sg166
S'4.2'
p1246
sg168
S'2.72319'
p1247
sg170
S'23.484'
p1248
sg172
S'24.25'
p1249
sg174
S'145'
p1250
sg176
S'43'
p1251
sg178
S'LC_V'
p1252
sg180
g191
sg181
S'0.058'
p1253
sg183
S'70'
p1254
sg185
g191
sg187
F3.481685003745826e-16
sg188
S'0.54'
p1255
sg190
g585
sg192
S'14.993'
p1256
sg194
g71
sg195
S'1.05E+12'
p1257
sg197
S'14.4'
p1258
sg199
F1580.0
sg200
S'14.6'
p1259
sg202
S'1.43E+14'
p1260
sg204
S'9.6'
p1261
sg206
S'0.025'
p1262
sg208
S'Sm:_HII'
p1263
sg210
S'14.1'
p1264
sg212
S'B_(B_T^0)'
p1265
sg214
S'66.15'
p1266
sg216
S'369'
p1267
sg218
S'UGC07612'
p1268
sg220
S'33.9'
p1269
sg222
S'2.0525'
p1270
sg224
S'15.1'
p1271
sg226
S'0.15834'
p1272
sg228
S'poss_103a-O'
p1273
sg230
S'poss_103a-O'
p1274
sg232
g45
sg233
S'42'
p1275
sg235
g36
sg236
S'9.65'
p1276
sg238
S'0.23'
p1277
sg240
S'.S..9*.'
p1278
sg242
S'187.27791666666667'
p1279
sg244
S"['UGC07612', 'SDSSJ122901.87+024324.6']"
p1280
sg246
S'187.25892'
p1281
sg248
S'0.17'
p1282
sg250
S'1870'
p1283
sg252
S'0.076'
p1284
sg254
S'60'
p1285
sg256
S'poss_103a-O'
p1286
sg258
S'1.3'
p1287
sg260
S'-99'
p1288
sg262
S'15.3'
p1289
sg264
S'1575'
p1290
sg266
S'132.3'
p1291
sg268
g269
sg270
g1246
sg271
S'0.0153'
p1292
sg273
S'0.074'
p1293
sg275
S'9.65'
p1294
sg277
S'65.012984'
p1295
sg279
S'128.28'
p1296
sg281
F33.4
sg282
S'0.031'
p1297
sg284
S'4.682'
p1298
sa(dp1299
g115
S'34'
p1300
sg117
S'12'
p1301
sg119
S'14.9'
p1302
sg121
S'170002'
p1303
sg123
F348.733
sg124
F161.20465603697681
sg125
S'61'
p1304
sg127
S'0.006031'
p1305
sg129
g359
sg131
g1229
sg133
S'292.949501'
p1306
sg135
S'B_(B_T)'
p1307
sg137
S'21'
p1308
sg139
S'12'
p1309
sg141
g1234
sg143
g1235
sg145
S'11.106'
p1310
sg147
S'14.9'
p1311
sg149
S'27.0504'
p1312
sg151
S'130'
p1313
sg153
S'Ceph'
p1314
sg155
S'1.0'
p1315
sg157
F0.0064025696903046705
sg158
S'29.62'
p1316
sg160
S'29.614'
p1317
sg162
S'180.05'
p1318
sg164
S'NGC4536'
p1319
sg166
S'2.9'
p1320
sg168
S'2.18814'
p1321
sg170
S'17.304'
p1322
sg172
S'15.363'
p1323
sg174
S'95'
p1324
sg176
S'11'
p1325
sg178
S'LC_II-III'
p1326
sg180
g191
sg181
S'2.0'
p1327
sg183
g1254
sg185
g191
sg187
F0.0025302449034422273
sg188
S'0.43'
p1328
sg190
g186
sg192
S'13.181'
p1329
sg194
g71
sg195
g1257
sg197
S'10.6'
p1330
sg199
F1580.0
sg200
S'8.67'
p1331
sg202
g1260
sg204
S'11.0'
p1332
sg206
S'0.11'
p1333
sg208
S'SAB(rs)bc;HII_Sbrst'
p1334
sg210
S'9.89'
p1335
sg212
S'B_(B_T^0)'
p1336
sg214
S'213.2'
p1337
sg216
g1267
sg218
S'NGC4536'
p1338
sg220
S'28.0'
p1339
sg222
g1270
sg224
S'11.2'
p1340
sg226
g1272
sg228
S'K_lga2mass_tot'
p1341
sg230
S'K_lga2mass_tot'
p1342
sg232
g45
sg233
g1275
sg235
g36
sg236
S'2.83'
p1343
sg238
S'3.3'
p1344
sg240
S'.SXT4..'
p1345
sg242
g1279
sg244
S"['NGC4536', 'UGC07732', '2MASXJ12342712+0211163', 'SDSSJ123427.04+021117.2']"
p1346
sg246
S'188.61271'
p1347
sg248
S'1.8'
p1348
sg250
S'2103'
p1349
sg252
S'0.093'
p1350
sg254
S'59'
p1351
sg256
S'K_lga2mass_tot'
p1352
sg258
S'21.0'
p1353
sg260
g74
sg262
S'13.8'
p1354
sg264
S'1808'
p1355
sg266
S'410.0'
p1356
sg268
g269
sg270
g1320
sg271
S'0.0157'
p1357
sg273
S'3.8'
p1358
sg275
S'2.83'
p1359
sg277
S'64.730132'
p1360
sg279
S'455.15'
p1361
sg281
F10.8
sg282
S'1.2'
p1362
sg284
S'15.4'
p1363
sa(dp1364
g115
S'29'
p1365
sg117
S'12'
p1366
sg119
S'-99.99'
p1367
sg121
S'-99'
p1368
sg123
F94.177
sg124
F8.49394836027392
sg125
S'62'
p1369
sg127
S'0.005966'
p1370
sg129
S'B_(LCO)'
p1371
sg131
g1229
sg133
S'290.374472'
p1372
sg135
S'b_J'
p1373
sg137
S'-99.99'
p1374
sg139
S'16.674'
p1375
sg141
g1234
sg143
g1235
sg145
S'16.08'
p1376
sg147
S'29.34'
p1377
sg149
S'50.58'
p1378
sg151
S'-99'
p1379
sg153
g438
sg155
S'0.0049'
p1380
sg157
F0.005540459592975663
sg158
S'4.163'
p1381
sg160
S'29.346'
p1382
sg162
S'46.49'
p1383
sg164
S'2PIGGNGPGALB+3.26065+0.04028'
p1384
sg166
S'0.31'
p1385
sg168
S'2.03158'
p1386
sg170
S'53.688'
p1387
sg172
S'-99.99'
p1388
sg174
S'152'
p1389
sg176
g71
sg178
g438
sg180
g191
sg181
S'0.012'
p1390
sg183
g1254
sg185
g191
sg187
F1.368898515450383e-54
sg188
S'-99.99'
p1391
sg190
g191
sg192
S'17.204'
p1392
sg194
g71
sg195
g1257
sg197
S'17.6'
p1393
sg199
F1580.0
sg200
S'-99.99'
p1394
sg202
g1260
sg204
S'0.67'
p1395
sg206
S'0.012'
p1396
sg208
g438
sg210
S'17.6'
p1397
sg212
S'B_(LCO)'
p1398
sg214
S'14.63'
p1399
sg216
g1267
sg218
S'SDSSJ122950.57+020153.7'
p1400
sg220
S'-99.99'
p1401
sg222
g1270
sg224
S'17.8'
p1402
sg226
g1272
sg228
S'r_sdss_iso'
p1403
sg230
S'r_sdss_iso'
p1404
sg232
g45
sg233
g1275
sg235
g36
sg236
S'2.93'
p1405
sg238
S'0.0054'
p1406
sg240
g438
sg242
g1279
sg244
S"['SDSSJ122950.57+020153.7']"
p1407
sg246
S'187.46075'
p1408
sg248
S'0.0054'
p1409
sg250
S'2084'
p1410
sg252
S'0.0057'
p1411
sg254
S'60'
p1412
sg256
S'r_sdss_iso'
p1413
sg258
S'0.32'
p1414
sg260
S'-99'
p1415
sg262
S'17.6'
p1416
sg264
S'1789'
p1417
sg266
S'29.26'
p1418
sg268
g269
sg270
g1385
sg271
S'0.0165'
p1419
sg273
S'0.012'
p1420
sg275
S'-99.99'
p1421
sg277
S'64.375538'
p1422
sg279
S'-99.99'
p1423
sg281
F55.5
sg282
S'0.01'
p1424
sg284
S'2.082'
p1425
saas.