(dp0
S'Vhels'
p1
(lp2
F1284.0
aF7312.0
aF616.0
aF616.0
aF1736.0
asS'impacts'
p3
(lp4
F100.931
aF366.291
aF20.517
aF20.517
aF330.608
asS'group_dists'
p5
(lp6
F14.9
aF76.7
aF8.9
aF8.9
aF21.0
asS'MTypes'
p7
(lp8
S'E+0-1_pec;NLRG_Sy'
p9
aS'SA(s)0^0^:'
p10
aS'SB(s)m;LINER_HII'
p11
aS'SB(s)m;LINER_HII'
p12
aS'SAB(s)bc;HII_LINER'
p13
asS'e_Lya_Ws'
p14
(lp15
F20.0
aF9.0
aF25.0
aF30.0
aF2.0
asS'e_Lstar_sdsss'
p16
(lp17
F3.3
aF0.49
aF-99.99
aF-99.99
aF-99.99
asS'Bmag_sdsss'
p18
(lp19
F10.0
aF15.2
aF-99.99
aF-99.99
aF-99.99
asS'Nas'
p20
(lp21
F46400000000000.0
aF10700000000000.0
aF262000000000000.0
aF262000000000000.0
aF143000000000000.0
asS'Lya_Ws'
p22
(lp23
F176.0
aF51.0
aF568.0
aF585.0
aF369.0
asS'bestDists'
p24
(lp25
F16.4
aF110.0
aF11.3
aF11.3
aF13.6
asS'adjustedIncs'
p26
(lp27
F31.0
aF17.0
aF90.0
aF90.0
aF74.0
asS'targets'
p28
(lp29
S'MS1228.6+1219'
p30
aS'RX_J1236.0+2641'
p31
aS'CSO295'
p32
aS'CSO295'
p33
aS'3C273.0'
p34
asS'e_bs'
p35
(lp36
F2.4
aF3.0
aF3.7
aF3.9
aF2.2
asS'incs'
p37
(lp38
F31.0
aF16.0
aF78.0
aF78.0
aF70.0
asS'azimuths'
p39
(lp40
F11.1
aF45.7
aF81.6
aF81.6
aF5.6
asS'group_nums'
p41
(lp42
S'100002'
p43
aS'100082'
p44
aS'112910'
p45
aS'112910'
p46
aS'170002'
p47
asS'Ws'
p48
(lp49
F57.5
aF34.6
aF106.8
aF129.0
aF70.0
asS'ls'
p50
(lp51
F0.19277267513827911
aF0.05953674544917223
aF0.9804125209542504
aF0.9358670472419909
aF0.023991275666620748
asS'Lya_vs'
p52
(lp53
F1046.0
aF7223.0
aF600.0
aF662.0
aF1580.0
asS'R_virs'
p54
(lp55
F210.39
aF226.16
aF177.36
aF177.36
aF187.12
asS'Bmags'
p56
(lp57
F9.59
aF14.3
aF11.7
aF11.7
aF11.4
asS'cuss'
p58
(lp59
F226.1579981517346
aF264.6439567569983
aF156.0082523201898
aF156.0082523201898
aF175.280107165645
asS'vcorrs'
p60
(lp61
F1584.0
aF7603.0
aF871.0
aF871.0
aF2031.0
asS'e_Nas'
p62
(lp63
F6410000000000.0
aF2010000000000.0
aF42500000000000.0
aF43300000000000.0
aF1050000000000.0
asS'e_bestDists'
p64
(lp65
F2.79
aF7.34
aF4.21
aF4.21
aF3.3
asS'group_mems'
p66
(lp67
S'197'
p68
aS'12'
p69
aS'1'
p70
ag70
aS'4'
p71
asS'e_Lstar_meds'
p72
(lp73
F4.8
aF1.2
aF0.72
aF0.72
aF0.91
asS'Dec_targets'
p74
(lp75
F12.051944444444445
aF26.693333333333335
aF36.67777777777778
aF36.67777777777778
aF2.0525
asS'PAs'
p76
(lp77
F153.0
aF90.0
aF43.0
aF43.0
aF70.0
asS'Lstar_meds'
p78
(lp79
F6.2
aF3.8
aF0.42
aF0.42
aF0.81
asS'RA_galaxies'
p80
(lp81
F187.70593
aF189.16625
aF163.12971
aF163.12971
aF188.53509
asS'bs'
p82
(lp83
F34.5
aF20.8
aF64.1
aF77.5
aF42.0
asS'e_Ws'
p84
(lp85
F3.9
aF5.0
aF6.1
aF6.5
aF3.6
asS'Dec_galaxies'
p86
(lp87
F12.39112
aF26.82994
aF36.61878
aF36.61878
aF2.65366
asS'MajDiams'
p88
(lp89
F37.12
aF41.22
aF28.98
aF28.98
aF31.32
asS'RA_targets'
p90
(lp91
F187.80458333333334
aF189.01708333333332
aF163.02291666666667
aF163.02291666666667
aF187.27791666666667
asS'e_Lya_vs'
p92
(lp93
F2.0
aF1.0
aF1.0
aF7.0
aF1.0
asS'z_targets'
p94
(lp95
F0.11612
aF0.20915
aF0.60999
aF0.60999
aF0.15834
asS'Lstar_sdsss'
p96
(lp97
F4.2
aF1.6
aF-99.99
aF-99.99
aF-99.99
asS'Names'
p98
(lp99
S'NGC4486'
p100
aS'IC3585'
p101
aS'NGC3432'
p102
aS'NGC3432'
p103
aS'NGC4527'
p104
asS'l_cuss'
p105
(lp106
F0.19883685626508646
aF0.12078664404544016
aF0.9765830553408188
aF0.9322115750814878
aF0.015513641382541077
asS'others'
p107
(lp108
(lp109
(dp110
S'RAm'
p111
S'31'
p112
sS'RAh'
p113
S'12'
p114
sS'RID_median'
p115
S'-99.99'
p116
sS'group_num'
p117
S'-99'
p118
sS'impact'
p119
F22.059
sS'cus'
p120
F4.134459937646028
sS'adjustedInc'
p121
S'50'
p122
sS'z'
p123
S'0.002591'
p124
sS'Bmag_max_key'
p125
S'B_t'
p126
sS'e_W'
p127
S'3.9'
p128
sS'GLON'
p129
S'284.766394'
p130
sS'Bmag_min_key'
p131
S'B_J_25'
p132
sS'group_dist'
p133
S'-99.99'
p134
sS'rmag_sdss'
p135
S'16.371'
p136
sS'identified'
p137
S'Lya'
p138
sS'e_b'
p139
S'2.4'
p140
sS'zmag_sdss'
p141
S'16.007'
p142
sS'bestDist'
p143
S'15.16'
p144
sS'RAs'
p145
S'33.3528'
p146
sS'RC3_pa'
p147
S'-99'
p148
sS'distIndicator'
p149
S'x'
p150
sS'e_Lstar_min'
p151
S'0.0018'
p152
sS'l'
p153
F0.10587677862750439
sS'MajDiam'
p154
S'2.576'
p155
sS'distvcorr'
p156
S'15.168'
p157
sS'R_vir'
p158
S'33.39'
p159
sS'Name'
p160
S'PGC041458'
p161
sS'e_MajDiam'
p162
S'0.22'
p163
sS'DEdeg'
p164
S'12.06378'
p165
sS'DEs'
p166
S'49.608'
p167
sS'RID_mean'
p168
S'-99.99'
p169
sS'PA'
p170
S'154'
p171
sS'DEm'
p172
S'3'
p173
sS'lumClass'
p174
g150
sS'DEd'
p175
S'12'
p176
sS'Lstar_med'
p177
S'0.0064'
p178
sS'W'
p179
S'57.5'
p180
sS'e_Lya_W'
p181
S'20'
p182
sS'l_cus'
p183
F7.104062631394904e-14
sS'RC3_r25'
p184
S'-99.99'
p185
sS'e_inc'
p186
g70
sS'gmag_sdss'
p187
S'16.991'
p188
sS'e_Lya_v'
p189
S'2'
p190
sS'e_Na'
p191
S'6.41E+12'
p192
sS'Bmag'
p193
S'16.9'
p194
sS'Lya_v'
p195
F1046.0
sS'RID_min'
p196
S'-99.99'
p197
sS'Na'
p198
S'4.64E+13'
p199
sS'e_MinDiam_ang'
p200
S'0.58'
p201
sS'Lstar_sdss'
p202
S'0.004'
p203
sS'MType'
p204
S'dE6,N'
p205
sS'Bmag_max'
p206
S'16.8'
p207
sS'Bmag_key'
p208
S'B_tot__(INT/WFC)'
p209
sS'MinDiam_ang'
p210
S'23.12'
p211
sS'Lya_W'
p212
S'176'
p213
sS'NEDname'
p214
S'VCC1369'
p215
sS'RID_max'
p216
S'-99.99'
p217
sS'Dec_target'
p218
S'12.051944444444445'
p219
sS'Bmag_min'
p220
S'17.4'
p221
sS'z_target'
p222
S'0.11612'
p223
sS'paKey'
p224
S'r_sdss_iso'
p225
sS'diameterKey'
p226
S'r_sdss_iso'
p227
sS'flag'
p228
S'0'
p229
sS'b'
p230
S'34.5'
p231
sS'target'
p232
g30
sS'e_bestDist'
p233
S'1.51'
p234
sS'e_Lstar_max'
p235
S'0.0033'
p236
sS'RC3_type'
p237
g150
sS'RA_target'
p238
S'187.80458333333334'
p239
sS'altNames'
p240
S"['SDSSJ123133.35+120349.5']"
p241
sS'RAdeg'
p242
S'187.88897'
p243
sS'e_Lstar_med'
p244
S'0.0029'
p245
sS'vcorr'
p246
S'1077'
p247
sS'e_Lstar_sdss'
p248
S'0.0018'
p249
sS'inc'
p250
S'49'
p251
sS'ratioKey'
p252
S'r_sdss_iso'
p253
sS'e_MajDiam_ang'
p254
S'0.35'
p255
sS'group_mem'
p256
S'-99'
p257
sS'Bmag_sdss'
p258
S'17.4'
p259
sS'Vhel'
p260
S'777'
p261
sS'MajDiam_ang'
p262
S'35.03'
p263
sS'DE-'
p264
S'+'
p265
sS'e_MinDiam'
p266
g163
sS'E(B-V)'
p267
S'0.0242'
p268
sS'Lstar_max'
p269
S'0.0069'
p270
sS'RID_std'
p271
S'-99.99'
p272
sS'GLAT'
p273
S'74.230105'
p274
sS'RC3_d25'
p275
S'-99.99'
p276
sS'azimuth'
p277
F72.2
sS'Lstar_min'
p278
S'0.0039'
p279
sS'MinDiam'
p280
S'1.7'
p281
sa(dp282
g111
S'31'
p283
sg113
S'12'
p284
sg115
S'-99.99'
p285
sg117
S'100002'
p286
sg119
F143.636
sg120
F50.099014750791255
sg121
S'71'
p287
sg123
S'0.003486'
p288
sg125
S'B_(B_T)'
p289
sg127
g128
sg129
S'285.201512'
p290
sg131
S'B_(m_B)'
p291
sg133
S'14.9'
p292
sg135
S'12.506'
p293
sg137
g138
sg139
g140
sg141
S'11.947'
p294
sg143
S'18.94'
p295
sg145
S'32.5272'
p296
sg147
S'65'
p297
sg149
g150
sg151
S'0.12'
p298
sg153
F0.15490468605143468
sg154
S'13.59'
p299
sg156
S'18.942'
p300
sg158
S'105.18'
p301
sg160
S'NGC4497'
p302
sg162
S'0.52'
p303
sg164
S'11.62472'
p304
sg166
S'28.992'
p305
sg168
S'-99.99'
p306
sg170
S'75'
p307
sg172
S'37'
p308
sg174
g150
sg175
S'11'
p309
sg177
S'0.3'
p310
sg179
g180
sg181
g182
sg183
F0.0002692265924263614
sg184
S'0.46'
p311
sg186
g190
sg187
S'13.215'
p312
sg189
g190
sg191
g192
sg193
S'13.2'
p313
sg195
F1046.0
sg196
S'-99.99'
p314
sg198
g199
sg200
S'2.8'
p315
sg202
S'0.2'
p316
sg204
S'SAB(s)0+:'
p317
sg206
S'13.2'
p318
sg208
S'B_(B_T^0)'
p319
sg210
S'56.24'
p320
sg212
g213
sg214
S'NGC4497'
p321
sg216
S'-99.99'
p322
sg218
g219
sg220
S'13.4'
p323
sg222
g223
sg224
S'K_2mass_tot'
p324
sg226
S'K_2mass_tot'
p325
sg228
g229
sg230
g231
sg232
g30
sg233
S'1.89'
p326
sg235
S'0.15'
p327
sg237
S'.LXS+*.'
p328
sg238
g239
sg240
S"['NGC4497', 'IC3452', 'UGC07665', '2MASXJ12313253+1137291', 'SDSSJ123132.52+113728.9']"
p329
sg242
S'187.88553'
p330
sg244
S'0.14'
p331
sg246
S'1345'
p332
sg248
S'0.093'
p333
sg250
S'68'
p334
sg252
S'K_2mass_tot'
p335
sg254
S'7.4'
p336
sg256
S'197'
p337
sg258
S'13.7'
p338
sg260
S'1045'
p339
sg262
S'148.0'
p340
sg264
g265
sg266
g303
sg267
S'0.0369'
p341
sg269
S'0.31'
p342
sg271
S'-99.99'
p343
sg273
S'73.807687'
p344
sg275
S'122.5'
p345
sg277
F85.5
sg278
S'0.25'
p346
sg280
S'5.165'
p347
sa(dp348
g111
S'30'
p349
sg113
S'12'
p350
sg115
S'-99.99'
p351
sg117
S'-99'
p352
sg119
F134.905
sg120
F72.76894534758628
sg121
S'12'
p353
sg123
S'0.0042'
p354
sg125
g150
sg127
g128
sg129
S'283.753686'
p355
sg131
g150
sg133
S'-99.99'
p356
sg135
S'11.752'
p357
sg137
g138
sg139
g140
sg141
S'10.94'
p358
sg143
S'21.95'
p359
sg145
S'47.5512'
p360
sg147
S'-99'
p361
sg149
g150
sg151
S'-99.99'
p362
sg153
F0.10013624810395332
sg154
S'17.43'
p363
sg156
S'21.957'
p364
sg158
S'124.88'
p365
sg160
S'SDSSJ123047.55+122318.1'
p366
sg162
S'1.9'
p367
sg164
S'12.38836'
p368
sg166
S'18.096'
p369
sg168
S'-99.99'
p370
sg170
S'5'
p371
sg172
S'23'
p372
sg174
g150
sg175
S'12'
p373
sg177
S'-99.99'
p374
sg179
g180
sg181
g182
sg183
F0.01034655632516298
sg184
S'-99.99'
p375
sg186
g173
sg187
S'12.544'
p376
sg189
g190
sg191
g192
sg193
S'-99.99'
p377
sg195
F1046.0
sg196
S'-99.99'
p378
sg198
g199
sg200
S'1.3'
p379
sg202
S'0.47'
p380
sg204
g150
sg206
S'-99.99'
p381
sg208
g150
sg210
S'160.5'
p382
sg212
g213
sg214
S'SDSSJ123047.55+122318.1'
p383
sg216
S'-99.99'
p384
sg218
g219
sg220
S'-99.99'
p385
sg222
g223
sg224
S'r_sdss_dev'
p386
sg226
S'r_sdss_pet'
p387
sg228
g229
sg230
g231
sg232
g30
sg233
S'2.19'
p388
sg235
S'-99.99'
p389
sg237
g150
sg238
g239
sg240
S"['SDSSJ123047.55+122318.1']"
p390
sg242
S'187.69813'
p391
sg244
S'-99.99'
p392
sg246
S'1559'
p393
sg248
S'0.22'
p394
sg250
S'12'
p395
sg252
S'r_sdss_dev'
p396
sg254
S'1.3'
p397
sg256
S'-99'
p398
sg258
S'13'
p399
sg260
S'1259'
p400
sg262
S'163.8'
p401
sg264
g265
sg266
g367
sg267
S'0.0196'
p402
sg269
S'-99.99'
p403
sg271
S'-99.99'
p404
sg273
S'74.486215'
p405
sg275
S'-99.99'
p406
sg277
F22.2
sg278
S'-99.99'
p407
sg280
S'17.08'
p408
saa(lp409
(dp410
g111
S'36'
p411
sg113
S'12'
p412
sg115
S'-99.99'
p413
sg117
S'-99'
p414
sg119
F131.386
sg120
F25.599397118994816
sg121
S'45'
p415
sg123
S'0.024591'
p416
sg125
g150
sg127
g371
sg129
S'218.322536'
p417
sg131
g150
sg133
S'-99.99'
p418
sg135
S'16.007'
p419
sg137
S'Lya'
p420
sg139
g173
sg141
S'15.395'
p421
sg143
S'107.93'
p422
sg145
S'12.2616'
p423
sg147
S'-99'
p424
sg149
g150
sg151
S'-99.99'
p425
sg153
F0.031770762648058115
sg154
S'8.686'
p426
sg156
S'107.931'
p427
sg158
S'77.23'
p428
sg160
S'IC3565'
p429
sg162
S'0.63'
p430
sg164
S'26.75612'
p431
sg166
S'22.032'
p432
sg168
S'-99.99'
p433
sg170
S'25'
p434
sg172
S'45'
p435
sg174
g150
sg175
S'26'
p436
sg177
S'-99.99'
p437
sg179
S'34.6'
p438
sg181
S'9'
p439
sg183
F2.084658396859238e-12
sg184
S'-99.99'
p440
sg186
g71
sg187
S'16.711'
p441
sg189
g70
sg191
S'2.01E+12'
p442
sg193
S'-99.99'
p443
sg195
F7223.0
sg196
S'-99.99'
p444
sg198
S'1.07E+13'
p445
sg200
S'0.6'
p446
sg202
S'0.25'
p447
sg204
g150
sg206
S'-99.99'
p448
sg208
g150
sg210
S'11.95'
p449
sg212
S'51'
p450
sg214
S'IC3565'
p451
sg216
S'-99.99'
p452
sg218
S'26.693333333333335'
p453
sg220
S'-99.99'
p454
sg222
S'0.20915'
p455
sg224
S'K_2mass_tot'
p456
sg226
S'K_2mass_tot'
p457
sg228
g229
sg230
S'20.8'
p458
sg232
g31
sg233
S'10.79'
p459
sg235
S'-99.99'
p460
sg237
g150
sg238
S'189.01708333333332'
p461
sg240
S"['IC3565', '2MASXJ12361227+2645221', 'SDSSJ123612.26+264521.9']"
p462
sg242
S'189.05109'
p463
sg244
S'-99.99'
p464
sg246
S'7663'
p465
sg248
S'0.12'
p466
sg250
S'44'
p467
sg252
S'r_sdss_iso'
p468
sg254
S'0.83'
p469
sg256
S'-99'
p470
sg258
S'17.2'
p471
sg260
S'7372'
p472
sg262
S'16.6'
p473
sg264
g265
sg266
g430
sg267
S'0.0172'
p474
sg269
S'-99.99'
p475
sg271
S'-99.99'
p476
sg273
S'86.58476'
p477
sg275
S'-99.99'
p478
sg277
F0.8
sg278
S'-99.99'
p479
sg280
S'6.254'
p480
sa(dp481
g111
S'36'
p482
sg113
S'12'
p483
sg115
S'-99.99'
p484
sg117
S'-99'
p485
sg119
F177.718
sg120
F130.05851860989347
sg121
S'77'
p486
sg123
S'0.025151'
p487
sg125
g150
sg127
g371
sg129
S'217.76268'
p488
sg131
g150
sg133
S'-99.99'
p489
sg135
S'-99.99'
p490
sg137
g420
sg139
g173
sg141
S'-99.99'
p491
sg143
S'110.29'
p492
sg145
S'2.2104'
p493
sg147
S'-99'
p494
sg149
g150
sg151
S'-99.99'
p495
sg153
F0.024742850860609622
sg154
S'25.67'
p496
sg156
S'110.297'
p497
sg158
S'163.12'
p498
sg160
S'2MFGC09922'
p499
sg162
S'0.77'
p500
sg164
S'26.78539'
p501
sg166
S'7.404'
p502
sg168
S'-99.99'
p503
sg170
S'25'
p504
sg172
S'47'
p505
sg174
g150
sg175
S'26'
p506
sg177
S'-99.99'
p507
sg179
g438
sg181
g439
sg183
F0.01253286507834713
sg184
S'-99.99'
p508
sg186
g70
sg187
S'-99.99'
p509
sg189
g70
sg191
g442
sg193
S'-99.99'
p510
sg195
F7223.0
sg196
S'-99.99'
p511
sg198
g445
sg200
S'0.72'
p512
sg202
S'-99.99'
p513
sg204
g150
sg206
S'-99.99'
p514
sg208
g150
sg210
S'14.4'
p515
sg212
g450
sg214
S'2MFGC09922'
p516
sg216
S'-99.99'
p517
sg218
g453
sg220
S'-99.99'
p518
sg222
g455
sg224
S'K_2mass_tot'
p519
sg226
S'K_2mass_tot'
p520
sg228
g229
sg230
g458
sg232
g31
sg233
S'11.02'
p521
sg235
S'-99.99'
p522
sg237
g150
sg238
g461
sg240
S"['2MASXJ12360219+2647071', 'SDSSJ123602.20+264707.3']"
p523
sg242
S'189.00921'
p524
sg244
S'-99.99'
p525
sg246
S'7831'
p526
sg248
S'-99.99'
p527
sg250
S'73'
p528
sg252
S'K_2mass_tot'
p529
sg254
S'2.4'
p530
sg256
S'-99'
p531
sg258
S'-99.99'
p532
sg260
S'7540'
p533
sg262
S'48.0'
p534
sg264
g265
sg266
g500
sg267
S'0.0163'
p535
sg269
S'-99.99'
p536
sg271
S'-99.99'
p537
sg273
S'86.551124'
p538
sg275
S'-99.99'
p539
sg277
F29.4
sg278
S'-99.99'
p540
sg280
S'7.7'
p541
sa(dp542
g111
S'35'
p543
sg113
S'12'
p544
sg115
S'110.0'
p545
sg117
S'100082'
p546
sg119
F433.857
sg120
F404.11450691109815
sg121
S'47'
p547
sg123
S'0.024987'
p548
sg125
S'B_(m_B^0)'
p549
sg127
g371
sg129
S'215.636722'
p550
sg131
S'B_(Johnson)'
p551
sg133
S'76.7'
p552
sg135
S'12.94'
p553
sg137
g420
sg139
g173
sg141
S'12.294'
p554
sg143
S'110'
p555
sg145
S'45.8568'
p556
sg147
S'80'
p557
sg149
S'TF'
p558
sg151
S'0.64'
p559
sg153
F0.013724070411467367
sg154
S'54.66'
p560
sg156
S'109.605'
p561
sg158
S'274.78'
p562
sg160
S'NGC4556'
p563
sg162
S'1.7'
p564
sg164
S'26.90889'
p565
sg166
S'32.004'
p566
sg168
S'108.667'
p567
sg170
S'70'
p568
sg172
S'54'
p569
sg174
g150
sg175
S'26'
p570
sg177
S'4.4'
p571
sg179
g438
sg181
g439
sg183
F0.05243320621074266
sg184
S'0.83'
p572
sg186
g71
sg187
S'13.747'
p573
sg189
g70
sg191
g442
sg193
S'14.1'
p574
sg195
F7223.0
sg196
S'102.0'
p575
sg198
g445
sg200
S'3.6'
p576
sg202
S'3.8'
p577
sg204
S'E+:'
p578
sg206
S'13.9'
p579
sg208
S'B_(m_B)'
p580
sg210
S'71.75'
p581
sg212
g450
sg214
S'NGC4556'
p582
sg216
S'114.0'
p583
sg218
g453
sg220
S'14.6'
p584
sg222
g455
sg224
S'K_2mass_tot'
p585
sg226
S'K_2mass_tot'
p586
sg228
g229
sg230
g458
sg232
g31
sg233
S'4.98'
p587
sg235
S'1.0'
p588
sg237
S'.E+..*.'
p589
sg238
g461
sg240
S"['NGC4556', 'UGC07765', '2MASXJ12354585+2654317', 'SDSSJ123545.85+265431.9']"
p590
sg242
S'188.94107'
p591
sg244
S'1.1'
p592
sg246
S'7782'
p593
sg248
S'0.8'
p594
sg250
S'46'
p595
sg252
S'K_2mass_tot'
p596
sg254
S'5.1'
p597
sg256
S'12'
p598
sg258
S'14.2'
p599
sg260
S'7491'
p600
sg262
S'102.5'
p601
sg264
g265
sg266
g564
sg267
S'0.0151'
p602
sg269
S'5.0'
p603
sg271
S'4.989'
p604
sg273
S'86.502512'
p605
sg275
S'72.14'
p606
sg277
F87.5
sg278
S'2.7'
p607
sg280
S'38.26'
p608
saa(lp609
(dp610
g111
S'52'
p611
sg113
S'10'
p612
sg115
S'-99.99'
p613
sg117
S'-99'
p614
sg119
F21.742
sg120
F25.119044488853472
sg121
S'66'
p615
sg123
S'0.001947'
p616
sg125
g150
sg127
S'6.1'
p617
sg129
S'184.751984'
p618
sg131
g150
sg133
S'-99.99'
p619
sg135
S'12.132'
p620
sg137
S'Lya'
p621
sg139
S'3.7'
p622
sg141
S'11.796'
p623
sg143
S'11.81'
p624
sg145
S'33.1392'
p625
sg147
S'-99'
p626
sg149
g150
sg151
S'-99.99'
p627
sg153
F0.9166328354925924
sg154
S'8.577'
p628
sg156
S'11.817'
p629
sg158
S'76.56'
p630
sg160
S'SDSSJ105233.13+363736.7'
p631
sg162
S'0.44'
p632
sg164
S'36.62689'
p633
sg166
S'36.804'
p634
sg168
S'-99.99'
p635
sg170
S'41'
p636
sg172
S'37'
p637
sg174
g150
sg175
S'36'
p638
sg177
S'-99.99'
p639
sg179
S'106.8'
p640
sg181
S'25'
p641
sg183
F0.4697327576425702
sg184
S'-99.99'
p642
sg186
g229
sg187
S'13.064'
p643
sg189
g70
sg191
S'4.25E+13'
p644
sg193
S'-99.99'
p645
sg195
F600.0
sg196
S'-99.99'
p646
sg198
S'2.62E+14'
p647
sg200
S'0.98'
p648
sg202
S'0.079'
p649
sg204
S'WR?_HII'
p650
sg206
S'-99.99'
p651
sg208
g150
sg210
S'65.87'
p652
sg212
S'568'
p653
sg214
S'SDSSJ105233.13+363736.7'
p654
sg216
S'-99.99'
p655
sg218
S'36.67777777777778'
p656
sg220
S'-99.99'
p657
sg222
S'0.60999'
p658
sg224
S'r_sdss_iso'
p659
sg226
S'r_sdss_iso'
p660
sg228
g229
sg230
S'64.1'
p661
sg232
g32
sg233
S'1.18'
p662
sg235
S'-99.99'
p663
sg237
g150
sg238
S'163.02291666666667'
p664
sg240
S"['SDSSJ105233.13+363736.7']"
p665
sg242
S'163.13808'
p666
sg244
S'-99.99'
p667
sg246
S'839'
p668
sg248
S'0.036'
p669
sg250
S'64'
p670
sg252
S'r_sdss_iso'
p671
sg254
S'0.95'
p672
sg256
S'-99'
p673
sg258
S'13.6'
p674
sg260
S'584'
p675
sg262
S'149.7'
p676
sg264
g265
sg266
g632
sg267
S'0.011'
p677
sg269
S'-99.99'
p678
sg271
S'-99.99'
p679
sg273
S'63.167249'
p680
sg275
S'-99.99'
p681
sg277
F77.9
sg278
S'-99.99'
p682
sg280
S'3.774'
p683
sa(dp684
g111
S'52'
p685
sg113
S'10'
p686
sg115
S'-99.99'
p687
sg117
S'-99'
p688
sg119
F22.037
sg120
F14.42223381189613
sg121
S'70'
p689
sg123
S'0.001671'
p690
sg125
g150
sg127
g617
sg129
S'184.657548'
p691
sg131
g150
sg133
S'-99.99'
p692
sg135
S'15.698'
p693
sg137
g621
sg139
g622
sg141
S'18.915'
p694
sg143
S'10.64'
p695
sg145
S'40.8'
p696
sg147
S'-99'
p697
sg149
g150
sg151
S'-99.99'
p698
sg153
F0.6817590163539798
sg154
S'5.925'
p699
sg156
S'10.648'
p700
sg158
S'59.31'
p701
sg160
S'SDSSJ105240.79+363953.7'
p702
sg162
S'0.38'
p703
sg164
S'36.66494'
p704
sg166
S'53.784'
p705
sg168
S'-99.99'
p706
sg170
S'42'
p707
sg172
S'39'
p708
sg174
g150
sg175
S'36'
p709
sg177
S'-99.99'
p710
sg179
g640
sg181
g641
sg183
F0.07579126077112487
sg184
S'-99.99'
p711
sg186
g70
sg187
S'15.611'
p712
sg189
g70
sg191
g644
sg193
S'-99.99'
p713
sg195
F600.0
sg196
S'-99.99'
p714
sg198
g647
sg200
S'2.6'
p715
sg202
S'0.0082'
p716
sg204
g150
sg206
S'-99.99'
p717
sg208
g150
sg210
S'44.76'
p718
sg212
g653
sg214
S'SDSSJ105240.79+363953.7'
p719
sg216
S'-99.99'
p720
sg218
g656
sg220
S'-99.99'
p721
sg222
g658
sg224
S'r_sdss_iso'
p722
sg226
S'r_sdss_pet'
p723
sg228
g229
sg230
g661
sg232
g32
sg233
S'1.06'
p724
sg235
S'-99.99'
p725
sg237
g150
sg238
g664
sg240
S"['SDSSJ105240.79+363953.7']"
p726
sg242
S'163.17'
p727
sg244
S'-99.99'
p728
sg246
S'756'
p729
sg248
S'0.0038'
p730
sg250
S'67'
p731
sg252
S'r_sdss_iso'
p732
sg254
S'0.96'
p733
sg256
S'-99'
p734
sg258
S'15.8'
p735
sg260
S'501'
p736
sg262
S'114.8'
p737
sg264
g265
sg266
g703
sg267
S'0.011'
p738
sg269
S'-99.99'
p739
sg271
S'-99.99'
p740
sg273
S'63.184219'
p741
sg275
S'-99.99'
p742
sg277
F54.2
sg278
S'-99.99'
p743
sg280
S'2.311'
p744
sa(dp745
g111
S'52'
p746
sg113
S'10'
p747
sg115
S'-99.99'
p748
sg117
S'-99'
p749
sg119
F22.9
sg120
F13.191720520349119
sg121
S'35'
p750
sg123
S'0.002552'
p751
sg125
g150
sg127
g617
sg129
S'184.847516'
p752
sg131
g150
sg133
S'-99.99'
p753
sg135
S'15.532'
p754
sg137
g621
sg139
g622
sg141
S'15.837'
p755
sg143
S'14.36'
p756
sg145
S'16.7496'
p757
sg147
S'-99'
p758
sg149
g150
sg151
S'-99.99'
p759
sg153
F0.4306632764541731
sg154
S'5.583'
p760
sg156
S'14.366'
p761
sg158
S'56.93'
p762
sg160
S'UGC05983'
p763
sg162
S'0.75'
p764
sg164
S'36.59451'
p765
sg166
S'40.236'
p766
sg168
S'-99.99'
p767
sg170
S'96'
p768
sg172
S'35'
p769
sg174
g150
sg175
S'36'
p770
sg177
S'-99.99'
p771
sg179
g640
sg181
g641
sg183
F0.02486974218211488
sg184
S'-99.99'
p772
sg186
g371
sg187
S'15.79'
p773
sg189
g70
sg191
g644
sg193
S'-99.99'
p774
sg195
F600.0
sg196
S'-99.99'
p775
sg198
g647
sg200
S'3.8'
p776
sg202
S'0.011'
p777
sg204
S'DWARF'
p778
sg206
S'-99.99'
p779
sg208
g150
sg210
S'66.54'
p780
sg212
g653
sg214
S'UGC05983'
p781
sg216
S'-99.99'
p782
sg218
g656
sg220
S'-99.99'
p783
sg222
g658
sg224
S'r_sdss_iso'
p784
sg226
S'poss_103a-O'
p785
sg228
g229
sg230
g661
sg232
g32
sg233
S'1.43'
p786
sg235
S'-99.99'
p787
sg237
g150
sg238
g664
sg240
S"['UGC05983', 'SDSSJ105216.74+363540.2']"
p788
sg242
S'163.06979'
p789
sg244
S'-99.99'
p790
sg246
S'1020'
p791
sg248
S'0.0053'
p792
sg250
S'34'
p793
sg252
S'poss_103a-O'
p794
sg254
S'0.87'
p795
sg256
S'-99'
p796
sg258
S'16.1'
p797
sg260
S'765'
p798
sg262
S'80.16'
p799
sg264
g265
sg266
g764
sg267
S'0.011'
p800
sg269
S'-99.99'
p801
sg271
S'-99.99'
p802
sg273
S'63.12044'
p803
sg275
S'-99.99'
p804
sg277
F59.7
sg278
S'-99.99'
p805
sg280
S'4.634'
p806
saa(lp807
(dp808
g111
S'52'
p809
sg113
S'10'
p810
sg115
S'-99.99'
p811
sg117
S'-99'
p812
sg119
F21.742
sg120
F25.119044488853472
sg121
S'66'
p813
sg123
S'0.001947'
p814
sg125
g150
sg127
S'6.5'
p815
sg129
S'184.751984'
p816
sg131
g150
sg133
S'-99.99'
p817
sg135
S'12.132'
p818
sg137
S'Lya'
p819
sg139
S'3.9'
p820
sg141
S'11.796'
p821
sg143
S'11.81'
p822
sg145
S'33.1392'
p823
sg147
S'-99'
p824
sg149
g150
sg151
S'-99.99'
p825
sg153
F0.7923529960293945
sg154
S'8.577'
p826
sg156
S'11.817'
p827
sg158
S'76.56'
p828
sg160
S'SDSSJ105233.13+363736.7'
p829
sg162
S'0.44'
p830
sg164
S'36.62689'
p831
sg166
S'36.804'
p832
sg168
S'-99.99'
p833
sg170
S'41'
p834
sg172
S'37'
p835
sg174
g150
sg175
S'36'
p836
sg177
S'-99.99'
p837
sg179
S'129'
p838
sg181
S'30'
p839
sg183
F0.4060449761776484
sg184
S'-99.99'
p840
sg186
g229
sg187
S'13.064'
p841
sg189
S'7'
p842
sg191
S'4.33E+13'
p843
sg193
S'-99.99'
p844
sg195
F662.0
sg196
S'-99.99'
p845
sg198
S'2.62E+14'
p846
sg200
S'0.98'
p847
sg202
S'0.079'
p848
sg204
S'WR?_HII'
p849
sg206
S'-99.99'
p850
sg208
g150
sg210
S'65.87'
p851
sg212
S'585'
p852
sg214
S'SDSSJ105233.13+363736.7'
p853
sg216
S'-99.99'
p854
sg218
S'36.67777777777778'
p855
sg220
S'-99.99'
p856
sg222
S'0.60999'
p857
sg224
S'r_sdss_iso'
p858
sg226
S'r_sdss_iso'
p859
sg228
g229
sg230
S'77.5'
p860
sg232
g33
sg233
S'1.18'
p861
sg235
S'-99.99'
p862
sg237
g150
sg238
S'163.02291666666667'
p863
sg240
S"['SDSSJ105233.13+363736.7']"
p864
sg242
S'163.13808'
p865
sg244
S'-99.99'
p866
sg246
S'839'
p867
sg248
S'0.036'
p868
sg250
S'64'
p869
sg252
S'r_sdss_iso'
p870
sg254
S'0.95'
p871
sg256
S'-99'
p872
sg258
S'13.6'
p873
sg260
S'584'
p874
sg262
S'149.7'
p875
sg264
g265
sg266
g830
sg267
S'0.011'
p876
sg269
S'-99.99'
p877
sg271
S'-99.99'
p878
sg273
S'63.167249'
p879
sg275
S'-99.99'
p880
sg277
F77.9
sg278
S'-99.99'
p881
sg280
S'3.774'
p882
sa(dp883
g111
S'52'
p884
sg113
S'10'
p885
sg115
S'-99.99'
p886
sg117
S'-99'
p887
sg119
F22.9
sg120
F13.191720520349119
sg121
S'35'
p888
sg123
S'0.002552'
p889
sg125
g150
sg127
g815
sg129
S'184.847516'
p890
sg131
g150
sg133
S'-99.99'
p891
sg135
S'15.532'
p892
sg137
g819
sg139
g820
sg141
S'15.837'
p893
sg143
S'14.36'
p894
sg145
S'16.7496'
p895
sg147
S'-99'
p896
sg149
g150
sg151
S'-99.99'
p897
sg153
F0.652444790680418
sg154
S'5.583'
p898
sg156
S'14.366'
p899
sg158
S'56.93'
p900
sg160
S'UGC05983'
p901
sg162
S'0.75'
p902
sg164
S'36.59451'
p903
sg166
S'40.236'
p904
sg168
S'-99.99'
p905
sg170
S'96'
p906
sg172
S'35'
p907
sg174
g150
sg175
S'36'
p908
sg177
S'-99.99'
p909
sg179
g838
sg181
g839
sg183
F0.0376770777064678
sg184
S'-99.99'
p910
sg186
g371
sg187
S'15.79'
p911
sg189
g842
sg191
g843
sg193
S'-99.99'
p912
sg195
F662.0
sg196
S'-99.99'
p913
sg198
g846
sg200
S'3.8'
p914
sg202
S'0.011'
p915
sg204
S'DWARF'
p916
sg206
S'-99.99'
p917
sg208
g150
sg210
S'66.54'
p918
sg212
g852
sg214
S'UGC05983'
p919
sg216
S'-99.99'
p920
sg218
g855
sg220
S'-99.99'
p921
sg222
g857
sg224
S'r_sdss_iso'
p922
sg226
S'poss_103a-O'
p923
sg228
g229
sg230
g860
sg232
g33
sg233
S'1.43'
p924
sg235
S'-99.99'
p925
sg237
g150
sg238
g863
sg240
S"['UGC05983', 'SDSSJ105216.74+363540.2']"
p926
sg242
S'163.06979'
p927
sg244
S'-99.99'
p928
sg246
S'1020'
p929
sg248
S'0.0053'
p930
sg250
S'34'
p931
sg252
S'poss_103a-O'
p932
sg254
S'0.87'
p933
sg256
S'-99'
p934
sg258
S'16.1'
p935
sg260
S'765'
p936
sg262
S'80.16'
p937
sg264
g265
sg266
g902
sg267
S'0.011'
p938
sg269
S'-99.99'
p939
sg271
S'-99.99'
p940
sg273
S'63.12044'
p941
sg275
S'-99.99'
p942
sg277
F59.7
sg278
S'-99.99'
p943
sg280
S'4.634'
p944
sa(dp945
g111
S'52'
p946
sg113
S'10'
p947
sg115
S'-99.99'
p948
sg117
S'-99'
p949
sg119
F22.037
sg120
F14.42223381189613
sg121
S'70'
p950
sg123
S'0.001671'
p951
sg125
g150
sg127
g815
sg129
S'184.657548'
p952
sg131
g150
sg133
S'-99.99'
p953
sg135
S'15.698'
p954
sg137
g819
sg139
g820
sg141
S'18.915'
p955
sg143
S'10.64'
p956
sg145
S'40.8'
p957
sg147
S'-99'
p958
sg149
g150
sg151
S'-99.99'
p959
sg153
F0.4556277994522937
sg154
S'5.925'
p960
sg156
S'10.648'
p961
sg158
S'59.31'
p962
sg160
S'SDSSJ105240.79+363953.7'
p963
sg162
S'0.38'
p964
sg164
S'36.66494'
p965
sg166
S'53.784'
p966
sg168
S'-99.99'
p967
sg170
S'42'
p968
sg172
S'39'
p969
sg174
g150
sg175
S'36'
p970
sg177
S'-99.99'
p971
sg179
g838
sg181
g839
sg183
F0.05065221659632986
sg184
S'-99.99'
p972
sg186
g70
sg187
S'15.611'
p973
sg189
g842
sg191
g843
sg193
S'-99.99'
p974
sg195
F662.0
sg196
S'-99.99'
p975
sg198
g846
sg200
S'2.6'
p976
sg202
S'0.0082'
p977
sg204
g150
sg206
S'-99.99'
p978
sg208
g150
sg210
S'44.76'
p979
sg212
g852
sg214
S'SDSSJ105240.79+363953.7'
p980
sg216
S'-99.99'
p981
sg218
g855
sg220
S'-99.99'
p982
sg222
g857
sg224
S'r_sdss_iso'
p983
sg226
S'r_sdss_pet'
p984
sg228
g229
sg230
g860
sg232
g33
sg233
S'1.06'
p985
sg235
S'-99.99'
p986
sg237
g150
sg238
g863
sg240
S"['SDSSJ105240.79+363953.7']"
p987
sg242
S'163.17'
p988
sg244
S'-99.99'
p989
sg246
S'756'
p990
sg248
S'0.0038'
p991
sg250
S'67'
p992
sg252
S'r_sdss_iso'
p993
sg254
S'0.96'
p994
sg256
S'-99'
p995
sg258
S'15.8'
p996
sg260
S'501'
p997
sg262
S'114.8'
p998
sg264
g265
sg266
g964
sg267
S'0.011'
p999
sg269
S'-99.99'
p1000
sg271
S'-99.99'
p1001
sg273
S'63.184219'
p1002
sg275
S'-99.99'
p1003
sg277
F54.2
sg278
S'-99.99'
p1004
sg280
S'2.311'
p1005
saa(lp1006
(dp1007
g111
S'29'
p1008
sg113
S'12'
p1009
sg115
S'14.6'
p1010
sg117
S'-99'
p1011
sg119
F170.98
sg120
F28.659042240190093
sg121
S'62'
p1012
sg123
S'0.005254'
p1013
sg125
S'B_(Johnson)'
p1014
sg127
S'3.6'
p1015
sg129
S'289.589197'
p1016
sg131
S'B_(Johnson)'
p1017
sg133
S'-99.99'
p1018
sg135
S'14.741'
p1019
sg137
S'Lya'
p1020
sg139
S'2.2'
p1021
sg141
S'14.788'
p1022
sg143
S'14.6'
p1023
sg145
S'2.1408'
p1024
sg147
S'145'
p1025
sg149
S'TF'
p1026
sg151
S'0.094'
p1027
sg153
F0.012056946068598393
sg154
S'9.365'
p1028
sg156
S'26.341'
p1029
sg158
S'81.35'
p1030
sg160
S'UGC07612'
p1031
sg162
S'4.2'
p1032
sg164
S'2.72319'
p1033
sg166
S'23.484'
p1034
sg168
S'24.25'
p1035
sg170
S'145'
p1036
sg172
S'43'
p1037
sg174
S'LC_V'
p1038
sg175
g190
sg177
S'0.058'
p1039
sg179
S'70'
p1040
sg181
g190
sg183
F3.481685003745826e-16
sg184
S'0.54'
p1041
sg186
g371
sg187
S'14.993'
p1042
sg189
g70
sg191
S'1.05E+12'
p1043
sg193
S'14.4'
p1044
sg195
F1580.0
sg196
S'14.6'
p1045
sg198
S'1.43E+14'
p1046
sg200
S'9.6'
p1047
sg202
S'0.025'
p1048
sg204
S'Sm:_HII'
p1049
sg206
S'14.1'
p1050
sg208
S'B_(B_T^0)'
p1051
sg210
S'66.15'
p1052
sg212
S'369'
p1053
sg214
S'UGC07612'
p1054
sg216
S'33.9'
p1055
sg218
S'2.0525'
p1056
sg220
S'15.1'
p1057
sg222
S'0.15834'
p1058
sg224
S'poss_103a-O'
p1059
sg226
S'poss_103a-O'
p1060
sg228
g229
sg230
S'42'
p1061
sg232
g34
sg233
S'9.65'
p1062
sg235
S'0.23'
p1063
sg237
S'.S..9*.'
p1064
sg238
S'187.27791666666667'
p1065
sg240
S"['UGC07612', 'SDSSJ122901.87+024324.6']"
p1066
sg242
S'187.25892'
p1067
sg244
S'0.17'
p1068
sg246
S'1870'
p1069
sg248
S'0.076'
p1070
sg250
S'60'
p1071
sg252
S'poss_103a-O'
p1072
sg254
S'1.3'
p1073
sg256
S'-99'
p1074
sg258
S'15.3'
p1075
sg260
S'1575'
p1076
sg262
S'132.3'
p1077
sg264
g265
sg266
g1032
sg267
S'0.0153'
p1078
sg269
S'0.074'
p1079
sg271
S'9.65'
p1080
sg273
S'65.012984'
p1081
sg275
S'128.28'
p1082
sg277
F33.4
sg278
S'0.031'
p1083
sg280
S'4.682'
p1084
sa(dp1085
g111
S'34'
p1086
sg113
S'12'
p1087
sg115
S'14.9'
p1088
sg117
S'170002'
p1089
sg119
F348.733
sg120
F161.20465603697681
sg121
S'61'
p1090
sg123
S'0.006031'
p1091
sg125
S'B'
p1092
sg127
g1015
sg129
S'292.949501'
p1093
sg131
S'B_(B_T)'
p1094
sg133
S'21'
p1095
sg135
S'12'
p1096
sg137
g1020
sg139
g1021
sg141
S'11.106'
p1097
sg143
S'14.9'
p1098
sg145
S'27.0504'
p1099
sg147
S'130'
p1100
sg149
S'Ceph'
p1101
sg151
S'1.0'
p1102
sg153
F0.0064025696903046705
sg154
S'29.62'
p1103
sg156
S'29.614'
p1104
sg158
S'180.05'
p1105
sg160
S'NGC4536'
p1106
sg162
S'2.9'
p1107
sg164
S'2.18814'
p1108
sg166
S'17.304'
p1109
sg168
S'15.363'
p1110
sg170
S'95'
p1111
sg172
S'11'
p1112
sg174
S'LC_II-III'
p1113
sg175
g190
sg177
S'2.0'
p1114
sg179
g1040
sg181
g190
sg183
F0.0025302449034422273
sg184
S'0.43'
p1115
sg186
g173
sg187
S'13.181'
p1116
sg189
g70
sg191
g1043
sg193
S'10.6'
p1117
sg195
F1580.0
sg196
S'8.67'
p1118
sg198
g1046
sg200
S'11.0'
p1119
sg202
S'0.11'
p1120
sg204
S'SAB(rs)bc;HII_Sbrst'
p1121
sg206
S'9.89'
p1122
sg208
S'B_(B_T^0)'
p1123
sg210
S'213.2'
p1124
sg212
g1053
sg214
S'NGC4536'
p1125
sg216
S'28.0'
p1126
sg218
g1056
sg220
S'11.2'
p1127
sg222
g1058
sg224
S'K_lga2mass_tot'
p1128
sg226
S'K_lga2mass_tot'
p1129
sg228
g229
sg230
g1061
sg232
g34
sg233
S'2.83'
p1130
sg235
S'3.3'
p1131
sg237
S'.SXT4..'
p1132
sg238
g1065
sg240
S"['NGC4536', 'UGC07732', '2MASXJ12342712+0211163', 'SDSSJ123427.04+021117.2']"
p1133
sg242
S'188.61271'
p1134
sg244
S'1.8'
p1135
sg246
S'2103'
p1136
sg248
S'0.093'
p1137
sg250
S'59'
p1138
sg252
S'K_lga2mass_tot'
p1139
sg254
S'21.0'
p1140
sg256
g71
sg258
S'13.8'
p1141
sg260
S'1808'
p1142
sg262
S'410.0'
p1143
sg264
g265
sg266
g1107
sg267
S'0.0157'
p1144
sg269
S'3.8'
p1145
sg271
S'2.83'
p1146
sg273
S'64.730132'
p1147
sg275
S'455.15'
p1148
sg277
F10.8
sg278
S'1.2'
p1149
sg280
S'15.4'
p1150
sa(dp1151
g111
S'29'
p1152
sg113
S'12'
p1153
sg115
S'-99.99'
p1154
sg117
S'-99'
p1155
sg119
F94.177
sg120
F8.49394836027392
sg121
S'62'
p1156
sg123
S'0.005966'
p1157
sg125
S'B_(LCO)'
p1158
sg127
g1015
sg129
S'290.374472'
p1159
sg131
S'b_J'
p1160
sg133
S'-99.99'
p1161
sg135
S'16.674'
p1162
sg137
g1020
sg139
g1021
sg141
S'16.08'
p1163
sg143
S'29.34'
p1164
sg145
S'50.58'
p1165
sg147
S'-99'
p1166
sg149
g150
sg151
S'0.0049'
p1167
sg153
F0.005540459592975663
sg154
S'4.163'
p1168
sg156
S'29.346'
p1169
sg158
S'46.49'
p1170
sg160
S'2PIGGNGPGALB+3.26065+0.04028'
p1171
sg162
S'0.31'
p1172
sg164
S'2.03158'
p1173
sg166
S'53.688'
p1174
sg168
S'-99.99'
p1175
sg170
S'152'
p1176
sg172
g70
sg174
g150
sg175
g190
sg177
S'0.012'
p1177
sg179
g1040
sg181
g190
sg183
F1.368898515450383e-54
sg184
S'-99.99'
p1178
sg186
g190
sg187
S'17.204'
p1179
sg189
g70
sg191
g1043
sg193
S'17.6'
p1180
sg195
F1580.0
sg196
S'-99.99'
p1181
sg198
g1046
sg200
S'0.67'
p1182
sg202
S'0.012'
p1183
sg204
g150
sg206
S'17.6'
p1184
sg208
S'B_(LCO)'
p1185
sg210
S'14.63'
p1186
sg212
g1053
sg214
S'SDSSJ122950.57+020153.7'
p1187
sg216
S'-99.99'
p1188
sg218
g1056
sg220
S'17.8'
p1189
sg222
g1058
sg224
S'r_sdss_iso'
p1190
sg226
S'r_sdss_iso'
p1191
sg228
g229
sg230
g1061
sg232
g34
sg233
S'2.93'
p1192
sg235
S'0.0054'
p1193
sg237
g150
sg238
g1065
sg240
S"['SDSSJ122950.57+020153.7']"
p1194
sg242
S'187.46075'
p1195
sg244
S'0.0054'
p1196
sg246
S'2084'
p1197
sg248
S'0.0057'
p1198
sg250
S'60'
p1199
sg252
S'r_sdss_iso'
p1200
sg254
S'0.32'
p1201
sg256
S'-99'
p1202
sg258
S'17.6'
p1203
sg260
S'1789'
p1204
sg262
S'29.26'
p1205
sg264
g265
sg266
g1172
sg267
S'0.0165'
p1206
sg269
S'0.012'
p1207
sg271
S'-99.99'
p1208
sg273
S'64.375538'
p1209
sg275
S'-99.99'
p1210
sg277
F55.5
sg278
S'0.01'
p1211
sg280
S'2.082'
p1212
saas.