(dp0
S'Vhels'
p1
(lp2
F1045.0
aF1284.0
aF616.0
aF616.0
asS'impacts'
p3
(lp4
F143.636
aF100.931
aF20.517
aF20.517
asS'group_dists'
p5
(lp6
F14.9
aF14.9
aF8.9
aF8.9
asS'MTypes'
p7
(lp8
S'SAB(s)0+:'
p9
aS'E+0-1_pec;NLRG_Sy'
p10
aS'SB(s)m;LINER_HII'
p11
aS'SB(s)m;LINER_HII'
p12
asS'e_Lya_Ws'
p13
(lp14
F20.0
aF16.0
aF25.0
aF30.0
asS'e_Lstar_sdsss'
p15
(lp16
F0.093
aF3.3
aF-99.99
aF-99.99
asS'Bmag_sdsss'
p17
(lp18
F13.7
aF10.0
aF-99.99
aF-99.99
asS'Nas'
p19
(lp20
F46400000000000.0
aF235000000000000.0
aF262000000000000.0
aF262000000000000.0
asS'Lya_Ws'
p21
(lp22
F176.0
aF525.0
aF568.0
aF585.0
asS'bestDists'
p23
(lp24
F18.94
aF16.4
aF11.3
aF11.3
asS'adjustedIncs'
p25
(lp26
F71.0
aF31.0
aF90.0
aF90.0
asS'targets'
p27
(lp28
S'MS1228.6+1219'
p29
aS'MS1228.6+1219'
p30
aS'CSO295'
p31
aS'CSO295'
p32
asS'e_bs'
p33
(lp34
F2.4
aF1.4
aF3.7
aF3.9
asS'incs'
p35
(lp36
F68.0
aF31.0
aF78.0
aF78.0
asS'azimuths'
p37
(lp38
F85.5
aF11.1
aF81.6
aF81.6
asS'group_nums'
p39
(lp40
S'100002'
p41
aS'100002'
p42
aS'112910'
p43
aS'112910'
p44
asS'Ws'
p45
(lp46
F57.5
aF94.4
aF106.8
aF129.0
asS'ls'
p47
(lp48
F0.15490167404515606
aF0.7942782716283334
aF0.9755443716291768
aF0.8981427126059769
asS'Lya_vs'
p49
(lp50
F1046.0
aF1286.0
aF600.0
aF662.0
asS'R_virs'
p51
(lp52
F105.18
aF210.39
aF177.36
aF177.36
asS'Bmags'
p53
(lp54
F13.2
aF9.59
aF11.7
aF11.7
asS'cuss'
p55
(lp56
F50.099014750791255
aF226.1579981517346
aF156.0082523201898
aF156.0082523201898
asS'vcorrs'
p57
(lp58
F1345.0
aF1584.0
aF871.0
aF871.0
asS'e_Nas'
p59
(lp60
F6410000000000.0
aF28400000000000.0
aF42500000000000.0
aF43300000000000.0
asS'e_bestDists'
p61
(lp62
F1.89
aF2.79
aF4.21
aF4.21
asS'group_mems'
p63
(lp64
S'197'
p65
aS'197'
p66
aS'1'
p67
ag67
asS'e_Lstar_meds'
p68
(lp69
F0.14
aF4.8
aF0.72
aF0.72
asS'Dec_targets'
p70
(lp71
F12.051944444444445
aF12.051944444444445
aF36.67777777777778
aF36.67777777777778
asS'PAs'
p72
(lp73
F75.0
aF153.0
aF43.0
aF43.0
asS'Lstar_meds'
p74
(lp75
F0.3
aF6.2
aF0.42
aF0.42
asS'RA_galaxies'
p76
(lp77
F187.88553
aF187.70593
aF163.12971
aF163.12971
asS'bs'
p78
(lp79
F34.5
aF56.7
aF64.1
aF77.5
asS'e_Ws'
p80
(lp81
F3.9
aF2.4
aF6.1
aF6.5
asS'Dec_galaxies'
p82
(lp83
F11.62472
aF12.39112
aF36.61878
aF36.61878
asS'MajDiams'
p84
(lp85
F13.59
aF37.12
aF28.98
aF28.98
asS'RA_targets'
p86
(lp87
F187.80458333333334
aF187.80458333333334
aF163.02291666666667
aF163.02291666666667
asS'e_Lya_vs'
p88
(lp89
F2.0
aF2.0
aF1.0
aF7.0
asS'z_targets'
p90
(lp91
F0.11612
aF0.11612
aF0.60999
aF0.60999
asS'Lstar_sdsss'
p92
(lp93
F0.2
aF4.2
aF-99.99
aF-99.99
asS'Names'
p94
(lp95
S'NGC4497'
p96
aS'NGC4486'
p97
aS'NGC3432'
p98
aS'NGC3432'
p99
asS'l_cuss'
p100
(lp101
F0.00026922135751573716
aF0.8192644233263717
aF0.9717339208794307
aF0.8946345907079302
asS'others'
p102
(lp103
(lp104
(dp105
S'RAm'
p106
S'30'
p107
sS'RAh'
p108
S'12'
p109
sS'RID_median'
p110
S'16.4'
p111
sS'group_num'
p112
S'100002'
p113
sS'impact'
p114
F100.931
sS'cus'
p115
F226.1579981517346
sS'adjustedInc'
p116
S'31'
p117
sS'z'
p118
S'0.004283'
p119
sS'Bmag_max_key'
p120
S'B_(HST)'
p121
sS'e_W'
p122
S'3.9'
p123
sS'GLON'
p124
S'283.777798'
p125
sS'Bmag_min_key'
p126
S'B_T__(Johnson)'
p127
sS'group_dist'
p128
S'14.9'
p129
sS'rmag_sdss'
p130
S'8.65'
p131
sS'identified'
p132
S'Lya'
p133
sS'e_b'
p134
S'2.4'
p135
sS'zmag_sdss'
p136
S'7.96'
p137
sS'bestDist'
p138
S'16.4'
p139
sS'RAs'
p140
S'49.4232'
p141
sS'RC3_pa'
p142
S'-99'
p143
sS'distIndicator'
p144
S'SBF'
p145
sS'e_Lstar_min'
p146
S'4.0'
p147
sS'l'
p148
F0.06407796432607123
sS'MajDiam'
p149
S'37.12'
p150
sS'distvcorr'
p151
S'22.309'
p152
sS'R_vir'
p153
S'210.39'
p154
sS'Name'
p155
S'NGC4486'
p156
sS'e_MajDiam'
p157
S'5.4'
p158
sS'DEdeg'
p159
S'12.39112'
p160
sS'DEs'
p161
S'28.032'
p162
sS'RID_mean'
p163
S'16.762'
p164
sS'PA'
p165
S'153'
p166
sS'DEm'
p167
S'23'
p168
sS'lumClass'
p169
S'x'
p170
sS'DEd'
p171
S'12'
p172
sS'Lstar_med'
p173
S'6.2'
p174
sS'W'
p175
S'57.5'
p176
sS'e_Lya_W'
p177
S'20'
p178
sS'l_cus'
p179
F0.06609370842274705
sS'RC3_r25'
p180
S'0.79'
p181
sS'e_inc'
p182
S'7'
p183
sS'gmag_sdss'
p184
S'9.51'
p185
sS'e_Lya_v'
p186
S'2'
p187
sS'e_Na'
p188
S'6.41E+12'
p189
sS'Bmag'
p190
S'9.59'
p191
sS'Lya_v'
p192
F1046.0
sS'RID_min'
p193
S'9.2'
p194
sS'Na'
p195
S'4.64E+13'
p196
sS'e_MinDiam_ang'
p197
S'20.0'
p198
sS'Lstar_sdss'
p199
S'4.2'
p200
sS'MType'
p201
S'E+0-1_pec;NLRG_Sy'
p202
sS'Bmag_max'
p203
S'9.05'
p204
sS'Bmag_key'
p205
S'B_(B_T)'
p206
sS'MinDiam_ang'
p207
S'401.4'
p208
sS'Lya_W'
p209
S'176'
p210
sS'NEDname'
p211
S'MESSIER087'
p212
sS'RID_max'
p213
S'28.7'
p214
sS'Dec_target'
p215
S'12.051944444444445'
p216
sS'Bmag_min'
p217
S'9.8'
p218
sS'z_target'
p219
S'0.11612'
p220
sS'paKey'
p221
S'K_lga2mass_tot'
p222
sS'diameterKey'
p223
S'K_lga2mass_tot'
p224
sS'flag'
p225
S'0'
p226
sS'b'
p227
S'34.5'
p228
sS'target'
p229
g29
sS'e_bestDist'
p230
S'2.79'
p231
sS'e_Lstar_max'
p232
S'7.9'
p233
sS'RC3_type'
p234
S'.E+0+P.'
p235
sS'RA_target'
p236
S'187.80458333333334'
p237
sS'altNames'
p238
S"['NGC4486', 'UGC07654', '2MASXJ12304942+1223279', 'SDSSJ123049.41+122328.1']"
p239
sS'RAdeg'
p240
S'187.70593'
p241
sS'e_Lstar_med'
p242
S'4.8'
p243
sS'vcorr'
p244
S'1584'
p245
sS'e_Lstar_sdss'
p246
S'3.3'
p247
sS'inc'
p248
S'31'
p249
sS'ratioKey'
p250
S'K_lga2mass_tot'
p251
sS'e_MajDiam_ang'
p252
S'23.0'
p253
sS'group_mem'
p254
S'197'
p255
sS'Bmag_sdss'
p256
S'10'
p257
sS'Vhel'
p258
S'1284'
p259
sS'MajDiam_ang'
p260
S'466.8'
p261
sS'DE-'
p262
S'+'
p263
sS'e_MinDiam'
p264
g158
sS'E(B-V)'
p265
S'0.0196'
p266
sS'Lstar_max'
p267
S'10.0'
p268
sS'RID_std'
p269
S'2.79'
p270
sS'GLAT'
p271
S'74.491131'
p272
sS'RC3_d25'
p273
S'499.06'
p274
sS'azimuth'
p275
F11.1
sS'Lstar_min'
p276
S'5.1'
p277
sS'MinDiam'
p278
S'31.92'
p279
sa(dp280
g106
S'30'
p281
sg108
S'12'
p282
sg110
S'-99.99'
p283
sg112
S'-99'
p284
sg114
F134.905
sg115
F72.76894534758628
sg116
S'12'
p285
sg118
S'0.0042'
p286
sg120
g170
sg122
g123
sg124
S'283.753686'
p287
sg126
g170
sg128
S'-99.99'
p288
sg130
S'11.752'
p289
sg132
g133
sg134
g135
sg136
S'10.94'
p290
sg138
S'21.95'
p291
sg140
S'47.5512'
p292
sg142
S'-99'
p293
sg144
g170
sg146
S'-99.99'
p294
sg148
F0.04144456452512836
sg149
S'17.43'
p295
sg151
S'21.957'
p296
sg153
S'124.88'
p297
sg155
S'SDSSJ123047.55+122318.1'
p298
sg157
S'1.9'
p299
sg159
S'12.38836'
p300
sg161
S'18.096'
p301
sg163
S'-99.99'
p302
sg165
S'5'
p303
sg167
S'23'
p304
sg169
g170
sg171
S'12'
p305
sg173
S'-99.99'
p306
sg175
g176
sg177
g178
sg179
F0.004282250726889008
sg180
S'-99.99'
p307
sg182
S'3'
p308
sg184
S'12.544'
p309
sg186
g187
sg188
g189
sg190
S'-99.99'
p310
sg192
F1046.0
sg193
S'-99.99'
p311
sg195
g196
sg197
S'1.3'
p312
sg199
S'0.47'
p313
sg201
g170
sg203
S'-99.99'
p314
sg205
g170
sg207
S'160.5'
p315
sg209
g210
sg211
S'SDSSJ123047.55+122318.1'
p316
sg213
S'-99.99'
p317
sg215
g216
sg217
S'-99.99'
p318
sg219
g220
sg221
S'r_sdss_dev'
p319
sg223
S'r_sdss_pet'
p320
sg225
g226
sg227
g228
sg229
g29
sg230
S'2.19'
p321
sg232
S'-99.99'
p322
sg234
g170
sg236
g237
sg238
S"['SDSSJ123047.55+122318.1']"
p323
sg240
S'187.69813'
p324
sg242
S'-99.99'
p325
sg244
S'1559'
p326
sg246
S'0.22'
p327
sg248
S'12'
p328
sg250
S'r_sdss_dev'
p329
sg252
S'1.3'
p330
sg254
S'-99'
p331
sg256
S'13'
p332
sg258
S'1259'
p333
sg260
S'163.8'
p334
sg262
g263
sg264
g299
sg265
S'0.0196'
p335
sg267
S'-99.99'
p336
sg269
S'-99.99'
p337
sg271
S'74.486215'
p338
sg273
S'-99.99'
p339
sg275
F22.2
sg276
S'-99.99'
p340
sg278
S'17.08'
p341
sa(dp342
g106
S'30'
p343
sg108
S'12'
p344
sg110
S'16.8'
p345
sg112
S'-99'
p346
sg114
F29.438
sg115
F1.991688300663535
sg116
S'61'
p347
sg118
S'0.004183'
p348
sg120
S'B_J_25'
p349
sg122
g123
sg124
S'284.144051'
p350
sg126
S'B_t'
p351
sg128
S'-99.99'
p352
sg130
S'16.681'
p353
sg132
g133
sg134
g135
sg136
S'16.821'
p354
sg138
S'16.8'
p355
sg140
S'48.5208'
p356
sg142
S'-99'
p357
sg144
S'TFest'
p358
sg146
S'0.00049'
p359
sg148
F0.031902896169728585
sg149
S'1.583'
p360
sg151
S'21.886'
p361
sg153
S'23.86'
p362
sg155
S'PGC041360'
p363
sg157
S'0.057'
p364
sg159
S'12.04502'
p365
sg161
S'42.072'
p366
sg163
S'16.9'
p367
sg165
S'78'
p368
sg167
g187
sg169
g170
sg171
S'12'
p369
sg173
S'0.0031'
p370
sg175
g176
sg177
g178
sg179
F1.9432360360392566e-96
sg180
S'0.51'
p371
sg182
g187
sg184
S'16.71'
p372
sg186
g187
sg188
g189
sg190
S'17.9'
p373
sg192
F1046.0
sg193
S'16.8'
p374
sg195
g196
sg197
S'0.63'
p375
sg199
S'0.0075'
p376
sg201
S'Blue_Compact_Dwarf'
p377
sg203
S'17.9'
p378
sg205
S'B_J_25'
p379
sg207
S'9.911'
p380
sg209
g210
sg211
S'VCC1313'
p381
sg213
S'17.0'
p382
sg215
g216
sg217
S'18'
p383
sg219
g220
sg221
S'r_sdss_iso'
p384
sg223
S'r_sdss_iso'
p385
sg225
g226
sg227
g228
sg229
g29
sg230
S'0.1'
p386
sg232
S'0.0003'
p387
sg234
S'       '
p388
sg236
g237
sg238
S"['SDSSJ123048.61+120242.8']"
p389
sg240
S'187.70217'
p390
sg242
S'0.0003'
p391
sg244
S'1554'
p392
sg246
S'0.00026'
p393
sg248
S'59'
p394
sg250
S'rc3_dr_25'
p395
sg252
S'0.27'
p396
sg254
S'-99'
p397
sg256
S'16.9'
p398
sg258
S'1254'
p399
sg260
S'19.43'
p400
sg262
g263
sg264
g364
sg265
S'0.0235'
p401
sg267
S'0.0031'
p402
sg269
S'0.1'
p403
sg271
S'74.159451'
p404
sg273
S'13.13'
p405
sg275
F8.0
sg276
S'0.0029'
p406
sg278
S'0.8073'
p407
saa(lp408
(dp409
g106
S'30'
p410
sg108
S'12'
p411
sg110
S'-99.99'
p412
sg112
S'-99'
p413
sg114
F134.905
sg115
F72.76894534758628
sg116
S'12'
p414
sg118
S'0.0042'
p415
sg120
g170
sg122
S'2.4'
p416
sg124
S'283.753686'
p417
sg126
g170
sg128
S'-99.99'
p418
sg130
S'11.752'
p419
sg132
S'Lya'
p420
sg134
S'1.4'
p421
sg136
S'10.94'
p422
sg138
S'21.95'
p423
sg140
S'47.5512'
p424
sg142
S'-99'
p425
sg144
g170
sg146
S'-99.99'
p426
sg148
F0.30137542288705055
sg149
S'17.43'
p427
sg151
S'21.957'
p428
sg153
S'124.88'
p429
sg155
S'SDSSJ123047.55+122318.1'
p430
sg157
S'1.9'
p431
sg159
S'12.38836'
p432
sg161
S'18.096'
p433
sg163
S'-99.99'
p434
sg165
g303
sg167
S'23'
p435
sg169
g170
sg171
S'12'
p436
sg173
S'-99.99'
p437
sg175
S'94.4'
p438
sg177
S'16'
p439
sg179
F0.031139550831619144
sg180
S'-99.99'
p440
sg182
g308
sg184
S'12.544'
p441
sg186
g187
sg188
S'2.84E+13'
p442
sg190
S'-99.99'
p443
sg192
F1286.0
sg193
S'-99.99'
p444
sg195
S'2.35E+14'
p445
sg197
S'1.3'
p446
sg199
S'0.47'
p447
sg201
g170
sg203
S'-99.99'
p448
sg205
g170
sg207
S'160.5'
p449
sg209
S'525'
p450
sg211
S'SDSSJ123047.55+122318.1'
p451
sg213
S'-99.99'
p452
sg215
S'12.051944444444445'
p453
sg217
S'-99.99'
p454
sg219
S'0.11612'
p455
sg221
S'r_sdss_dev'
p456
sg223
S'r_sdss_pet'
p457
sg225
g226
sg227
S'56.7'
p458
sg229
g30
sg230
S'2.19'
p459
sg232
S'-99.99'
p460
sg234
g170
sg236
S'187.80458333333334'
p461
sg238
S"['SDSSJ123047.55+122318.1']"
p462
sg240
S'187.69813'
p463
sg242
S'-99.99'
p464
sg244
S'1559'
p465
sg246
S'0.22'
p466
sg248
S'12'
p467
sg250
S'r_sdss_dev'
p468
sg252
S'1.3'
p469
sg254
S'-99'
p470
sg256
S'13'
p471
sg258
S'1259'
p472
sg260
S'163.8'
p473
sg262
g263
sg264
g431
sg265
S'0.0196'
p474
sg267
S'-99.99'
p475
sg269
S'-99.99'
p476
sg271
S'74.486215'
p477
sg273
S'-99.99'
p478
sg275
F22.2
sg276
S'-99.99'
p479
sg278
S'17.08'
p480
sa(dp481
g106
S'30'
p482
sg108
S'12'
p483
sg110
S'16.8'
p484
sg112
S'-99'
p485
sg114
F29.438
sg115
F1.991688300663535
sg116
S'61'
p486
sg118
S'0.004183'
p487
sg120
S'B_J_25'
p488
sg122
g416
sg124
S'284.144051'
p489
sg126
S'B_t'
p490
sg128
S'-99.99'
p491
sg130
S'16.681'
p492
sg132
g420
sg134
g421
sg136
S'16.821'
p493
sg138
S'16.8'
p494
sg140
S'48.5208'
p495
sg142
S'-99'
p496
sg144
S'TFest'
p497
sg146
S'0.00049'
p498
sg148
F0.2085189924594126
sg149
S'1.583'
p499
sg151
S'21.886'
p500
sg153
S'23.86'
p501
sg155
S'PGC041360'
p502
sg157
S'0.057'
p503
sg159
S'12.04502'
p504
sg161
S'42.072'
p505
sg163
S'16.9'
p506
sg165
S'78'
p507
sg167
g187
sg169
g170
sg171
S'12'
p508
sg173
S'0.0031'
p509
sg175
g438
sg177
g439
sg179
F1.2701092032208933e-95
sg180
S'0.51'
p510
sg182
g187
sg184
S'16.71'
p511
sg186
g187
sg188
g442
sg190
S'17.9'
p512
sg192
F1286.0
sg193
S'16.8'
p513
sg195
g445
sg197
S'0.63'
p514
sg199
S'0.0075'
p515
sg201
S'Blue_Compact_Dwarf'
p516
sg203
S'17.9'
p517
sg205
S'B_J_25'
p518
sg207
S'9.911'
p519
sg209
g450
sg211
S'VCC1313'
p520
sg213
S'17.0'
p521
sg215
g453
sg217
S'18'
p522
sg219
g455
sg221
S'r_sdss_iso'
p523
sg223
S'r_sdss_iso'
p524
sg225
g226
sg227
g458
sg229
g30
sg230
S'0.1'
p525
sg232
S'0.0003'
p526
sg234
S'       '
p527
sg236
g461
sg238
S"['SDSSJ123048.61+120242.8']"
p528
sg240
S'187.70217'
p529
sg242
S'0.0003'
p530
sg244
S'1554'
p531
sg246
S'0.00026'
p532
sg248
S'59'
p533
sg250
S'rc3_dr_25'
p534
sg252
S'0.27'
p535
sg254
S'-99'
p536
sg256
S'16.9'
p537
sg258
S'1254'
p538
sg260
S'19.43'
p539
sg262
g263
sg264
g503
sg265
S'0.0235'
p540
sg267
S'0.0031'
p541
sg269
S'0.1'
p542
sg271
S'74.159451'
p543
sg273
S'13.13'
p544
sg275
F8.0
sg276
S'0.0029'
p545
sg278
S'0.8073'
p546
sa(dp547
g106
S'30'
p548
sg108
S'12'
p549
sg110
S'16.4'
p550
sg112
S'100002'
p551
sg114
F102.384
sg115
F30.173112234040428
sg116
S'36'
p552
sg118
S'0.0045'
p553
sg120
S'B_(m_B)'
p554
sg122
g416
sg124
S'283.385189'
p555
sg126
S'B_(B_T)'
p556
sg128
S'14.9'
p557
sg130
S'14.046'
p558
sg132
g420
sg134
g421
sg136
S'13.373'
p559
sg138
S'16.4'
p560
sg140
S'17.4168'
p561
sg142
S'140'
p562
sg144
S'SBF'
p563
sg146
S'0.37'
p564
sg148
F0.1850580119975666
sg149
S'9.692'
p565
sg151
S'23.225'
p566
sg153
S'83.3'
p567
sg155
S'NGC4478'
p568
sg157
S'1.3'
p569
sg159
S'12.32855'
p570
sg161
S'42.78'
p571
sg163
S'16.11'
p572
sg165
S'140'
p573
sg167
S'19'
p574
sg169
g170
sg171
S'12'
p575
sg173
S'0.55'
p576
sg175
g438
sg177
g439
sg179
F8.374324060293646e-06
sg180
S'0.85'
p577
sg182
S'6'
p578
sg184
S'14.873'
p579
sg186
g187
sg188
g442
sg190
S'12.2'
p580
sg192
F1286.0
sg193
S'8.87'
p581
sg195
g445
sg197
S'5.0'
p582
sg199
S'0.03'
p583
sg201
S'E2'
p584
sg203
S'12.2'
p585
sg205
S'B_(HST)'
p586
sg207
S'99.96'
p587
sg209
g450
sg211
S'NGC4478'
p588
sg213
S'23.3'
p589
sg215
g453
sg217
S'12.4'
p590
sg219
g455
sg221
S'K_2mass_tot'
p591
sg223
S'K_2mass_tot'
p592
sg225
g226
sg227
g458
sg229
g30
sg230
S'2.74'
p593
sg232
S'0.44'
p594
sg234
S'.E.2...'
p595
sg236
g461
sg238
S"['NGC4478', 'UGC07645', '2MASXJ12301743+1219428', 'SDSSJ123017.41+121942.7']"
p596
sg240
S'187.57257'
p597
sg242
S'0.43'
p598
sg244
S'1649'
p599
sg246
S'0.023'
p600
sg248
S'35'
p601
sg250
S'K_2mass_tot'
p602
sg252
S'6.1'
p603
sg254
S'197'
p604
sg256
S'15.4'
p605
sg258
S'1349'
p606
sg260
S'121.9'
p607
sg262
g263
sg264
g569
sg265
S'0.0207'
p608
sg267
S'0.57'
p609
sg269
S'2.74'
p610
sg271
S'74.392153'
p611
sg273
S'114.33'
p612
sg275
F0.6
sg276
S'0.48'
p613
sg278
S'7.948'
p614
saa(lp615
(dp616
g106
S'52'
p617
sg108
S'10'
p618
sg110
S'-99.99'
p619
sg112
S'-99'
p620
sg114
F21.742
sg115
F25.119044488853472
sg116
S'66'
p621
sg118
S'0.001947'
p622
sg120
g170
sg122
S'6.1'
p623
sg124
S'184.751984'
p624
sg126
g170
sg128
S'-99.99'
p625
sg130
S'12.132'
p626
sg132
S'Lya'
p627
sg134
S'3.7'
p628
sg136
S'11.796'
p629
sg138
S'11.81'
p630
sg140
S'33.1392'
p631
sg142
S'-99'
p632
sg144
g170
sg146
S'-99.99'
p633
sg148
F0.9120813784027745
sg149
S'8.577'
p634
sg151
S'11.817'
p635
sg153
S'76.56'
p636
sg155
S'SDSSJ105233.13+363736.7'
p637
sg157
S'0.44'
p638
sg159
S'36.62689'
p639
sg161
S'36.804'
p640
sg163
S'-99.99'
p641
sg165
S'41'
p642
sg167
S'37'
p643
sg169
g170
sg171
S'36'
p644
sg173
S'-99.99'
p645
sg175
S'106.8'
p646
sg177
S'25'
p647
sg179
F0.46740034229881583
sg180
S'-99.99'
p648
sg182
g226
sg184
S'13.064'
p649
sg186
g67
sg188
S'4.25E+13'
p650
sg190
S'-99.99'
p651
sg192
F600.0
sg193
S'-99.99'
p652
sg195
S'2.62E+14'
p653
sg197
S'0.98'
p654
sg199
S'0.079'
p655
sg201
S'WR?_HII'
p656
sg203
S'-99.99'
p657
sg205
g170
sg207
S'65.87'
p658
sg209
S'568'
p659
sg211
S'SDSSJ105233.13+363736.7'
p660
sg213
S'-99.99'
p661
sg215
S'36.67777777777778'
p662
sg217
S'-99.99'
p663
sg219
S'0.60999'
p664
sg221
S'r_sdss_iso'
p665
sg223
S'r_sdss_iso'
p666
sg225
g226
sg227
S'64.1'
p667
sg229
g31
sg230
S'1.18'
p668
sg232
S'-99.99'
p669
sg234
g170
sg236
S'163.02291666666667'
p670
sg238
S"['SDSSJ105233.13+363736.7']"
p671
sg240
S'163.13808'
p672
sg242
S'-99.99'
p673
sg244
S'839'
p674
sg246
S'0.036'
p675
sg248
S'64'
p676
sg250
S'r_sdss_iso'
p677
sg252
S'0.95'
p678
sg254
S'-99'
p679
sg256
S'13.6'
p680
sg258
S'584'
p681
sg260
S'149.7'
p682
sg262
g263
sg264
g638
sg265
S'0.011'
p683
sg267
S'-99.99'
p684
sg269
S'-99.99'
p685
sg271
S'63.167249'
p686
sg273
S'-99.99'
p687
sg275
F77.9
sg276
S'-99.99'
p688
sg278
S'3.774'
p689
sa(dp690
g106
S'52'
p691
sg108
S'10'
p692
sg110
S'-99.99'
p693
sg112
S'-99'
p694
sg114
F22.037
sg115
F14.42223381189613
sg116
S'70'
p695
sg118
S'0.001671'
p696
sg120
g170
sg122
g623
sg124
S'184.657548'
p697
sg126
g170
sg128
S'-99.99'
p698
sg130
S'15.698'
p699
sg132
g627
sg134
g628
sg136
S'18.915'
p700
sg138
S'10.64'
p701
sg140
S'40.8'
p702
sg142
S'-99'
p703
sg144
g170
sg146
S'-99.99'
p704
sg148
F0.5634627614690274
sg149
S'5.925'
p705
sg151
S'10.648'
p706
sg153
S'59.31'
p707
sg155
S'SDSSJ105240.79+363953.7'
p708
sg157
S'0.38'
p709
sg159
S'36.66494'
p710
sg161
S'53.784'
p711
sg163
S'-99.99'
p712
sg165
S'42'
p713
sg167
S'39'
p714
sg169
g170
sg171
S'36'
p715
sg173
S'-99.99'
p716
sg175
g646
sg177
g647
sg179
F0.06264024686861465
sg180
S'-99.99'
p717
sg182
g67
sg184
S'15.611'
p718
sg186
g67
sg188
g650
sg190
S'-99.99'
p719
sg192
F600.0
sg193
S'-99.99'
p720
sg195
g653
sg197
S'2.6'
p721
sg199
S'0.0082'
p722
sg201
g170
sg203
S'-99.99'
p723
sg205
g170
sg207
S'44.76'
p724
sg209
g659
sg211
S'SDSSJ105240.79+363953.7'
p725
sg213
S'-99.99'
p726
sg215
g662
sg217
S'-99.99'
p727
sg219
g664
sg221
S'r_sdss_iso'
p728
sg223
S'r_sdss_pet'
p729
sg225
g226
sg227
g667
sg229
g31
sg230
S'1.06'
p730
sg232
S'-99.99'
p731
sg234
g170
sg236
g670
sg238
S"['SDSSJ105240.79+363953.7']"
p732
sg240
S'163.17'
p733
sg242
S'-99.99'
p734
sg244
S'756'
p735
sg246
S'0.0038'
p736
sg248
S'67'
p737
sg250
S'r_sdss_iso'
p738
sg252
S'0.96'
p739
sg254
S'-99'
p740
sg256
S'15.8'
p741
sg258
S'501'
p742
sg260
S'114.8'
p743
sg262
g263
sg264
g709
sg265
S'0.011'
p744
sg267
S'-99.99'
p745
sg269
S'-99.99'
p746
sg271
S'63.184219'
p747
sg273
S'-99.99'
p748
sg275
F54.2
sg276
S'-99.99'
p749
sg278
S'2.311'
p750
sa(dp751
g106
S'52'
p752
sg108
S'10'
p753
sg110
S'-99.99'
p754
sg112
S'-99'
p755
sg114
F22.9
sg115
F13.191720520349119
sg116
S'35'
p756
sg118
S'0.002552'
p757
sg120
g170
sg122
g623
sg124
S'184.847516'
p758
sg126
g170
sg128
S'-99.99'
p759
sg130
S'15.532'
p760
sg132
g627
sg134
g628
sg136
S'15.837'
p761
sg138
S'14.36'
p762
sg140
S'16.7496'
p763
sg142
S'-99'
p764
sg144
g170
sg146
S'-99.99'
p765
sg148
F0.2536490258895646
sg149
S'5.583'
p766
sg151
S'14.366'
p767
sg153
S'56.93'
p768
sg155
S'UGC05983'
p769
sg157
S'0.75'
p770
sg159
S'36.59451'
p771
sg161
S'40.236'
p772
sg163
S'-99.99'
p773
sg165
S'96'
p774
sg167
S'35'
p775
sg169
g170
sg171
S'36'
p776
sg173
S'-99.99'
p777
sg175
g646
sg177
g647
sg179
F0.014647605736332867
sg180
S'-99.99'
p778
sg182
g303
sg184
S'15.79'
p779
sg186
g67
sg188
g650
sg190
S'-99.99'
p780
sg192
F600.0
sg193
S'-99.99'
p781
sg195
g653
sg197
S'3.8'
p782
sg199
S'0.011'
p783
sg201
S'DWARF'
p784
sg203
S'-99.99'
p785
sg205
g170
sg207
S'66.54'
p786
sg209
g659
sg211
S'UGC05983'
p787
sg213
S'-99.99'
p788
sg215
g662
sg217
S'-99.99'
p789
sg219
g664
sg221
S'r_sdss_iso'
p790
sg223
S'poss_103a-O'
p791
sg225
g226
sg227
g667
sg229
g31
sg230
S'1.43'
p792
sg232
S'-99.99'
p793
sg234
g170
sg236
g670
sg238
S"['UGC05983', 'SDSSJ105216.74+363540.2']"
p794
sg240
S'163.06979'
p795
sg242
S'-99.99'
p796
sg244
S'1020'
p797
sg246
S'0.0053'
p798
sg248
S'34'
p799
sg250
S'poss_103a-O'
p800
sg252
S'0.87'
p801
sg254
S'-99'
p802
sg256
S'16.1'
p803
sg258
S'765'
p804
sg260
S'80.16'
p805
sg262
g263
sg264
g770
sg265
S'0.011'
p806
sg267
S'-99.99'
p807
sg269
S'-99.99'
p808
sg271
S'63.12044'
p809
sg273
S'-99.99'
p810
sg275
F59.7
sg276
S'-99.99'
p811
sg278
S'4.634'
p812
saa(lp813
(dp814
g106
S'52'
p815
sg108
S'10'
p816
sg110
S'-99.99'
p817
sg112
S'-99'
p818
sg114
F21.742
sg115
F25.119044488853472
sg116
S'66'
p819
sg118
S'0.001947'
p820
sg120
g170
sg122
S'6.5'
p821
sg124
S'184.751984'
p822
sg126
g170
sg128
S'-99.99'
p823
sg130
S'12.132'
p824
sg132
S'Lya'
p825
sg134
S'3.9'
p826
sg136
S'11.796'
p827
sg138
S'11.81'
p828
sg140
S'33.1392'
p829
sg142
S'-99'
p830
sg144
g170
sg146
S'-99.99'
p831
sg148
F0.7039497632388094
sg149
S'8.577'
p832
sg151
S'11.817'
p833
sg153
S'76.56'
p834
sg155
S'SDSSJ105233.13+363736.7'
p835
sg157
S'0.44'
p836
sg159
S'36.62689'
p837
sg161
S'36.804'
p838
sg163
S'-99.99'
p839
sg165
S'41'
p840
sg167
S'37'
p841
sg169
g170
sg171
S'36'
p842
sg173
S'-99.99'
p843
sg175
S'129'
p844
sg177
S'30'
p845
sg179
F0.3607423285794703
sg180
S'-99.99'
p846
sg182
g226
sg184
S'13.064'
p847
sg186
g183
sg188
S'4.33E+13'
p848
sg190
S'-99.99'
p849
sg192
F662.0
sg193
S'-99.99'
p850
sg195
S'2.62E+14'
p851
sg197
S'0.98'
p852
sg199
S'0.079'
p853
sg201
S'WR?_HII'
p854
sg203
S'-99.99'
p855
sg205
g170
sg207
S'65.87'
p856
sg209
S'585'
p857
sg211
S'SDSSJ105233.13+363736.7'
p858
sg213
S'-99.99'
p859
sg215
S'36.67777777777778'
p860
sg217
S'-99.99'
p861
sg219
S'0.60999'
p862
sg221
S'r_sdss_iso'
p863
sg223
S'r_sdss_iso'
p864
sg225
g226
sg227
S'77.5'
p865
sg229
g32
sg230
S'1.18'
p866
sg232
S'-99.99'
p867
sg234
g170
sg236
S'163.02291666666667'
p868
sg238
S"['SDSSJ105233.13+363736.7']"
p869
sg240
S'163.13808'
p870
sg242
S'-99.99'
p871
sg244
S'839'
p872
sg246
S'0.036'
p873
sg248
S'64'
p874
sg250
S'r_sdss_iso'
p875
sg252
S'0.95'
p876
sg254
S'-99'
p877
sg256
S'13.6'
p878
sg258
S'584'
p879
sg260
S'149.7'
p880
sg262
g263
sg264
g836
sg265
S'0.011'
p881
sg267
S'-99.99'
p882
sg269
S'-99.99'
p883
sg271
S'63.167249'
p884
sg273
S'-99.99'
p885
sg275
F77.9
sg276
S'-99.99'
p886
sg278
S'3.774'
p887
sa(dp888
g106
S'52'
p889
sg108
S'10'
p890
sg110
S'-99.99'
p891
sg112
S'-99'
p892
sg114
F22.9
sg115
F13.191720520349119
sg116
S'35'
p893
sg118
S'0.002552'
p894
sg120
g170
sg122
g821
sg124
S'184.847516'
p895
sg126
g170
sg128
S'-99.99'
p896
sg130
S'15.532'
p897
sg132
g825
sg134
g826
sg136
S'15.837'
p898
sg138
S'14.36'
p899
sg140
S'16.7496'
p900
sg142
S'-99'
p901
sg144
g170
sg146
S'-99.99'
p902
sg148
F0.5308292532279607
sg149
S'5.583'
p903
sg151
S'14.366'
p904
sg153
S'56.93'
p905
sg155
S'UGC05983'
p906
sg157
S'0.75'
p907
sg159
S'36.59451'
p908
sg161
S'40.236'
p909
sg163
S'-99.99'
p910
sg165
S'96'
p911
sg167
S'35'
p912
sg169
g170
sg171
S'36'
p913
sg173
S'-99.99'
p914
sg175
g844
sg177
g845
sg179
F0.03065408032743822
sg180
S'-99.99'
p915
sg182
g303
sg184
S'15.79'
p916
sg186
g183
sg188
g848
sg190
S'-99.99'
p917
sg192
F662.0
sg193
S'-99.99'
p918
sg195
g851
sg197
S'3.8'
p919
sg199
S'0.011'
p920
sg201
S'DWARF'
p921
sg203
S'-99.99'
p922
sg205
g170
sg207
S'66.54'
p923
sg209
g857
sg211
S'UGC05983'
p924
sg213
S'-99.99'
p925
sg215
g860
sg217
S'-99.99'
p926
sg219
g862
sg221
S'r_sdss_iso'
p927
sg223
S'poss_103a-O'
p928
sg225
g226
sg227
g865
sg229
g32
sg230
S'1.43'
p929
sg232
S'-99.99'
p930
sg234
g170
sg236
g868
sg238
S"['UGC05983', 'SDSSJ105216.74+363540.2']"
p931
sg240
S'163.06979'
p932
sg242
S'-99.99'
p933
sg244
S'1020'
p934
sg246
S'0.0053'
p935
sg248
S'34'
p936
sg250
S'poss_103a-O'
p937
sg252
S'0.87'
p938
sg254
S'-99'
p939
sg256
S'16.1'
p940
sg258
S'765'
p941
sg260
S'80.16'
p942
sg262
g263
sg264
g907
sg265
S'0.011'
p943
sg267
S'-99.99'
p944
sg269
S'-99.99'
p945
sg271
S'63.12044'
p946
sg273
S'-99.99'
p947
sg275
F59.7
sg276
S'-99.99'
p948
sg278
S'4.634'
p949
sa(dp950
g106
S'52'
p951
sg108
S'10'
p952
sg110
S'-99.99'
p953
sg112
S'-99'
p954
sg114
F22.037
sg115
F14.42223381189613
sg116
S'70'
p955
sg118
S'0.001671'
p956
sg120
g170
sg122
g821
sg124
S'184.657548'
p957
sg126
g170
sg128
S'-99.99'
p958
sg130
S'15.698'
p959
sg132
g825
sg134
g826
sg136
S'18.915'
p960
sg138
S'10.64'
p961
sg140
S'40.8'
p962
sg142
S'-99'
p963
sg144
g170
sg146
S'-99.99'
p964
sg148
F0.27524367672668687
sg149
S'5.925'
p965
sg151
S'10.648'
p966
sg153
S'59.31'
p967
sg155
S'SDSSJ105240.79+363953.7'
p968
sg157
S'0.38'
p969
sg159
S'36.66494'
p970
sg161
S'53.784'
p971
sg163
S'-99.99'
p972
sg165
S'42'
p973
sg167
S'39'
p974
sg169
g170
sg171
S'36'
p975
sg173
S'-99.99'
p976
sg175
g844
sg177
g845
sg179
F0.030598884324199577
sg180
S'-99.99'
p977
sg182
g67
sg184
S'15.611'
p978
sg186
g183
sg188
g848
sg190
S'-99.99'
p979
sg192
F662.0
sg193
S'-99.99'
p980
sg195
g851
sg197
S'2.6'
p981
sg199
S'0.0082'
p982
sg201
g170
sg203
S'-99.99'
p983
sg205
g170
sg207
S'44.76'
p984
sg209
g857
sg211
S'SDSSJ105240.79+363953.7'
p985
sg213
S'-99.99'
p986
sg215
g860
sg217
S'-99.99'
p987
sg219
g862
sg221
S'r_sdss_iso'
p988
sg223
S'r_sdss_pet'
p989
sg225
g226
sg227
g865
sg229
g32
sg230
S'1.06'
p990
sg232
S'-99.99'
p991
sg234
g170
sg236
g868
sg238
S"['SDSSJ105240.79+363953.7']"
p992
sg240
S'163.17'
p993
sg242
S'-99.99'
p994
sg244
S'756'
p995
sg246
S'0.0038'
p996
sg248
S'67'
p997
sg250
S'r_sdss_iso'
p998
sg252
S'0.96'
p999
sg254
S'-99'
p1000
sg256
S'15.8'
p1001
sg258
S'501'
p1002
sg260
S'114.8'
p1003
sg262
g263
sg264
g969
sg265
S'0.011'
p1004
sg267
S'-99.99'
p1005
sg269
S'-99.99'
p1006
sg271
S'63.184219'
p1007
sg273
S'-99.99'
p1008
sg275
F54.2
sg276
S'-99.99'
p1009
sg278
S'2.311'
p1010
saas.