(dp0
S'Vhels'
p1
(lp2
F1128.0
aF1284.0
aF1284.0
aF7312.0
aF930.0
aF616.0
aF616.0
aF1736.0
aF2410.0
asS'impacts'
p3
(lp4
F209.758
aF100.931
aF100.931
aF366.291
aF145.178
aF20.517
aF20.517
aF330.608
aF247.452
asS'group_dists'
p5
(lp6
F8.6
aF14.9
aF14.9
aF76.7
aF11.1
aF8.9
aF8.9
aF21.0
aF25.7
asS'MTypes'
p7
(lp8
S'SA(s)cd:_sp_HII'
p9
aS'E+0-1_pec;NLRG_Sy'
p10
aS'E+0-1_pec;NLRG_Sy'
p11
aS'SA(s)0^0^:'
p12
aS'(R)SB(r)ab_LINER'
p13
aS'SB(s)m;LINER_HII'
p14
aS'SB(s)m;LINER_HII'
p15
aS'SAB(s)bc;HII_LINER'
p16
aS'SA(s)a_Sy1'
p17
asS'e_Lya_Ws'
p18
(lp19
F3.0
aF20.0
aF16.0
aF9.0
aF10.0
aF25.0
aF30.0
aF2.0
aF5.0
asS'e_Lstar_sdsss'
p20
(lp21
F-99.99
aF3.3
aF3.3
aF0.49
aF-99.99
aF-99.99
aF-99.99
aF-99.99
aF0.59
asS'Bmag_sdsss'
p22
(lp23
F-99.99
aF10.0
aF10.0
aF15.2
aF-99.99
aF-99.99
aF-99.99
aF-99.99
aF13.1
asS'Nas'
p24
(lp25
F39900000000000.0
aF46400000000000.0
aF235000000000000.0
aF10700000000000.0
aF190000000000000.0
aF262000000000000.0
aF262000000000000.0
aF143000000000000.0
aF6410000000000.0
asS'Lya_Ws'
p26
(lp27
F160.0
aF176.0
aF525.0
aF51.0
aF456.0
aF568.0
aF585.0
aF369.0
aF31.0
asS'bestDists'
p28
(lp29
F9.7
aF16.4
aF16.4
aF110.0
aF12.6
aF11.3
aF11.3
aF13.6
aF18.4
asS'adjustedIncs'
p30
(lp31
F90.0
aF31.0
aF31.0
aF17.0
aF66.0
aF90.0
aF90.0
aF74.0
aF74.0
asS'targets'
p32
(lp33
S'HE1228+0131'
p34
aS'MS1228.6+1219'
p35
aS'MS1228.6+1219'
p36
aS'RX_J1236.0+2641'
p37
aS'TON605'
p38
aS'CSO295'
p39
aS'CSO295'
p40
aS'3C273.0'
p41
aS'PG1216+069'
p42
asS'e_bs'
p43
(lp44
F2.4
aF2.4
aF1.4
aF3.0
aF2.3
aF3.7
aF3.9
aF2.2
aF1.4
asS'incs'
p45
(lp46
F81.0
aF31.0
aF31.0
aF16.0
aF63.0
aF78.0
aF78.0
aF70.0
aF70.0
asS'azimuths'
p47
(lp48
F74.1
aF11.1
aF11.1
aF45.7
aF39.6
aF81.6
aF81.6
aF5.6
aF85.3
asS'group_nums'
p49
(lp50
S'0'
p51
aS'100002'
p52
aS'100002'
p53
aS'100082'
p54
aS'100065'
p55
aS'112910'
p56
aS'112910'
p57
aS'170002'
p58
aS'120002'
p59
asS'Ws'
p60
(lp61
F55.9
aF57.5
aF94.4
aF34.6
aF81.0
aF106.8
aF129.0
aF70.0
aF22.7
asS'ls'
p62
(lp63
F0.012395907429292505
aF0.19277267513827911
aF0.7943400512297468
aF0.05953674544917223
aF0.3819179425416468
aF0.9804125209542504
aF0.9358670472419909
aF0.023991275666620748
aF0.025568341864647147
asS'Lya_vs'
p64
(lp65
F1495.0
aF1046.0
aF1286.0
aF7223.0
aF853.0
aF600.0
aF662.0
aF1580.0
aF2548.0
asS'R_virs'
p66
(lp67
F207.37
aF210.39
aF210.39
aF226.16
aF160.88
aF177.36
aF177.36
aF187.12
aF138.54
asS'Bmags'
p68
(lp69
F11.1
aF9.59
aF9.59
aF14.3
aF11.1
aF11.7
aF11.7
aF11.4
aF12.6
asS'cuss'
p70
(lp71
F219.1576438890508
aF226.1579981517346
aF226.1579981517346
aF264.6439567569983
aF126.20191795689954
aF156.0082523201898
aF156.0082523201898
aF175.280107165645
aF91.1925083326476
asS'vcorrs'
p72
(lp73
F1420.0
aF1584.0
aF1584.0
aF7603.0
aF1217.0
aF871.0
aF871.0
aF2031.0
aF2708.0
asS'e_Nas'
p74
(lp75
F860000000000.0
aF6410000000000.0
aF28400000000000.0
aF2010000000000.0
aF8280000000000.0
aF42500000000000.0
aF43300000000000.0
aF1050000000000.0
aF1030000000000.0
asS'e_bestDists'
p76
(lp77
F2.78
aF2.79
aF2.79
aF7.34
aF4.28
aF4.21
aF4.21
aF3.3
aF8.02
asS'group_mems'
p78
(lp79
S'1'
p80
aS'197'
p81
aS'197'
p82
aS'12'
p83
aS'15'
p84
ag80
ag80
aS'4'
p85
aS'39'
p86
asS'e_Lstar_meds'
p87
(lp88
F0.72
aF4.8
aF4.8
aF1.2
aF1.4
aF0.72
aF0.72
aF0.91
aF1.0
asS'Dec_targets'
p89
(lp90
F1.256388888888889
aF12.051944444444445
aF12.051944444444445
aF26.693333333333335
aF30.116944444444446
aF36.67777777777778
aF36.67777777777778
aF2.0525
aF6.643888888888889
asS'PAs'
p91
(lp92
F83.0
aF153.0
aF153.0
aF90.0
aF100.0
aF43.0
aF43.0
aF70.0
aF50.0
asS'Lstar_meds'
p93
(lp94
F0.54
aF6.2
aF6.2
aF3.8
aF0.92
aF0.42
aF0.42
aF0.81
aF0.5
asS'RA_galaxies'
p95
(lp96
F188.18996
aF187.70593
aF187.70593
aF189.16625
aF184.9608
aF163.12971
aF163.12971
aF188.53509
aF184.29117
asS'bs'
p97
(lp98
F33.6
aF34.5
aF56.7
aF20.8
aF48.7
aF64.1
aF77.5
aF42.0
aF13.6
asS'e_Ws'
p99
(lp100
F4.1
aF3.9
aF2.4
aF5.0
aF3.9
aF6.1
aF6.5
aF3.6
aF2.4
asS'Dec_galaxies'
p101
(lp102
F0.11503
aF12.39112
aF12.39112
aF26.82994
aF29.61448
aF36.61878
aF36.61878
aF2.65366
aF7.19158
asS'MajDiams'
p103
(lp104
F36.35
aF37.12
aF37.12
aF41.22
aF25.16
aF28.98
aF28.98
aF31.32
aF20.26
asS'RA_targets'
p105
(lp106
F187.70833333333334
aF187.80458333333334
aF187.80458333333334
aF189.01708333333332
aF184.46708333333333
aF163.02291666666667
aF163.02291666666667
aF187.27791666666667
aF184.83708333333334
asS'e_Lya_vs'
p107
(lp108
F1.0
aF2.0
aF2.0
aF1.0
aF1.0
aF1.0
aF7.0
aF1.0
aF4.0
asS'z_targets'
p109
(lp110
F0.117
aF0.11612
aF0.11612
aF0.20915
aF0.13
aF0.60999
aF0.60999
aF0.15834
aF0.3313
asS'Lstar_sdsss'
p111
(lp112
F-99.99
aF4.2
aF4.2
aF1.6
aF-99.99
aF-99.99
aF-99.99
aF-99.99
aF0.29
asS'Names'
p113
(lp114
S'NGC4517'
p115
aS'NGC4486'
p116
aS'NGC4486'
p117
aS'IC3585'
p118
aS'NGC4274'
p119
aS'NGC3432'
p120
aS'NGC3432'
p121
aS'NGC4527'
p122
aS'NGC4235'
p123
asS'l_cuss'
p124
(lp125
F0.013797266420318222
aF0.19883685626508646
aF0.8193281463707167
aF0.12078664404544016
aF0.22956714468850623
aF0.9765830553408188
aF0.9322115750814878
aF0.015513641382541077
aF0.00039396463280967316
asS'others'
p126
(lp127
(lp128
(dp129
S'RAm'
p130
S'32'
p131
sS'RAh'
p132
S'12'
p133
sS'RID_median'
p134
S'24.1'
p135
sS'group_num'
p136
S'-99'
p137
sS'impact'
p138
F403.143
sS'cus'
p139
F170.0181681732867
sS'adjustedInc'
p140
S'58'
p141
sS'z'
p142
S'0.005087'
p143
sS'Bmag_max_key'
p144
S'B_(m_B)'
p145
sS'e_W'
p146
S'4.1'
p147
sS'GLON'
p148
S'292.484881'
p149
sS'Bmag_min_key'
p150
S'B_(Johnson)'
p151
sS'group_dist'
p152
S'-99.99'
p153
sS'rmag_sdss'
p154
S'13.865'
p155
sS'identified'
p156
S'Lya'
p157
sS'e_b'
p158
S'2.4'
p159
sS'zmag_sdss'
p160
S'14.01'
p161
sS'bestDist'
p162
S'24.1'
p163
sS'RAs'
p164
S'28.1568'
p165
sS'RC3_pa'
p166
S'30'
p167
sS'distIndicator'
p168
S'TF'
p169
sS'e_Lstar_min'
p170
S'0.051'
p171
sS'l'
p172
F0.008258963476947786
sS'MajDiam'
p173
S'30.69'
p174
sS'distvcorr'
p175
S'25.602'
p176
sS'R_vir'
p177
S'184.51'
p178
sS'Name'
p179
S'NGC4517A'
p180
sS'e_MajDiam'
p181
S'4.2'
p182
sS'DEdeg'
p183
S'0.38967'
p184
sS'DEs'
p185
S'22.812'
p186
sS'RID_mean'
p187
S'22.68'
p188
sS'PA'
p189
S'30'
p190
sS'DEm'
p191
S'23'
p192
sS'lumClass'
p193
S'LC_IV-V'
p194
sS'DEd'
p195
g51
sS'Lstar_med'
p196
S'0.77'
p197
sS'W'
p198
S'55.9'
p199
sS'e_Lya_W'
p200
S'3'
p201
sS'l_cus'
p202
F0.0035352345723019653
sS'RC3_r25'
p203
S'0.66'
p204
sS'e_inc'
p205
S'2'
p206
sS'gmag_sdss'
p207
S'14.289'
p208
sS'e_Lya_v'
p209
g80
sS'e_Na'
p210
S'8.60E+11'
p211
sS'Bmag'
p212
S'12.7'
p213
sS'Lya_v'
p214
F1495.0
sS'RID_min'
p215
S'14.5'
p216
sS'Na'
p217
S'3.99E+13'
p218
sS'e_MinDiam_ang'
p219
S'9.4'
p220
sS'Lstar_sdss'
p221
S'0.13'
p222
sS'MType'
p223
S'SB(rs)dm:_HII'
p224
sS'Bmag_max'
p225
S'12.5'
p226
sS'Bmag_key'
p227
S'B_J'
p228
sS'MinDiam_ang'
p229
S'144.5'
p230
sS'Lya_W'
p231
S'160'
p232
sS'NEDname'
p233
S'NGC4517A'
p234
sS'RID_max'
p235
S'26.7'
p236
sS'Dec_target'
p237
S'1.256388888888889'
p238
sS'Bmag_min'
p239
S'15.4'
p240
sS'z_target'
p241
S'0.11700'
p242
sS'paKey'
p243
S'poss_103a-O'
p244
sS'diameterKey'
p245
S'poss_103a-O'
p246
sS'flag'
p247
g51
sS'b'
p248
S'33.6'
p249
sS'target'
p250
g34
sS'e_bestDist'
p251
S'4.22'
p252
sS'e_Lstar_max'
p253
S'0.78'
p254
sS'RC3_type'
p255
S'.SBT8*.'
p256
sS'RA_target'
p257
S'187.70833333333334'
p258
sS'altNames'
p259
S"['NGC4517A', 'UGC07685', 'SDSSJ123227.94+002326.2']"
p260
sS'RAdeg'
p261
S'188.11732'
p262
sS'e_Lstar_med'
p263
S'0.62'
p264
sS'vcorr'
p265
S'1818'
p266
sS'e_Lstar_sdss'
p267
S'0.1'
p268
sS'inc'
p269
S'57'
p270
sS'ratioKey'
p271
S'poss_103a-O'
p272
sS'e_MajDiam_ang'
p273
S'2.4'
p274
sS'group_mem'
p275
S'-99'
p276
sS'Bmag_sdss'
p277
S'14.6'
p278
sS'Vhel'
p279
S'1525'
p280
sS'MajDiam_ang'
p281
S'262.6'
p282
sS'DE-'
p283
S'+'
p284
sS'e_MinDiam'
p285
g182
sS'E(B-V)'
p286
S'0.0193'
p287
sS'Lstar_max'
p288
S'0.93'
p289
sS'RID_std'
p290
S'4.225'
p291
sS'GLAT'
p292
S'62.876024'
p293
sS'RC3_d25'
p294
S'238.86'
p295
sS'azimuth'
p296
F55.3
sS'Lstar_min'
p297
S'0.063'
p298
sS'MinDiam'
p299
S'16.88'
p300
sa(dp301
g130
S'34'
p302
sg132
S'12'
p303
sg134
S'13.6'
p304
sg136
S'170002'
p305
sg138
F385.415
sg139
F175.280107165645
sg140
S'74'
p306
sg142
S'0.005791'
p307
sg144
S'B_(B_T^0)'
p308
sg146
g147
sg148
S'292.59582'
p309
sg150
S'B_(m_B)'
p310
sg152
S'21'
p311
sg154
S'-99.99'
p312
sg156
g157
sg158
g159
sg160
S'-99.99'
p313
sg162
S'13.6'
p314
sg164
S'8.4216'
p315
sg166
S'67'
p316
sg168
S'SBF'
p317
sg170
S'0.9'
p318
sg172
F0.0033645005882420548
sg173
S'31.32'
p319
sg175
S'28.606'
p320
sg177
S'187.12'
p321
sg179
S'NGC4527'
p322
sg181
S'2.6'
p323
sg183
S'2.65366'
p324
sg185
S'13.176'
p325
sg187
S'14.243'
p326
sg189
S'70'
p327
sg191
S'39'
p328
sg193
S'LC_II-III'
p329
sg195
g206
sg196
S'0.81'
p330
sg198
g199
sg200
g201
sg202
F0.0018603795338843314
sg203
S'0.34'
p331
sg205
g80
sg207
S'-99.99'
p332
sg209
g80
sg210
g211
sg212
S'11.4'
p333
sg214
F1495.0
sg215
S'10.1'
p334
sg217
g218
sg219
S'8.1'
p335
sg221
S'-99.99'
p336
sg223
S'SAB(s)bc;HII_LINER'
p337
sg225
S'10.7'
p338
sg227
S'B_(B_T)'
p339
sg229
S'161.5'
p340
sg231
g232
sg233
S'NGC4527'
p341
sg235
S'29.4'
p342
sg237
g238
sg239
S'11.4'
p343
sg241
g242
sg243
S'K_lga2mass_tot'
p344
sg245
S'K_lga2mass_tot'
p345
sg247
g51
sg248
g249
sg250
g34
sg251
S'3.3'
p346
sg253
S'1.8'
p347
sg255
S'.SXS4..'
p348
sg257
g258
sg259
S"['NGC4527', 'UGC07721', '2MASXJ12340849+0239137', 'SDSSJ123408.44+023913.7']"
p349
sg261
S'188.53509'
p350
sg263
S'0.91'
p351
sg265
S'2031'
p352
sg267
S'-99.99'
p353
sg269
S'70'
p354
sg271
S'K_lga2mass_tot'
p355
sg273
S'24.0'
p356
sg275
g85
sg277
S'-99.99'
p357
sg279
S'1736'
p358
sg281
S'475.0'
p359
sg283
g284
sg285
g323
sg286
S'0.0189'
p360
sg288
S'1.6'
p361
sg290
S'3.307'
p362
sg292
S'65.177691'
p363
sg294
S'369.96'
p364
sg296
F39.4
sg297
S'0.8'
p365
sg299
S'10.65'
p366
sa(dp367
g130
S'34'
p368
sg132
S'12'
p369
sg134
S'14.9'
p370
sg136
S'170002'
p371
sg138
F337.658
sg139
F161.20465603697681
sg140
S'61'
p372
sg142
S'0.006031'
p373
sg144
S'B'
p374
sg146
g147
sg148
S'292.949501'
p375
sg150
S'B_(B_T)'
p376
sg152
S'21'
p377
sg154
S'12'
p378
sg156
g157
sg158
g159
sg160
S'11.106'
p379
sg162
S'14.9'
p380
sg164
S'27.0504'
p381
sg166
S'130'
p382
sg168
S'Ceph'
p383
sg170
S'1.0'
p384
sg172
F0.002563996006912428
sg173
S'29.62'
p385
sg175
S'29.614'
p386
sg177
S'180.05'
p387
sg179
S'NGC4536'
p388
sg181
S'2.9'
p389
sg183
S'2.18814'
p390
sg185
S'17.304'
p391
sg187
S'15.363'
p392
sg189
S'95'
p393
sg191
S'11'
p394
sg193
S'LC_II-III'
p395
sg195
g206
sg196
S'2.0'
p396
sg198
g199
sg200
g201
sg202
F0.0010738111988060058
sg203
S'0.43'
p397
sg205
g201
sg207
S'13.181'
p398
sg209
g80
sg210
g211
sg212
S'10.6'
p399
sg214
F1495.0
sg215
S'8.67'
p400
sg217
g218
sg219
S'11.0'
p401
sg221
S'0.11'
p402
sg223
S'SAB(rs)bc;HII_Sbrst'
p403
sg225
S'9.89'
p404
sg227
S'B_(B_T^0)'
p405
sg229
S'213.2'
p406
sg231
g232
sg233
S'NGC4536'
p407
sg235
S'28.0'
p408
sg237
g238
sg239
S'11.2'
p409
sg241
g242
sg243
S'K_lga2mass_tot'
p410
sg245
S'K_lga2mass_tot'
p411
sg247
g51
sg248
g249
sg250
g34
sg251
S'2.83'
p412
sg253
S'3.3'
p413
sg255
S'.SXT4..'
p414
sg257
g258
sg259
S"['NGC4536', 'UGC07732', '2MASXJ12342712+0211163', 'SDSSJ123427.04+021117.2']"
p415
sg261
S'188.61271'
p416
sg263
S'1.8'
p417
sg265
S'2103'
p418
sg267
S'0.093'
p419
sg269
S'59'
p420
sg271
S'K_lga2mass_tot'
p421
sg273
S'21.0'
p422
sg275
g85
sg277
S'13.8'
p423
sg279
S'1808'
p424
sg281
S'410.0'
p425
sg283
g284
sg285
g389
sg286
S'0.0157'
p426
sg288
S'3.8'
p427
sg290
S'2.83'
p428
sg292
S'64.730132'
p429
sg294
S'455.15'
p430
sg296
F50.9
sg297
S'1.2'
p431
sg299
S'15.4'
p432
saa(lp433
(dp434
g130
S'31'
p435
sg132
S'12'
p436
sg134
S'-99.99'
p437
sg136
S'100002'
p438
sg138
F143.636
sg139
F50.099014750791255
sg140
S'71'
p439
sg142
S'0.003486'
p440
sg144
S'B_(B_T)'
p441
sg146
S'3.9'
p442
sg148
S'285.201512'
p443
sg150
S'B_(m_B)'
p444
sg152
S'14.9'
p445
sg154
S'12.506'
p446
sg156
S'Lya'
p447
sg158
S'2.4'
p448
sg160
S'11.947'
p449
sg162
S'18.94'
p450
sg164
S'32.5272'
p451
sg166
S'65'
p452
sg168
S'x'
p453
sg170
S'0.12'
p454
sg172
F0.15490468605143468
sg173
S'13.59'
p455
sg175
S'18.942'
p456
sg177
S'105.18'
p457
sg179
S'NGC4497'
p458
sg181
S'0.52'
p459
sg183
S'11.62472'
p460
sg185
S'28.992'
p461
sg187
S'-99.99'
p462
sg189
S'75'
p463
sg191
S'37'
p464
sg193
g453
sg195
S'11'
p465
sg196
S'0.3'
p466
sg198
S'57.5'
p467
sg200
S'20'
p468
sg202
F0.0002692265924263614
sg203
S'0.46'
p469
sg205
g206
sg207
S'13.215'
p470
sg209
g206
sg210
S'6.41E+12'
p471
sg212
S'13.2'
p472
sg214
F1046.0
sg215
S'-99.99'
p473
sg217
S'4.64E+13'
p474
sg219
S'2.8'
p475
sg221
S'0.2'
p476
sg223
S'SAB(s)0+:'
p477
sg225
S'13.2'
p478
sg227
S'B_(B_T^0)'
p479
sg229
S'56.24'
p480
sg231
S'176'
p481
sg233
S'NGC4497'
p482
sg235
S'-99.99'
p483
sg237
S'12.051944444444445'
p484
sg239
S'13.4'
p485
sg241
S'0.11612'
p486
sg243
S'K_2mass_tot'
p487
sg245
S'K_2mass_tot'
p488
sg247
g51
sg248
S'34.5'
p489
sg250
g35
sg251
S'1.89'
p490
sg253
S'0.15'
p491
sg255
S'.LXS+*.'
p492
sg257
S'187.80458333333334'
p493
sg259
S"['NGC4497', 'IC3452', 'UGC07665', '2MASXJ12313253+1137291', 'SDSSJ123132.52+113728.9']"
p494
sg261
S'187.88553'
p495
sg263
S'0.14'
p496
sg265
S'1345'
p497
sg267
S'0.093'
p498
sg269
S'68'
p499
sg271
S'K_2mass_tot'
p500
sg273
S'7.4'
p501
sg275
S'197'
p502
sg277
S'13.7'
p503
sg279
S'1045'
p504
sg281
S'148.0'
p505
sg283
g284
sg285
g459
sg286
S'0.0369'
p506
sg288
S'0.31'
p507
sg290
S'-99.99'
p508
sg292
S'73.807687'
p509
sg294
S'122.5'
p510
sg296
F85.5
sg297
S'0.25'
p511
sg299
S'5.165'
p512
sa(dp513
g130
S'31'
p514
sg132
S'12'
p515
sg134
S'-99.99'
p516
sg136
S'-99'
p517
sg138
F22.059
sg139
F4.134459937646028
sg140
S'50'
p518
sg142
S'0.002591'
p519
sg144
S'B_t'
p520
sg146
g442
sg148
S'284.766394'
p521
sg150
S'B_J_25'
p522
sg152
S'-99.99'
p523
sg154
S'16.371'
p524
sg156
g447
sg158
g448
sg160
S'16.007'
p525
sg162
S'15.16'
p526
sg164
S'33.3528'
p527
sg166
S'-99'
p528
sg168
g453
sg170
S'0.0018'
p529
sg172
F0.10587677862750439
sg173
S'2.576'
p530
sg175
S'15.168'
p531
sg177
S'33.39'
p532
sg179
S'PGC041458'
p533
sg181
S'0.22'
p534
sg183
S'12.06378'
p535
sg185
S'49.608'
p536
sg187
S'-99.99'
p537
sg189
S'154'
p538
sg191
g201
sg193
g453
sg195
S'12'
p539
sg196
S'0.0064'
p540
sg198
g467
sg200
g468
sg202
F7.104062631394904e-14
sg203
S'-99.99'
p541
sg205
g80
sg207
S'16.991'
p542
sg209
g206
sg210
g471
sg212
S'16.9'
p543
sg214
F1046.0
sg215
S'-99.99'
p544
sg217
g474
sg219
S'0.58'
p545
sg221
S'0.004'
p546
sg223
S'dE6,N'
p547
sg225
S'16.8'
p548
sg227
S'B_tot__(INT/WFC)'
p549
sg229
S'23.12'
p550
sg231
g481
sg233
S'VCC1369'
p551
sg235
S'-99.99'
p552
sg237
g484
sg239
S'17.4'
p553
sg241
g486
sg243
S'r_sdss_iso'
p554
sg245
S'r_sdss_iso'
p555
sg247
g51
sg248
g489
sg250
g35
sg251
S'1.51'
p556
sg253
S'0.0033'
p557
sg255
g453
sg257
g493
sg259
S"['SDSSJ123133.35+120349.5']"
p558
sg261
S'187.88897'
p559
sg263
S'0.0029'
p560
sg265
S'1077'
p561
sg267
S'0.0018'
p562
sg269
S'49'
p563
sg271
S'r_sdss_iso'
p564
sg273
S'0.35'
p565
sg275
S'-99'
p566
sg277
S'17.4'
p567
sg279
S'777'
p568
sg281
S'35.03'
p569
sg283
g284
sg285
g534
sg286
S'0.0242'
p570
sg288
S'0.0069'
p571
sg290
S'-99.99'
p572
sg292
S'74.230105'
p573
sg294
S'-99.99'
p574
sg296
F72.2
sg297
S'0.0039'
p575
sg299
S'1.7'
p576
sa(dp577
g130
S'30'
p578
sg132
S'12'
p579
sg134
S'-99.99'
p580
sg136
S'-99'
p581
sg138
F134.905
sg139
F72.76894534758628
sg140
S'12'
p582
sg142
S'0.0042'
p583
sg144
g453
sg146
g442
sg148
S'283.753686'
p584
sg150
g453
sg152
S'-99.99'
p585
sg154
S'11.752'
p586
sg156
g447
sg158
g448
sg160
S'10.94'
p587
sg162
S'21.95'
p588
sg164
S'47.5512'
p589
sg166
S'-99'
p590
sg168
g453
sg170
S'-99.99'
p591
sg172
F0.10013624810395332
sg173
S'17.43'
p592
sg175
S'21.957'
p593
sg177
S'124.88'
p594
sg179
S'SDSSJ123047.55+122318.1'
p595
sg181
S'1.9'
p596
sg183
S'12.38836'
p597
sg185
S'18.096'
p598
sg187
S'-99.99'
p599
sg189
S'5'
p600
sg191
S'23'
p601
sg193
g453
sg195
S'12'
p602
sg196
S'-99.99'
p603
sg198
g467
sg200
g468
sg202
F0.01034655632516298
sg203
S'-99.99'
p604
sg205
g201
sg207
S'12.544'
p605
sg209
g206
sg210
g471
sg212
S'-99.99'
p606
sg214
F1046.0
sg215
S'-99.99'
p607
sg217
g474
sg219
S'1.3'
p608
sg221
S'0.47'
p609
sg223
g453
sg225
S'-99.99'
p610
sg227
g453
sg229
S'160.5'
p611
sg231
g481
sg233
S'SDSSJ123047.55+122318.1'
p612
sg235
S'-99.99'
p613
sg237
g484
sg239
S'-99.99'
p614
sg241
g486
sg243
S'r_sdss_dev'
p615
sg245
S'r_sdss_pet'
p616
sg247
g51
sg248
g489
sg250
g35
sg251
S'2.19'
p617
sg253
S'-99.99'
p618
sg255
g453
sg257
g493
sg259
S"['SDSSJ123047.55+122318.1']"
p619
sg261
S'187.69813'
p620
sg263
S'-99.99'
p621
sg265
S'1559'
p622
sg267
S'0.22'
p623
sg269
S'12'
p624
sg271
S'r_sdss_dev'
p625
sg273
S'1.3'
p626
sg275
S'-99'
p627
sg277
S'13'
p628
sg279
S'1259'
p629
sg281
S'163.8'
p630
sg283
g284
sg285
g596
sg286
S'0.0196'
p631
sg288
S'-99.99'
p632
sg290
S'-99.99'
p633
sg292
S'74.486215'
p634
sg294
S'-99.99'
p635
sg296
F22.2
sg297
S'-99.99'
p636
sg299
S'17.08'
p637
sa(dp638
g130
S'30'
p639
sg132
S'12'
p640
sg134
S'16.8'
p641
sg136
S'-99'
p642
sg138
F29.438
sg139
F1.991688300663535
sg140
S'61'
p643
sg142
S'0.004183'
p644
sg144
S'B_J_25'
p645
sg146
g442
sg148
S'284.144051'
p646
sg150
S'B_t'
p647
sg152
S'-99.99'
p648
sg154
S'16.681'
p649
sg156
g447
sg158
g448
sg160
S'16.821'
p650
sg162
S'16.8'
p651
sg164
S'48.5208'
p652
sg166
S'-99'
p653
sg168
S'TFest'
p654
sg170
S'0.00049'
p655
sg172
F0.07399083536634846
sg173
S'1.583'
p656
sg175
S'21.886'
p657
sg177
S'23.86'
p658
sg179
S'PGC041360'
p659
sg181
S'0.057'
p660
sg183
S'12.04502'
p661
sg185
S'42.072'
p662
sg187
S'16.9'
p663
sg189
S'78'
p664
sg191
g206
sg193
g453
sg195
S'12'
p665
sg196
S'0.0031'
p666
sg198
g467
sg200
g468
sg202
F4.506852821624547e-96
sg203
S'0.51'
p667
sg205
g206
sg207
S'16.71'
p668
sg209
g206
sg210
g471
sg212
S'17.9'
p669
sg214
F1046.0
sg215
S'16.8'
p670
sg217
g474
sg219
S'0.63'
p671
sg221
S'0.0075'
p672
sg223
S'Blue_Compact_Dwarf'
p673
sg225
S'17.9'
p674
sg227
S'B_J_25'
p675
sg229
S'9.911'
p676
sg231
g481
sg233
S'VCC1313'
p677
sg235
S'17.0'
p678
sg237
g484
sg239
S'18'
p679
sg241
g486
sg243
S'r_sdss_iso'
p680
sg245
S'r_sdss_iso'
p681
sg247
g51
sg248
g489
sg250
g35
sg251
S'0.1'
p682
sg253
S'0.0003'
p683
sg255
S'       '
p684
sg257
g493
sg259
S"['SDSSJ123048.61+120242.8']"
p685
sg261
S'187.70217'
p686
sg263
S'0.0003'
p687
sg265
S'1554'
p688
sg267
S'0.00026'
p689
sg269
S'59'
p690
sg271
S'rc3_dr_25'
p691
sg273
S'0.27'
p692
sg275
S'-99'
p693
sg277
S'16.9'
p694
sg279
S'1254'
p695
sg281
S'19.43'
p696
sg283
g284
sg285
g660
sg286
S'0.0235'
p697
sg288
S'0.0031'
p698
sg290
S'0.1'
p699
sg292
S'74.159451'
p700
sg294
S'13.13'
p701
sg296
F8.0
sg297
S'0.0029'
p702
sg299
S'0.8073'
p703
sa(dp704
g130
S'30'
p705
sg132
S'12'
p706
sg134
S'17.1'
p707
sg136
S'100002'
p708
sg138
F67.818
sg139
F18.8386547290405
sg140
S'38'
p709
sg142
S'0.002528'
p710
sg144
S'B_T__(Johnson)'
p711
sg146
g442
sg148
S'284.03156'
p712
sg150
S'B_(HST)'
p713
sg152
S'14.9'
p714
sg154
S'12.217'
p715
sg156
g447
sg158
g448
sg160
S'11.078'
p716
sg162
S'17.1'
p717
sg164
S'57.7104'
p718
sg166
S'-99'
p719
sg168
S'GCLF'
p720
sg170
S'0.087'
p721
sg172
F0.04522842883697785
sg173
S'7.08'
p722
sg175
S'14.901'
p723
sg177
S'67.07'
p724
sg179
S'NGC4486A'
p725
sg181
S'0.46'
p726
sg183
S'12.27036'
p727
sg185
S'13.296'
p728
sg187
S'16.871'
p729
sg189
g600
sg191
S'16'
p730
sg193
g453
sg195
S'12'
p731
sg196
S'0.26'
p732
sg198
g467
sg200
g468
sg202
F2.9592559063604426e-07
sg203
S'-99.99'
p733
sg205
g600
sg207
S'12.85'
p734
sg209
g206
sg210
g471
sg212
S'13.1'
p735
sg214
F1046.0
sg215
S'15.0'
p736
sg217
g474
sg219
S'3.4'
p737
sg221
S'0.23'
p738
sg223
S'E2'
p739
sg225
S'13.1'
p740
sg227
S'B_T__(Johnson)'
p741
sg229
S'68.32'
p742
sg231
g481
sg233
S'NGC4486A'
p743
sg235
S'18.4'
p744
sg237
g484
sg239
S'13.3'
p745
sg241
g486
sg243
S'K_2mass_tot'
p746
sg245
S'K_2mass_tot'
p747
sg247
g51
sg248
g489
sg250
g35
sg251
S'1.39'
p748
sg253
S'0.099'
p749
sg255
g453
sg257
g493
sg259
S"['NGC4486A', 'UGC07658', '2MASXJ12305772+1216132', 'SDSSJ123057.71+121613.2']"
p750
sg261
S'187.74046'
p751
sg263
S'0.099'
p752
sg265
S'1058'
p753
sg267
S'0.085'
p754
sg269
S'37'
p755
sg271
S'K_2mass_tot'
p756
sg273
S'4.3'
p757
sg275
S'197'
p758
sg277
S'13.3'
p759
sg279
S'758'
p760
sg281
S'85.4'
p761
sg283
g284
sg285
g726
sg286
S'0.0202'
p762
sg288
S'0.26'
p763
sg290
S'1.394'
p764
sg292
S'74.385832'
p765
sg294
S'-99.99'
p766
sg296
F21.0
sg297
S'0.23'
p767
sg299
S'5.664'
p768
sa(dp769
g130
S'30'
p770
sg132
S'12'
p771
sg134
S'-99.99'
p772
sg136
S'-99'
p773
sg138
F45.932
sg139
F3.752975269702693
sg140
S'48'
p774
sg142
S'0.004255'
p775
sg144
S'B_t'
p776
sg146
g442
sg148
S'284.055307'
p777
sg150
S'B_J_25'
p778
sg152
S'-99.99'
p779
sg154
S'17.214'
p780
sg156
g447
sg158
g448
sg160
S'17.04'
p781
sg162
S'22.19'
p782
sg164
S'46.3896'
p783
sg166
S'-99'
p784
sg168
g453
sg170
S'0.0021'
p785
sg172
F0.03364654602458452
sg173
S'2.415'
p786
sg175
S'22.196'
p787
sg177
S'31.93'
p788
sg179
S'SDSSJ123046.38+120556.5'
p789
sg181
S'0.23'
p790
sg183
S'12.09908'
p791
sg185
S'56.688'
p792
sg187
S'-99.99'
p793
sg189
S'38'
p794
sg191
g600
sg193
g453
sg195
S'12'
p795
sg196
S'0.0056'
p796
sg198
g467
sg200
g468
sg202
F2.3615732625719764e-66
sg203
S'-99.99'
p797
sg205
g206
sg207
S'17.464'
p798
sg209
g206
sg210
g471
sg212
S'17.9'
p799
sg214
F1046.0
sg215
S'-99.99'
p800
sg217
g474
sg219
S'0.52'
p801
sg221
S'0.0061'
p802
sg223
g453
sg225
S'17.9'
p803
sg227
S'B_t'
p804
sg229
S'15.26'
p805
sg231
g481
sg233
S'VPC0766'
p806
sg235
S'-99.99'
p807
sg237
g484
sg239
S'18.1'
p808
sg241
g486
sg243
S'r_sdss_dev'
p809
sg245
S'r_sdss_iso'
p810
sg247
g51
sg248
g489
sg250
g35
sg251
S'2.21'
p811
sg253
S'0.0027'
p812
sg255
g453
sg257
g493
sg259
S"['SDSSJ123046.38+120556.5']"
p813
sg261
S'187.69329'
p814
sg263
S'0.0027'
p815
sg265
S'1576'
p816
sg267
S'0.0028'
p817
sg269
S'47'
p818
sg271
S'r_sdss_iso'
p819
sg273
S'0.28'
p820
sg275
S'-99'
p821
sg277
S'17.8'
p822
sg279
S'1276'
p823
sg281
S'22.44'
p824
sg283
g284
sg285
g790
sg286
S'0.0231'
p825
sg288
S'0.0056'
p826
sg290
S'-99.99'
p827
sg292
S'74.20858'
p828
sg294
S'-99.99'
p829
sg296
F75.4
sg297
S'0.0044'
p830
sg299
S'1.642'
p831
saa(lp832
(dp833
g130
S'30'
p834
sg132
S'12'
p835
sg134
S'-99.99'
p836
sg136
S'-99'
p837
sg138
F134.905
sg139
F72.76894534758628
sg140
S'12'
p838
sg142
S'0.0042'
p839
sg144
g453
sg146
S'2.4'
p840
sg148
S'283.753686'
p841
sg150
g453
sg152
S'-99.99'
p842
sg154
S'11.752'
p843
sg156
S'Lya'
p844
sg158
S'1.4'
p845
sg160
S'10.94'
p846
sg162
S'21.95'
p847
sg164
S'47.5512'
p848
sg166
S'-99'
p849
sg168
g453
sg170
S'-99.99'
p850
sg172
F0.3056778408534248
sg173
S'17.43'
p851
sg175
S'21.957'
p852
sg177
S'124.88'
p853
sg179
S'SDSSJ123047.55+122318.1'
p854
sg181
S'1.9'
p855
sg183
S'12.38836'
p856
sg185
S'18.096'
p857
sg187
S'-99.99'
p858
sg189
g600
sg191
S'23'
p859
sg193
g453
sg195
S'12'
p860
sg196
S'-99.99'
p861
sg198
S'94.4'
p862
sg200
S'16'
p863
sg202
F0.031584097243796204
sg203
S'-99.99'
p864
sg205
g201
sg207
S'12.544'
p865
sg209
g206
sg210
S'2.84E+13'
p866
sg212
S'-99.99'
p867
sg214
F1286.0
sg215
S'-99.99'
p868
sg217
S'2.35E+14'
p869
sg219
S'1.3'
p870
sg221
S'0.47'
p871
sg223
g453
sg225
S'-99.99'
p872
sg227
g453
sg229
S'160.5'
p873
sg231
S'525'
p874
sg233
S'SDSSJ123047.55+122318.1'
p875
sg235
S'-99.99'
p876
sg237
S'12.051944444444445'
p877
sg239
S'-99.99'
p878
sg241
S'0.11612'
p879
sg243
S'r_sdss_dev'
p880
sg245
S'r_sdss_pet'
p881
sg247
g51
sg248
S'56.7'
p882
sg250
g36
sg251
S'2.19'
p883
sg253
S'-99.99'
p884
sg255
g453
sg257
S'187.80458333333334'
p885
sg259
S"['SDSSJ123047.55+122318.1']"
p886
sg261
S'187.69813'
p887
sg263
S'-99.99'
p888
sg265
S'1559'
p889
sg267
S'0.22'
p890
sg269
S'12'
p891
sg271
S'r_sdss_dev'
p892
sg273
S'1.3'
p893
sg275
S'-99'
p894
sg277
S'13'
p895
sg279
S'1259'
p896
sg281
S'163.8'
p897
sg283
g284
sg285
g855
sg286
S'0.0196'
p898
sg288
S'-99.99'
p899
sg290
S'-99.99'
p900
sg292
S'74.486215'
p901
sg294
S'-99.99'
p902
sg296
F22.2
sg297
S'-99.99'
p903
sg299
S'17.08'
p904
sa(dp905
g130
S'30'
p906
sg132
S'12'
p907
sg134
S'16.8'
p908
sg136
S'-99'
p909
sg138
F29.438
sg139
F1.991688300663535
sg140
S'61'
p910
sg142
S'0.004183'
p911
sg144
S'B_J_25'
p912
sg146
g840
sg148
S'284.144051'
p913
sg150
S'B_t'
p914
sg152
S'-99.99'
p915
sg154
S'16.681'
p916
sg156
g844
sg158
g845
sg160
S'16.821'
p917
sg162
S'16.8'
p918
sg164
S'48.5208'
p919
sg166
S'-99'
p920
sg168
S'TFest'
p921
sg170
S'0.00049'
p922
sg172
F0.21271244691469227
sg173
S'1.583'
p923
sg175
S'21.886'
p924
sg177
S'23.86'
p925
sg179
S'PGC041360'
p926
sg181
S'0.057'
p927
sg183
S'12.04502'
p928
sg185
S'42.072'
p929
sg187
S'16.9'
p930
sg189
S'78'
p931
sg191
g206
sg193
g453
sg195
S'12'
p932
sg196
S'0.0031'
p933
sg198
g862
sg200
g863
sg202
F1.2956519369264337e-95
sg203
S'0.51'
p934
sg205
g206
sg207
S'16.71'
p935
sg209
g206
sg210
g866
sg212
S'17.9'
p936
sg214
F1286.0
sg215
S'16.8'
p937
sg217
g869
sg219
S'0.63'
p938
sg221
S'0.0075'
p939
sg223
S'Blue_Compact_Dwarf'
p940
sg225
S'17.9'
p941
sg227
S'B_J_25'
p942
sg229
S'9.911'
p943
sg231
g874
sg233
S'VCC1313'
p944
sg235
S'17.0'
p945
sg237
g877
sg239
S'18'
p946
sg241
g879
sg243
S'r_sdss_iso'
p947
sg245
S'r_sdss_iso'
p948
sg247
g51
sg248
g882
sg250
g36
sg251
S'0.1'
p949
sg253
S'0.0003'
p950
sg255
S'       '
p951
sg257
g885
sg259
S"['SDSSJ123048.61+120242.8']"
p952
sg261
S'187.70217'
p953
sg263
S'0.0003'
p954
sg265
S'1554'
p955
sg267
S'0.00026'
p956
sg269
S'59'
p957
sg271
S'rc3_dr_25'
p958
sg273
S'0.27'
p959
sg275
S'-99'
p960
sg277
S'16.9'
p961
sg279
S'1254'
p962
sg281
S'19.43'
p963
sg283
g284
sg285
g927
sg286
S'0.0235'
p964
sg288
S'0.0031'
p965
sg290
S'0.1'
p966
sg292
S'74.159451'
p967
sg294
S'13.13'
p968
sg296
F8.0
sg297
S'0.0029'
p969
sg299
S'0.8073'
p970
sa(dp971
g130
S'30'
p972
sg132
S'12'
p973
sg134
S'16.4'
p974
sg136
S'100002'
p975
sg138
F102.384
sg139
F30.173112234040428
sg140
S'36'
p976
sg142
S'0.0045'
p977
sg144
S'B_(m_B)'
p978
sg146
g840
sg148
S'283.385189'
p979
sg150
S'B_(B_T)'
p980
sg152
S'14.9'
p981
sg154
S'14.046'
p982
sg156
g844
sg158
g845
sg160
S'13.373'
p983
sg162
S'16.4'
p984
sg164
S'17.4168'
p985
sg166
S'140'
p986
sg168
S'SBF'
p987
sg170
S'0.37'
p988
sg172
F0.19990541991855112
sg173
S'9.692'
p989
sg175
S'23.225'
p990
sg177
S'83.3'
p991
sg179
S'NGC4478'
p992
sg181
S'1.3'
p993
sg183
S'12.32855'
p994
sg185
S'42.78'
p995
sg187
S'16.11'
p996
sg189
S'140'
p997
sg191
S'19'
p998
sg193
g453
sg195
S'12'
p999
sg196
S'0.55'
p1000
sg198
g862
sg200
g863
sg202
F9.046205293878549e-06
sg203
S'0.85'
p1001
sg205
S'6'
p1002
sg207
S'14.873'
p1003
sg209
g206
sg210
g866
sg212
S'12.2'
p1004
sg214
F1286.0
sg215
S'8.87'
p1005
sg217
g869
sg219
S'5.0'
p1006
sg221
S'0.03'
p1007
sg223
S'E2'
p1008
sg225
S'12.2'
p1009
sg227
S'B_(HST)'
p1010
sg229
S'99.96'
p1011
sg231
g874
sg233
S'NGC4478'
p1012
sg235
S'23.3'
p1013
sg237
g877
sg239
S'12.4'
p1014
sg241
g879
sg243
S'K_2mass_tot'
p1015
sg245
S'K_2mass_tot'
p1016
sg247
g51
sg248
g882
sg250
g36
sg251
S'2.74'
p1017
sg253
S'0.44'
p1018
sg255
S'.E.2...'
p1019
sg257
g885
sg259
S"['NGC4478', 'UGC07645', '2MASXJ12301743+1219428', 'SDSSJ123017.41+121942.7']"
p1020
sg261
S'187.57257'
p1021
sg263
S'0.43'
p1022
sg265
S'1649'
p1023
sg267
S'0.023'
p1024
sg269
S'35'
p1025
sg271
S'K_2mass_tot'
p1026
sg273
S'6.1'
p1027
sg275
S'197'
p1028
sg277
S'15.4'
p1029
sg279
S'1349'
p1030
sg281
S'121.9'
p1031
sg283
g284
sg285
g993
sg286
S'0.0207'
p1032
sg288
S'0.57'
p1033
sg290
S'2.74'
p1034
sg292
S'74.392153'
p1035
sg294
S'114.33'
p1036
sg296
F0.6
sg297
S'0.48'
p1037
sg299
S'7.948'
p1038
sa(dp1039
g130
S'30'
p1040
sg132
S'12'
p1041
sg134
S'-99.99'
p1042
sg136
S'-99'
p1043
sg138
F39.705
sg139
F3.137135350443139
sg140
S'67'
p1044
sg142
S'0.004386'
p1045
sg144
g453
sg146
g840
sg148
S'284.145017'
p1046
sg150
g453
sg152
S'-99.99'
p1047
sg154
S'16.681'
p1048
sg156
g844
sg158
g845
sg160
S'16.821'
p1049
sg162
S'22.74'
p1050
sg164
S'48.6048'
p1051
sg166
S'-99'
p1052
sg168
g453
sg170
S'-99.99'
p1053
sg172
F0.1580406799069797
sg173
S'2.143'
p1054
sg175
S'22.745'
p1055
sg177
S'29.4'
p1056
sg179
S'SDSSJ123048.60+120242.8'
p1057
sg181
S'0.18'
p1058
sg183
S'12.04523'
p1059
sg185
S'42.828'
p1060
sg187
S'-99.99'
p1061
sg189
S'78'
p1062
sg191
g206
sg193
g453
sg195
S'12'
p1063
sg196
S'-99.99'
p1064
sg198
g862
sg200
g863
sg202
F2.648989719569131e-70
sg203
S'-99.99'
p1065
sg205
g206
sg207
S'16.71'
p1066
sg209
g206
sg210
g866
sg212
S'-99.99'
p1067
sg214
F1286.0
sg215
S'-99.99'
p1068
sg217
g869
sg219
S'0.69'
p1069
sg221
S'0.014'
p1070
sg223
S'Extended_Src_[SDSS]'
p1071
sg225
S'-99.99'
p1072
sg227
g453
sg229
S'8.357'
p1073
sg231
g874
sg233
S'SDSSJ123048.60+120242.8'
p1074
sg235
S'-99.99'
p1075
sg237
g877
sg239
S'-99.99'
p1076
sg241
g879
sg243
S'r_sdss_iso'
p1077
sg245
S'r_sdss_iso'
p1078
sg247
g51
sg248
g882
sg250
g36
sg251
S'2.27'
p1079
sg253
S'-99.99'
p1080
sg255
g453
sg257
g885
sg259
S"['SDSSJ123048.60+120242.8']"
p1081
sg261
S'187.70252'
p1082
sg263
S'-99.99'
p1083
sg265
S'1615'
p1084
sg267
S'0.0063'
p1085
sg269
S'65'
p1086
sg271
S'r_sdss_dev'
p1087
sg273
S'0.27'
p1088
sg275
S'-99'
p1089
sg277
S'16.9'
p1090
sg279
S'1315'
p1091
sg281
S'19.43'
p1092
sg283
g284
sg285
g1058
sg286
S'0.0235'
p1093
sg288
S'-99.99'
p1094
sg290
S'-99.99'
p1095
sg292
S'74.159754'
p1096
sg294
S'-99.99'
p1097
sg296
F8.2
sg297
S'-99.99'
p1098
sg299
S'0.9215'
p1099
saa(lp1100
(dp1101
g130
S'36'
p1102
sg132
S'12'
p1103
sg134
S'-99.99'
p1104
sg136
S'-99'
p1105
sg138
F131.386
sg139
F25.599397118994816
sg140
S'45'
p1106
sg142
S'0.024591'
p1107
sg144
g453
sg146
g600
sg148
S'218.322536'
p1108
sg150
g453
sg152
S'-99.99'
p1109
sg154
S'16.007'
p1110
sg156
S'Lya'
p1111
sg158
g201
sg160
S'15.395'
p1112
sg162
S'107.93'
p1113
sg164
S'12.2616'
p1114
sg166
S'-99'
p1115
sg168
g453
sg170
S'-99.99'
p1116
sg172
F0.031770762648058115
sg173
S'8.686'
p1117
sg175
S'107.931'
p1118
sg177
S'77.23'
p1119
sg179
S'IC3565'
p1120
sg181
S'0.63'
p1121
sg183
S'26.75612'
p1122
sg185
S'22.032'
p1123
sg187
S'-99.99'
p1124
sg189
S'25'
p1125
sg191
S'45'
p1126
sg193
g453
sg195
S'26'
p1127
sg196
S'-99.99'
p1128
sg198
S'34.6'
p1129
sg200
S'9'
p1130
sg202
F2.084658396859238e-12
sg203
S'-99.99'
p1131
sg205
g85
sg207
S'16.711'
p1132
sg209
g80
sg210
S'2.01E+12'
p1133
sg212
S'-99.99'
p1134
sg214
F7223.0
sg215
S'-99.99'
p1135
sg217
S'1.07E+13'
p1136
sg219
S'0.6'
p1137
sg221
S'0.25'
p1138
sg223
g453
sg225
S'-99.99'
p1139
sg227
g453
sg229
S'11.95'
p1140
sg231
S'51'
p1141
sg233
S'IC3565'
p1142
sg235
S'-99.99'
p1143
sg237
S'26.693333333333335'
p1144
sg239
S'-99.99'
p1145
sg241
S'0.20915'
p1146
sg243
S'K_2mass_tot'
p1147
sg245
S'K_2mass_tot'
p1148
sg247
g51
sg248
S'20.8'
p1149
sg250
g37
sg251
S'10.79'
p1150
sg253
S'-99.99'
p1151
sg255
g453
sg257
S'189.01708333333332'
p1152
sg259
S"['IC3565', '2MASXJ12361227+2645221', 'SDSSJ123612.26+264521.9']"
p1153
sg261
S'189.05109'
p1154
sg263
S'-99.99'
p1155
sg265
S'7663'
p1156
sg267
S'0.12'
p1157
sg269
S'44'
p1158
sg271
S'r_sdss_iso'
p1159
sg273
S'0.83'
p1160
sg275
S'-99'
p1161
sg277
S'17.2'
p1162
sg279
S'7372'
p1163
sg281
S'16.6'
p1164
sg283
g284
sg285
g1121
sg286
S'0.0172'
p1165
sg288
S'-99.99'
p1166
sg290
S'-99.99'
p1167
sg292
S'86.58476'
p1168
sg294
S'-99.99'
p1169
sg296
F0.8
sg297
S'-99.99'
p1170
sg299
S'6.254'
p1171
sa(dp1172
g130
S'36'
p1173
sg132
S'12'
p1174
sg134
S'-99.99'
p1175
sg136
S'-99'
p1176
sg138
F177.718
sg139
F130.05851860989347
sg140
S'77'
p1177
sg142
S'0.025151'
p1178
sg144
g453
sg146
g600
sg148
S'217.76268'
p1179
sg150
g453
sg152
S'-99.99'
p1180
sg154
S'-99.99'
p1181
sg156
g1111
sg158
g201
sg160
S'-99.99'
p1182
sg162
S'110.29'
p1183
sg164
S'2.2104'
p1184
sg166
S'-99'
p1185
sg168
g453
sg170
S'-99.99'
p1186
sg172
F0.024742850860609622
sg173
S'25.67'
p1187
sg175
S'110.297'
p1188
sg177
S'163.12'
p1189
sg179
S'2MFGC09922'
p1190
sg181
S'0.77'
p1191
sg183
S'26.78539'
p1192
sg185
S'7.404'
p1193
sg187
S'-99.99'
p1194
sg189
S'25'
p1195
sg191
S'47'
p1196
sg193
g453
sg195
S'26'
p1197
sg196
S'-99.99'
p1198
sg198
g1129
sg200
g1130
sg202
F0.01253286507834713
sg203
S'-99.99'
p1199
sg205
g80
sg207
S'-99.99'
p1200
sg209
g80
sg210
g1133
sg212
S'-99.99'
p1201
sg214
F7223.0
sg215
S'-99.99'
p1202
sg217
g1136
sg219
S'0.72'
p1203
sg221
S'-99.99'
p1204
sg223
g453
sg225
S'-99.99'
p1205
sg227
g453
sg229
S'14.4'
p1206
sg231
g1141
sg233
S'2MFGC09922'
p1207
sg235
S'-99.99'
p1208
sg237
g1144
sg239
S'-99.99'
p1209
sg241
g1146
sg243
S'K_2mass_tot'
p1210
sg245
S'K_2mass_tot'
p1211
sg247
g51
sg248
g1149
sg250
g37
sg251
S'11.02'
p1212
sg253
S'-99.99'
p1213
sg255
g453
sg257
g1152
sg259
S"['2MASXJ12360219+2647071', 'SDSSJ123602.20+264707.3']"
p1214
sg261
S'189.00921'
p1215
sg263
S'-99.99'
p1216
sg265
S'7831'
p1217
sg267
S'-99.99'
p1218
sg269
S'73'
p1219
sg271
S'K_2mass_tot'
p1220
sg273
S'2.4'
p1221
sg275
S'-99'
p1222
sg277
S'-99.99'
p1223
sg279
S'7540'
p1224
sg281
S'48.0'
p1225
sg283
g284
sg285
g1191
sg286
S'0.0163'
p1226
sg288
S'-99.99'
p1227
sg290
S'-99.99'
p1228
sg292
S'86.551124'
p1229
sg294
S'-99.99'
p1230
sg296
F29.4
sg297
S'-99.99'
p1231
sg299
S'7.7'
p1232
sa(dp1233
g130
S'35'
p1234
sg132
S'12'
p1235
sg134
S'110.0'
p1236
sg136
S'100082'
p1237
sg138
F433.857
sg139
F404.11450691109815
sg140
S'47'
p1238
sg142
S'0.024987'
p1239
sg144
S'B_(m_B^0)'
p1240
sg146
g600
sg148
S'215.636722'
p1241
sg150
S'B_(Johnson)'
p1242
sg152
S'76.7'
p1243
sg154
S'12.94'
p1244
sg156
g1111
sg158
g201
sg160
S'12.294'
p1245
sg162
S'110'
p1246
sg164
S'45.8568'
p1247
sg166
S'80'
p1248
sg168
S'TF'
p1249
sg170
S'0.64'
p1250
sg172
F0.013724070411467367
sg173
S'54.66'
p1251
sg175
S'109.605'
p1252
sg177
S'274.78'
p1253
sg179
S'NGC4556'
p1254
sg181
S'1.7'
p1255
sg183
S'26.90889'
p1256
sg185
S'32.004'
p1257
sg187
S'108.667'
p1258
sg189
S'70'
p1259
sg191
S'54'
p1260
sg193
g453
sg195
S'26'
p1261
sg196
S'4.4'
p1262
sg198
g1129
sg200
g1130
sg202
F0.05243320621074266
sg203
S'0.83'
p1263
sg205
g85
sg207
S'13.747'
p1264
sg209
g80
sg210
g1133
sg212
S'14.1'
p1265
sg214
F7223.0
sg215
S'102.0'
p1266
sg217
g1136
sg219
S'3.6'
p1267
sg221
S'3.8'
p1268
sg223
S'E+:'
p1269
sg225
S'13.9'
p1270
sg227
S'B_(m_B)'
p1271
sg229
S'71.75'
p1272
sg231
g1141
sg233
S'NGC4556'
p1273
sg235
S'114.0'
p1274
sg237
g1144
sg239
S'14.6'
p1275
sg241
g1146
sg243
S'K_2mass_tot'
p1276
sg245
S'K_2mass_tot'
p1277
sg247
g51
sg248
g1149
sg250
g37
sg251
S'4.98'
p1278
sg253
S'1.0'
p1279
sg255
S'.E+..*.'
p1280
sg257
g1152
sg259
S"['NGC4556', 'UGC07765', '2MASXJ12354585+2654317', 'SDSSJ123545.85+265431.9']"
p1281
sg261
S'188.94107'
p1282
sg263
S'1.1'
p1283
sg265
S'7782'
p1284
sg267
S'0.8'
p1285
sg269
S'46'
p1286
sg271
S'K_2mass_tot'
p1287
sg273
S'5.1'
p1288
sg275
S'12'
p1289
sg277
S'14.2'
p1290
sg279
S'7491'
p1291
sg281
S'102.5'
p1292
sg283
g284
sg285
g1255
sg286
S'0.0151'
p1293
sg288
S'5.0'
p1294
sg290
S'4.989'
p1295
sg292
S'86.502512'
p1296
sg294
S'72.14'
p1297
sg296
F87.5
sg297
S'2.7'
p1298
sg299
S'38.26'
p1299
saa(lp1300
(dp1301
g130
S'18'
p1302
sg132
S'12'
p1303
sg134
S'-99.99'
p1304
sg136
S'-99'
p1305
sg138
F39.341
sg139
F4.907900882454738
sg140
S'49'
p1306
sg142
S'0.002538'
p1307
sg144
g453
sg146
S'3.9'
p1308
sg148
S'188.901093'
p1309
sg150
g453
sg152
S'-99.99'
p1310
sg154
S'16.175'
p1311
sg156
S'Lya'
p1312
sg158
S'2.3'
p1313
sg160
S'16.089'
p1314
sg162
S'14.75'
p1315
sg164
S'31.5576'
p1316
sg166
S'-99'
p1317
sg168
g453
sg170
S'-99.99'
p1318
sg172
F0.24727714525134953
sg173
S'2.888'
p1319
sg175
S'14.754'
p1320
sg177
S'36.13'
p1321
sg179
S'SDSSJ121831.55+300339.9'
p1322
sg181
S'0.24'
p1323
sg183
S'30.06111'
p1324
sg185
S'39.996'
p1325
sg187
S'-99.99'
p1326
sg189
S'65'
p1327
sg191
g201
sg193
g453
sg195
S'30'
p1328
sg196
S'-99.99'
p1329
sg198
S'81'
p1330
sg200
S'10'
p1331
sg202
F1.0069465406615513e-28
sg203
S'-99.99'
p1332
sg205
g80
sg207
S'16.814'
p1333
sg209
g80
sg210
S'8.28E+12'
p1334
sg212
S'-99.99'
p1335
sg214
F853.0
sg215
S'-99.99'
p1336
sg217
S'1.90E+14'
p1337
sg219
S'0.59'
p1338
sg221
S'0.0043'
p1339
sg223
S'Extended_Src_[SDSS]'
p1340
sg225
S'-99.99'
p1341
sg227
g453
sg229
S'27.05'
p1342
sg231
S'456'
p1343
sg233
S'SDSSJ121831.55+300339.9'
p1344
sg235
S'-99.99'
p1345
sg237
S'30.116944444444446'
p1346
sg239
S'-99.99'
p1347
sg241
S'0.13000'
p1348
sg243
S'r_sdss_iso'
p1349
sg245
S'r_sdss_iso'
p1350
sg247
g51
sg248
S'48.7'
p1351
sg250
g38
sg251
S'1.47'
p1352
sg253
S'-99.99'
p1353
sg255
g453
sg257
S'184.46708333333333'
p1354
sg259
S"['SDSSJ121831.55+300339.9']"
p1355
sg261
S'184.63149'
p1356
sg263
S'-99.99'
p1357
sg265
S'1048'
p1358
sg267
S'0.002'
p1359
sg269
S'48'
p1360
sg271
S'r_sdss_iso'
p1361
sg273
S'0.38'
p1362
sg275
S'-99'
p1363
sg277
S'17.2'
p1364
sg279
S'761'
p1365
sg281
S'40.38'
p1366
sg283
g284
sg285
g1323
sg286
S'0.0171'
p1367
sg288
S'-99.99'
p1368
sg290
S'-99.99'
p1369
sg292
S'82.205703'
p1370
sg294
S'-99.99'
p1371
sg296
F46.4
sg297
S'-99.99'
p1372
sg299
S'1.935'
p1373
sa(dp1374
g130
S'17'
p1375
sg132
S'12'
p1376
sg134
S'16.0'
p1377
sg136
S'100065'
p1378
sg138
F142.964
sg139
F60.25745723974751
sg140
S'59'
p1379
sg142
S'0.002948'
p1380
sg144
S'B_(B_T^0)'
p1381
sg146
g1308
sg148
S'192.521111'
p1382
sg150
S'B_T(25)_'
p1383
sg152
S'11.1'
p1384
sg154
S'-99.99'
p1385
sg156
g1312
sg158
g1313
sg160
S'-99.99'
p1386
sg162
S'16'
p1387
sg164
S'36.7728'
p1388
sg166
S'-99'
p1389
sg168
S'DRing'
p1390
sg170
S'0.42'
p1391
sg172
F0.20535569756963587
sg173
S'15.37'
p1392
sg175
S'16.495'
p1393
sg177
S'114.5'
p1394
sg179
S'NGC4245'
p1395
sg181
S'1.7'
p1396
sg183
S'29.60801'
p1397
sg185
S'28.836'
p1398
sg187
S'14.233'
p1399
sg189
S'135'
p1400
sg191
S'36'
p1401
sg193
g453
sg195
S'29'
p1402
sg196
S'0.55'
p1403
sg198
g1330
sg200
g1331
sg202
F0.003506868251582988
sg203
S'0.76'
p1404
sg205
g201
sg207
S'-99.99'
p1405
sg209
g80
sg210
g1334
sg212
S'12.2'
p1406
sg214
F853.0
sg215
S'9.7'
p1407
sg217
g1337
sg219
S'5.4'
p1408
sg221
S'-99.99'
p1409
sg223
S'SB(r)0/a:_HII'
p1410
sg225
S'12'
p1411
sg227
S'B^0^_T(25)_'
p1412
sg229
S'107.0'
p1413
sg231
g1343
sg233
S'NGC4245'
p1414
sg235
S'17.0'
p1415
sg237
g1346
sg239
S'12.4'
p1416
sg241
g1348
sg243
S'K_2mass_tot'
p1417
sg245
S'K_2mass_tot'
p1418
sg247
g51
sg248
g1351
sg250
g38
sg251
S'3.23'
p1419
sg253
S'0.58'
p1420
sg255
S'.SBR0*.'
p1421
sg257
g1354
sg259
S"['NGC4245', 'UGC07328', '2MASXJ12173678+2936288', 'SDSSJ121736.78+293628.8']"
p1422
sg261
S'184.40322'
p1423
sg263
S'0.52'
p1424
sg265
S'1171'
p1425
sg267
S'-99.99'
p1426
sg269
S'57'
p1427
sg271
S'K_2mass_tot'
p1428
sg273
S'9.9'
p1429
sg275
S'15'
p1430
sg277
S'-99.99'
p1431
sg279
S'884'
p1432
sg281
S'198.2'
p1433
sg283
g284
sg285
g1396
sg286
S'0.018'
p1434
sg288
S'0.63'
p1435
sg290
S'3.231'
p1436
sg292
S'82.159402'
p1437
sg294
S'173.04'
p1438
sg296
F51.2
sg297
S'0.44'
p1439
sg299
S'8.302'
p1440
sa(dp1441
g130
S'22'
p1442
sg132
S'12'
p1443
sg134
S'9.7'
p1444
sg136
S'100065'
p1445
sg138
F174.94
sg139
F59.72897079307494
sg140
S'48'
p1446
sg142
S'0.003212'
p1447
sg144
S'B_(B_T^0)'
p1448
sg146
g1308
sg148
S'187.68642'
p1449
sg150
S'B_(B_T)'
p1450
sg152
S'11.1'
p1451
sg154
S'11.18'
p1452
sg156
g1312
sg158
g1313
sg160
S'10.326'
p1453
sg162
S'9.7'
p1454
sg164
S'31.824'
p1455
sg166
S'-99'
p1456
sg168
S'TFest'
p1457
sg170
S'0.57'
p1458
sg172
F0.07024774829399949
sg173
S'15.28'
p1459
sg175
S'17.604'
p1460
sg177
S'114.04'
p1461
sg179
S'NGC4314'
p1462
sg181
S'3.2'
p1463
sg183
S'29.89589'
p1464
sg185
S'45.204'
p1465
sg187
S'9.7'
p1466
sg189
S'148'
p1467
sg191
S'53'
p1468
sg193
S'LC_I'
p1469
sg195
S'29'
p1470
sg196
S'0.47'
p1471
sg198
g1330
sg200
g1331
sg202
F0.00013901380597443704
sg203
S'0.89'
p1472
sg205
g85
sg207
S'11.826'
p1473
sg209
g80
sg210
g1334
sg212
S'11.2'
p1474
sg214
F853.0
sg215
S'9.7'
p1475
sg217
g1337
sg219
S'11.0'
p1476
sg221
S'0.19'
p1477
sg223
S'SB(rs)a_LINER'
p1478
sg225
S'11.2'
p1479
sg227
S'B^0^_T(25)_'
p1480
sg229
S'221.0'
p1481
sg231
g1343
sg233
S'NGC4314'
p1482
sg235
S'9.7'
p1483
sg237
g1346
sg239
S'11.4'
p1484
sg241
g1348
sg243
S'K_lga2mass_tot'
p1485
sg245
S'K_lga2mass_tot'
p1486
sg247
g51
sg248
g1351
sg250
g38
sg251
S'2.98'
p1487
sg253
S'0.72'
p1488
sg255
S'.SBT1..'
p1489
sg257
g1354
sg259
S"['NGC4314', 'UGC07443', '2MASXJ12223197+2953430', 'SDSSJ122232.01+295343.7']"
p1490
sg261
S'185.6326'
p1491
sg263
S'0.68'
p1492
sg265
S'1250'
p1493
sg267
S'0.26'
p1494
sg269
S'47'
p1495
sg271
S'K_lga2mass_tot'
p1496
sg273
S'16.0'
p1497
sg275
S'15'
p1498
sg277
S'12.3'
p1499
sg279
S'963'
p1500
sg281
S'325.0'
p1501
sg283
g284
sg285
g1463
sg286
S'0.0217'
p1502
sg288
S'0.51'
p1503
sg290
S'2.989'
p1504
sg292
S'83.074703'
p1505
sg294
S'250.12'
p1506
sg296
F45.6
sg297
S'0.4'
p1507
sg299
S'10.39'
p1508
saa(lp1509
(dp1510
g130
S'52'
p1511
sg132
S'10'
p1512
sg134
S'-99.99'
p1513
sg136
S'-99'
p1514
sg138
F21.742
sg139
F25.119044488853472
sg140
S'66'
p1515
sg142
S'0.001947'
p1516
sg144
g453
sg146
S'6.1'
p1517
sg148
S'184.751984'
p1518
sg150
g453
sg152
S'-99.99'
p1519
sg154
S'12.132'
p1520
sg156
S'Lya'
p1521
sg158
S'3.7'
p1522
sg160
S'11.796'
p1523
sg162
S'11.81'
p1524
sg164
S'33.1392'
p1525
sg166
S'-99'
p1526
sg168
g453
sg170
S'-99.99'
p1527
sg172
F0.9166328354925924
sg173
S'8.577'
p1528
sg175
S'11.817'
p1529
sg177
S'76.56'
p1530
sg179
S'SDSSJ105233.13+363736.7'
p1531
sg181
S'0.44'
p1532
sg183
S'36.62689'
p1533
sg185
S'36.804'
p1534
sg187
S'-99.99'
p1535
sg189
S'41'
p1536
sg191
S'37'
p1537
sg193
g453
sg195
S'36'
p1538
sg196
S'-99.99'
p1539
sg198
S'106.8'
p1540
sg200
S'25'
p1541
sg202
F0.4697327576425702
sg203
S'-99.99'
p1542
sg205
g51
sg207
S'13.064'
p1543
sg209
g80
sg210
S'4.25E+13'
p1544
sg212
S'-99.99'
p1545
sg214
F600.0
sg215
S'-99.99'
p1546
sg217
S'2.62E+14'
p1547
sg219
S'0.98'
p1548
sg221
S'0.079'
p1549
sg223
S'WR?_HII'
p1550
sg225
S'-99.99'
p1551
sg227
g453
sg229
S'65.87'
p1552
sg231
S'568'
p1553
sg233
S'SDSSJ105233.13+363736.7'
p1554
sg235
S'-99.99'
p1555
sg237
S'36.67777777777778'
p1556
sg239
S'-99.99'
p1557
sg241
S'0.60999'
p1558
sg243
S'r_sdss_iso'
p1559
sg245
S'r_sdss_iso'
p1560
sg247
g51
sg248
S'64.1'
p1561
sg250
g39
sg251
S'1.18'
p1562
sg253
S'-99.99'
p1563
sg255
g453
sg257
S'163.02291666666667'
p1564
sg259
S"['SDSSJ105233.13+363736.7']"
p1565
sg261
S'163.13808'
p1566
sg263
S'-99.99'
p1567
sg265
S'839'
p1568
sg267
S'0.036'
p1569
sg269
S'64'
p1570
sg271
S'r_sdss_iso'
p1571
sg273
S'0.95'
p1572
sg275
S'-99'
p1573
sg277
S'13.6'
p1574
sg279
S'584'
p1575
sg281
S'149.7'
p1576
sg283
g284
sg285
g1532
sg286
S'0.011'
p1577
sg288
S'-99.99'
p1578
sg290
S'-99.99'
p1579
sg292
S'63.167249'
p1580
sg294
S'-99.99'
p1581
sg296
F77.9
sg297
S'-99.99'
p1582
sg299
S'3.774'
p1583
sa(dp1584
g130
S'52'
p1585
sg132
S'10'
p1586
sg134
S'-99.99'
p1587
sg136
S'-99'
p1588
sg138
F22.037
sg139
F14.42223381189613
sg140
S'70'
p1589
sg142
S'0.001671'
p1590
sg144
g453
sg146
g1517
sg148
S'184.657548'
p1591
sg150
g453
sg152
S'-99.99'
p1592
sg154
S'15.698'
p1593
sg156
g1521
sg158
g1522
sg160
S'18.915'
p1594
sg162
S'10.64'
p1595
sg164
S'40.8'
p1596
sg166
S'-99'
p1597
sg168
g453
sg170
S'-99.99'
p1598
sg172
F0.6817590163539798
sg173
S'5.925'
p1599
sg175
S'10.648'
p1600
sg177
S'59.31'
p1601
sg179
S'SDSSJ105240.79+363953.7'
p1602
sg181
S'0.38'
p1603
sg183
S'36.66494'
p1604
sg185
S'53.784'
p1605
sg187
S'-99.99'
p1606
sg189
S'42'
p1607
sg191
S'39'
p1608
sg193
g453
sg195
S'36'
p1609
sg196
S'-99.99'
p1610
sg198
g1540
sg200
g1541
sg202
F0.07579126077112487
sg203
S'-99.99'
p1611
sg205
g80
sg207
S'15.611'
p1612
sg209
g80
sg210
g1544
sg212
S'-99.99'
p1613
sg214
F600.0
sg215
S'-99.99'
p1614
sg217
g1547
sg219
S'2.6'
p1615
sg221
S'0.0082'
p1616
sg223
g453
sg225
S'-99.99'
p1617
sg227
g453
sg229
S'44.76'
p1618
sg231
g1553
sg233
S'SDSSJ105240.79+363953.7'
p1619
sg235
S'-99.99'
p1620
sg237
g1556
sg239
S'-99.99'
p1621
sg241
g1558
sg243
S'r_sdss_iso'
p1622
sg245
S'r_sdss_pet'
p1623
sg247
g51
sg248
g1561
sg250
g39
sg251
S'1.06'
p1624
sg253
S'-99.99'
p1625
sg255
g453
sg257
g1564
sg259
S"['SDSSJ105240.79+363953.7']"
p1626
sg261
S'163.17'
p1627
sg263
S'-99.99'
p1628
sg265
S'756'
p1629
sg267
S'0.0038'
p1630
sg269
S'67'
p1631
sg271
S'r_sdss_iso'
p1632
sg273
S'0.96'
p1633
sg275
S'-99'
p1634
sg277
S'15.8'
p1635
sg279
S'501'
p1636
sg281
S'114.8'
p1637
sg283
g284
sg285
g1603
sg286
S'0.011'
p1638
sg288
S'-99.99'
p1639
sg290
S'-99.99'
p1640
sg292
S'63.184219'
p1641
sg294
S'-99.99'
p1642
sg296
F54.2
sg297
S'-99.99'
p1643
sg299
S'2.311'
p1644
sa(dp1645
g130
S'52'
p1646
sg132
S'10'
p1647
sg134
S'-99.99'
p1648
sg136
S'-99'
p1649
sg138
F22.9
sg139
F13.191720520349119
sg140
S'35'
p1650
sg142
S'0.002552'
p1651
sg144
g453
sg146
g1517
sg148
S'184.847516'
p1652
sg150
g453
sg152
S'-99.99'
p1653
sg154
S'15.532'
p1654
sg156
g1521
sg158
g1522
sg160
S'15.837'
p1655
sg162
S'14.36'
p1656
sg164
S'16.7496'
p1657
sg166
S'-99'
p1658
sg168
g453
sg170
S'-99.99'
p1659
sg172
F0.4306632764541731
sg173
S'5.583'
p1660
sg175
S'14.366'
p1661
sg177
S'56.93'
p1662
sg179
S'UGC05983'
p1663
sg181
S'0.75'
p1664
sg183
S'36.59451'
p1665
sg185
S'40.236'
p1666
sg187
S'-99.99'
p1667
sg189
S'96'
p1668
sg191
S'35'
p1669
sg193
g453
sg195
S'36'
p1670
sg196
S'-99.99'
p1671
sg198
g1540
sg200
g1541
sg202
F0.02486974218211488
sg203
S'-99.99'
p1672
sg205
g600
sg207
S'15.79'
p1673
sg209
g80
sg210
g1544
sg212
S'-99.99'
p1674
sg214
F600.0
sg215
S'-99.99'
p1675
sg217
g1547
sg219
S'3.8'
p1676
sg221
S'0.011'
p1677
sg223
S'DWARF'
p1678
sg225
S'-99.99'
p1679
sg227
g453
sg229
S'66.54'
p1680
sg231
g1553
sg233
S'UGC05983'
p1681
sg235
S'-99.99'
p1682
sg237
g1556
sg239
S'-99.99'
p1683
sg241
g1558
sg243
S'r_sdss_iso'
p1684
sg245
S'poss_103a-O'
p1685
sg247
g51
sg248
g1561
sg250
g39
sg251
S'1.43'
p1686
sg253
S'-99.99'
p1687
sg255
g453
sg257
g1564
sg259
S"['UGC05983', 'SDSSJ105216.74+363540.2']"
p1688
sg261
S'163.06979'
p1689
sg263
S'-99.99'
p1690
sg265
S'1020'
p1691
sg267
S'0.0053'
p1692
sg269
S'34'
p1693
sg271
S'poss_103a-O'
p1694
sg273
S'0.87'
p1695
sg275
S'-99'
p1696
sg277
S'16.1'
p1697
sg279
S'765'
p1698
sg281
S'80.16'
p1699
sg283
g284
sg285
g1664
sg286
S'0.011'
p1700
sg288
S'-99.99'
p1701
sg290
S'-99.99'
p1702
sg292
S'63.12044'
p1703
sg294
S'-99.99'
p1704
sg296
F59.7
sg297
S'-99.99'
p1705
sg299
S'4.634'
p1706
saa(lp1707
(dp1708
g130
S'52'
p1709
sg132
S'10'
p1710
sg134
S'-99.99'
p1711
sg136
S'-99'
p1712
sg138
F21.742
sg139
F25.119044488853472
sg140
S'66'
p1713
sg142
S'0.001947'
p1714
sg144
g453
sg146
S'6.5'
p1715
sg148
S'184.751984'
p1716
sg150
g453
sg152
S'-99.99'
p1717
sg154
S'12.132'
p1718
sg156
S'Lya'
p1719
sg158
S'3.9'
p1720
sg160
S'11.796'
p1721
sg162
S'11.81'
p1722
sg164
S'33.1392'
p1723
sg166
S'-99'
p1724
sg168
g453
sg170
S'-99.99'
p1725
sg172
F0.7923529960293945
sg173
S'8.577'
p1726
sg175
S'11.817'
p1727
sg177
S'76.56'
p1728
sg179
S'SDSSJ105233.13+363736.7'
p1729
sg181
S'0.44'
p1730
sg183
S'36.62689'
p1731
sg185
S'36.804'
p1732
sg187
S'-99.99'
p1733
sg189
S'41'
p1734
sg191
S'37'
p1735
sg193
g453
sg195
S'36'
p1736
sg196
S'-99.99'
p1737
sg198
S'129'
p1738
sg200
S'30'
p1739
sg202
F0.4060449761776484
sg203
S'-99.99'
p1740
sg205
g51
sg207
S'13.064'
p1741
sg209
S'7'
p1742
sg210
S'4.33E+13'
p1743
sg212
S'-99.99'
p1744
sg214
F662.0
sg215
S'-99.99'
p1745
sg217
S'2.62E+14'
p1746
sg219
S'0.98'
p1747
sg221
S'0.079'
p1748
sg223
S'WR?_HII'
p1749
sg225
S'-99.99'
p1750
sg227
g453
sg229
S'65.87'
p1751
sg231
S'585'
p1752
sg233
S'SDSSJ105233.13+363736.7'
p1753
sg235
S'-99.99'
p1754
sg237
S'36.67777777777778'
p1755
sg239
S'-99.99'
p1756
sg241
S'0.60999'
p1757
sg243
S'r_sdss_iso'
p1758
sg245
S'r_sdss_iso'
p1759
sg247
g51
sg248
S'77.5'
p1760
sg250
g40
sg251
S'1.18'
p1761
sg253
S'-99.99'
p1762
sg255
g453
sg257
S'163.02291666666667'
p1763
sg259
S"['SDSSJ105233.13+363736.7']"
p1764
sg261
S'163.13808'
p1765
sg263
S'-99.99'
p1766
sg265
S'839'
p1767
sg267
S'0.036'
p1768
sg269
S'64'
p1769
sg271
S'r_sdss_iso'
p1770
sg273
S'0.95'
p1771
sg275
S'-99'
p1772
sg277
S'13.6'
p1773
sg279
S'584'
p1774
sg281
S'149.7'
p1775
sg283
g284
sg285
g1730
sg286
S'0.011'
p1776
sg288
S'-99.99'
p1777
sg290
S'-99.99'
p1778
sg292
S'63.167249'
p1779
sg294
S'-99.99'
p1780
sg296
F77.9
sg297
S'-99.99'
p1781
sg299
S'3.774'
p1782
sa(dp1783
g130
S'52'
p1784
sg132
S'10'
p1785
sg134
S'-99.99'
p1786
sg136
S'-99'
p1787
sg138
F22.9
sg139
F13.191720520349119
sg140
S'35'
p1788
sg142
S'0.002552'
p1789
sg144
g453
sg146
g1715
sg148
S'184.847516'
p1790
sg150
g453
sg152
S'-99.99'
p1791
sg154
S'15.532'
p1792
sg156
g1719
sg158
g1720
sg160
S'15.837'
p1793
sg162
S'14.36'
p1794
sg164
S'16.7496'
p1795
sg166
S'-99'
p1796
sg168
g453
sg170
S'-99.99'
p1797
sg172
F0.652444790680418
sg173
S'5.583'
p1798
sg175
S'14.366'
p1799
sg177
S'56.93'
p1800
sg179
S'UGC05983'
p1801
sg181
S'0.75'
p1802
sg183
S'36.59451'
p1803
sg185
S'40.236'
p1804
sg187
S'-99.99'
p1805
sg189
S'96'
p1806
sg191
S'35'
p1807
sg193
g453
sg195
S'36'
p1808
sg196
S'-99.99'
p1809
sg198
g1738
sg200
g1739
sg202
F0.0376770777064678
sg203
S'-99.99'
p1810
sg205
g600
sg207
S'15.79'
p1811
sg209
g1742
sg210
g1743
sg212
S'-99.99'
p1812
sg214
F662.0
sg215
S'-99.99'
p1813
sg217
g1746
sg219
S'3.8'
p1814
sg221
S'0.011'
p1815
sg223
S'DWARF'
p1816
sg225
S'-99.99'
p1817
sg227
g453
sg229
S'66.54'
p1818
sg231
g1752
sg233
S'UGC05983'
p1819
sg235
S'-99.99'
p1820
sg237
g1755
sg239
S'-99.99'
p1821
sg241
g1757
sg243
S'r_sdss_iso'
p1822
sg245
S'poss_103a-O'
p1823
sg247
g51
sg248
g1760
sg250
g40
sg251
S'1.43'
p1824
sg253
S'-99.99'
p1825
sg255
g453
sg257
g1763
sg259
S"['UGC05983', 'SDSSJ105216.74+363540.2']"
p1826
sg261
S'163.06979'
p1827
sg263
S'-99.99'
p1828
sg265
S'1020'
p1829
sg267
S'0.0053'
p1830
sg269
S'34'
p1831
sg271
S'poss_103a-O'
p1832
sg273
S'0.87'
p1833
sg275
S'-99'
p1834
sg277
S'16.1'
p1835
sg279
S'765'
p1836
sg281
S'80.16'
p1837
sg283
g284
sg285
g1802
sg286
S'0.011'
p1838
sg288
S'-99.99'
p1839
sg290
S'-99.99'
p1840
sg292
S'63.12044'
p1841
sg294
S'-99.99'
p1842
sg296
F59.7
sg297
S'-99.99'
p1843
sg299
S'4.634'
p1844
sa(dp1845
g130
S'52'
p1846
sg132
S'10'
p1847
sg134
S'-99.99'
p1848
sg136
S'-99'
p1849
sg138
F22.037
sg139
F14.42223381189613
sg140
S'70'
p1850
sg142
S'0.001671'
p1851
sg144
g453
sg146
g1715
sg148
S'184.657548'
p1852
sg150
g453
sg152
S'-99.99'
p1853
sg154
S'15.698'
p1854
sg156
g1719
sg158
g1720
sg160
S'18.915'
p1855
sg162
S'10.64'
p1856
sg164
S'40.8'
p1857
sg166
S'-99'
p1858
sg168
g453
sg170
S'-99.99'
p1859
sg172
F0.4556277994522937
sg173
S'5.925'
p1860
sg175
S'10.648'
p1861
sg177
S'59.31'
p1862
sg179
S'SDSSJ105240.79+363953.7'
p1863
sg181
S'0.38'
p1864
sg183
S'36.66494'
p1865
sg185
S'53.784'
p1866
sg187
S'-99.99'
p1867
sg189
S'42'
p1868
sg191
S'39'
p1869
sg193
g453
sg195
S'36'
p1870
sg196
S'-99.99'
p1871
sg198
g1738
sg200
g1739
sg202
F0.05065221659632986
sg203
S'-99.99'
p1872
sg205
g80
sg207
S'15.611'
p1873
sg209
g1742
sg210
g1743
sg212
S'-99.99'
p1874
sg214
F662.0
sg215
S'-99.99'
p1875
sg217
g1746
sg219
S'2.6'
p1876
sg221
S'0.0082'
p1877
sg223
g453
sg225
S'-99.99'
p1878
sg227
g453
sg229
S'44.76'
p1879
sg231
g1752
sg233
S'SDSSJ105240.79+363953.7'
p1880
sg235
S'-99.99'
p1881
sg237
g1755
sg239
S'-99.99'
p1882
sg241
g1757
sg243
S'r_sdss_iso'
p1883
sg245
S'r_sdss_pet'
p1884
sg247
g51
sg248
g1760
sg250
g40
sg251
S'1.06'
p1885
sg253
S'-99.99'
p1886
sg255
g453
sg257
g1763
sg259
S"['SDSSJ105240.79+363953.7']"
p1887
sg261
S'163.17'
p1888
sg263
S'-99.99'
p1889
sg265
S'756'
p1890
sg267
S'0.0038'
p1891
sg269
S'67'
p1892
sg271
S'r_sdss_iso'
p1893
sg273
S'0.96'
p1894
sg275
S'-99'
p1895
sg277
S'15.8'
p1896
sg279
S'501'
p1897
sg281
S'114.8'
p1898
sg283
g284
sg285
g1864
sg286
S'0.011'
p1899
sg288
S'-99.99'
p1900
sg290
S'-99.99'
p1901
sg292
S'63.184219'
p1902
sg294
S'-99.99'
p1903
sg296
F54.2
sg297
S'-99.99'
p1904
sg299
S'2.311'
p1905
saa(lp1906
(dp1907
g130
S'29'
p1908
sg132
S'12'
p1909
sg134
S'14.6'
p1910
sg136
S'-99'
p1911
sg138
F170.98
sg139
F28.659042240190093
sg140
S'62'
p1912
sg142
S'0.005254'
p1913
sg144
S'B_(Johnson)'
p1914
sg146
S'3.6'
p1915
sg148
S'289.589197'
p1916
sg150
S'B_(Johnson)'
p1917
sg152
S'-99.99'
p1918
sg154
S'14.741'
p1919
sg156
S'Lya'
p1920
sg158
S'2.2'
p1921
sg160
S'14.788'
p1922
sg162
S'14.6'
p1923
sg164
S'2.1408'
p1924
sg166
S'145'
p1925
sg168
S'TF'
p1926
sg170
S'0.094'
p1927
sg172
F0.012056946068598393
sg173
S'9.365'
p1928
sg175
S'26.341'
p1929
sg177
S'81.35'
p1930
sg179
S'UGC07612'
p1931
sg181
S'4.2'
p1932
sg183
S'2.72319'
p1933
sg185
S'23.484'
p1934
sg187
S'24.25'
p1935
sg189
S'145'
p1936
sg191
S'43'
p1937
sg193
S'LC_V'
p1938
sg195
g206
sg196
S'0.058'
p1939
sg198
S'70'
p1940
sg200
g206
sg202
F3.481685003745826e-16
sg203
S'0.54'
p1941
sg205
g600
sg207
S'14.993'
p1942
sg209
g80
sg210
S'1.05E+12'
p1943
sg212
S'14.4'
p1944
sg214
F1580.0
sg215
S'14.6'
p1945
sg217
S'1.43E+14'
p1946
sg219
S'9.6'
p1947
sg221
S'0.025'
p1948
sg223
S'Sm:_HII'
p1949
sg225
S'14.1'
p1950
sg227
S'B_(B_T^0)'
p1951
sg229
S'66.15'
p1952
sg231
S'369'
p1953
sg233
S'UGC07612'
p1954
sg235
S'33.9'
p1955
sg237
S'2.0525'
p1956
sg239
S'15.1'
p1957
sg241
S'0.15834'
p1958
sg243
S'poss_103a-O'
p1959
sg245
S'poss_103a-O'
p1960
sg247
g51
sg248
S'42'
p1961
sg250
g41
sg251
S'9.65'
p1962
sg253
S'0.23'
p1963
sg255
S'.S..9*.'
p1964
sg257
S'187.27791666666667'
p1965
sg259
S"['UGC07612', 'SDSSJ122901.87+024324.6']"
p1966
sg261
S'187.25892'
p1967
sg263
S'0.17'
p1968
sg265
S'1870'
p1969
sg267
S'0.076'
p1970
sg269
S'60'
p1971
sg271
S'poss_103a-O'
p1972
sg273
S'1.3'
p1973
sg275
S'-99'
p1974
sg277
S'15.3'
p1975
sg279
S'1575'
p1976
sg281
S'132.3'
p1977
sg283
g284
sg285
g1932
sg286
S'0.0153'
p1978
sg288
S'0.074'
p1979
sg290
S'9.65'
p1980
sg292
S'65.012984'
p1981
sg294
S'128.28'
p1982
sg296
F33.4
sg297
S'0.031'
p1983
sg299
S'4.682'
p1984
sa(dp1985
g130
S'34'
p1986
sg132
S'12'
p1987
sg134
S'14.9'
p1988
sg136
S'170002'
p1989
sg138
F348.733
sg139
F161.20465603697681
sg140
S'61'
p1990
sg142
S'0.006031'
p1991
sg144
g374
sg146
g1915
sg148
S'292.949501'
p1992
sg150
S'B_(B_T)'
p1993
sg152
S'21'
p1994
sg154
S'12'
p1995
sg156
g1920
sg158
g1921
sg160
S'11.106'
p1996
sg162
S'14.9'
p1997
sg164
S'27.0504'
p1998
sg166
S'130'
p1999
sg168
S'Ceph'
p2000
sg170
S'1.0'
p2001
sg172
F0.0064025696903046705
sg173
S'29.62'
p2002
sg175
S'29.614'
p2003
sg177
S'180.05'
p2004
sg179
S'NGC4536'
p2005
sg181
S'2.9'
p2006
sg183
S'2.18814'
p2007
sg185
S'17.304'
p2008
sg187
S'15.363'
p2009
sg189
S'95'
p2010
sg191
S'11'
p2011
sg193
S'LC_II-III'
p2012
sg195
g206
sg196
S'2.0'
p2013
sg198
g1940
sg200
g206
sg202
F0.0025302449034422273
sg203
S'0.43'
p2014
sg205
g201
sg207
S'13.181'
p2015
sg209
g80
sg210
g1943
sg212
S'10.6'
p2016
sg214
F1580.0
sg215
S'8.67'
p2017
sg217
g1946
sg219
S'11.0'
p2018
sg221
S'0.11'
p2019
sg223
S'SAB(rs)bc;HII_Sbrst'
p2020
sg225
S'9.89'
p2021
sg227
S'B_(B_T^0)'
p2022
sg229
S'213.2'
p2023
sg231
g1953
sg233
S'NGC4536'
p2024
sg235
S'28.0'
p2025
sg237
g1956
sg239
S'11.2'
p2026
sg241
g1958
sg243
S'K_lga2mass_tot'
p2027
sg245
S'K_lga2mass_tot'
p2028
sg247
g51
sg248
g1961
sg250
g41
sg251
S'2.83'
p2029
sg253
S'3.3'
p2030
sg255
S'.SXT4..'
p2031
sg257
g1965
sg259
S"['NGC4536', 'UGC07732', '2MASXJ12342712+0211163', 'SDSSJ123427.04+021117.2']"
p2032
sg261
S'188.61271'
p2033
sg263
S'1.8'
p2034
sg265
S'2103'
p2035
sg267
S'0.093'
p2036
sg269
S'59'
p2037
sg271
S'K_lga2mass_tot'
p2038
sg273
S'21.0'
p2039
sg275
g85
sg277
S'13.8'
p2040
sg279
S'1808'
p2041
sg281
S'410.0'
p2042
sg283
g284
sg285
g2006
sg286
S'0.0157'
p2043
sg288
S'3.8'
p2044
sg290
S'2.83'
p2045
sg292
S'64.730132'
p2046
sg294
S'455.15'
p2047
sg296
F10.8
sg297
S'1.2'
p2048
sg299
S'15.4'
p2049
sa(dp2050
g130
S'29'
p2051
sg132
S'12'
p2052
sg134
S'-99.99'
p2053
sg136
S'-99'
p2054
sg138
F94.177
sg139
F8.49394836027392
sg140
S'62'
p2055
sg142
S'0.005966'
p2056
sg144
S'B_(LCO)'
p2057
sg146
g1915
sg148
S'290.374472'
p2058
sg150
S'b_J'
p2059
sg152
S'-99.99'
p2060
sg154
S'16.674'
p2061
sg156
g1920
sg158
g1921
sg160
S'16.08'
p2062
sg162
S'29.34'
p2063
sg164
S'50.58'
p2064
sg166
S'-99'
p2065
sg168
g453
sg170
S'0.0049'
p2066
sg172
F0.005540459592975663
sg173
S'4.163'
p2067
sg175
S'29.346'
p2068
sg177
S'46.49'
p2069
sg179
S'2PIGGNGPGALB+3.26065+0.04028'
p2070
sg181
S'0.31'
p2071
sg183
S'2.03158'
p2072
sg185
S'53.688'
p2073
sg187
S'-99.99'
p2074
sg189
S'152'
p2075
sg191
g80
sg193
g453
sg195
g206
sg196
S'0.012'
p2076
sg198
g1940
sg200
g206
sg202
F1.368898515450383e-54
sg203
S'-99.99'
p2077
sg205
g206
sg207
S'17.204'
p2078
sg209
g80
sg210
g1943
sg212
S'17.6'
p2079
sg214
F1580.0
sg215
S'-99.99'
p2080
sg217
g1946
sg219
S'0.67'
p2081
sg221
S'0.012'
p2082
sg223
g453
sg225
S'17.6'
p2083
sg227
S'B_(LCO)'
p2084
sg229
S'14.63'
p2085
sg231
g1953
sg233
S'SDSSJ122950.57+020153.7'
p2086
sg235
S'-99.99'
p2087
sg237
g1956
sg239
S'17.8'
p2088
sg241
g1958
sg243
S'r_sdss_iso'
p2089
sg245
S'r_sdss_iso'
p2090
sg247
g51
sg248
g1961
sg250
g41
sg251
S'2.93'
p2091
sg253
S'0.0054'
p2092
sg255
g453
sg257
g1965
sg259
S"['SDSSJ122950.57+020153.7']"
p2093
sg261
S'187.46075'
p2094
sg263
S'0.0054'
p2095
sg265
S'2084'
p2096
sg267
S'0.0057'
p2097
sg269
S'60'
p2098
sg271
S'r_sdss_iso'
p2099
sg273
S'0.32'
p2100
sg275
S'-99'
p2101
sg277
S'17.6'
p2102
sg279
S'1789'
p2103
sg281
S'29.26'
p2104
sg283
g284
sg285
g2071
sg286
S'0.0165'
p2105
sg288
S'0.012'
p2106
sg290
S'-99.99'
p2107
sg292
S'64.375538'
p2108
sg294
S'-99.99'
p2109
sg296
F55.5
sg297
S'0.01'
p2110
sg299
S'2.082'
p2111
saa(lp2112
(dp2113
g130
S'19'
p2114
sg132
S'12'
p2115
sg134
S'-99.99'
p2116
sg136
S'-99'
p2117
sg138
F37.396
sg139
F8.30490471354127
sg140
S'31'
p2118
sg142
S'0.007295'
p2119
sg144
S'B_(Magellan)'
p2120
sg146
S'2.4'
p2121
sg148
S'281.013838'
p2122
sg150
S'B_(LCO)'
p2123
sg152
S'-99.99'
p2124
sg154
S'16.948'
p2125
sg156
S'Lya'
p2126
sg158
S'1.4'
p2127
sg160
S'16.572'
p2128
sg162
S'35'
p2129
sg164
S'20.6736'
p2130
sg166
S'-99'
p2131
sg168
g453
sg170
S'0.0056'
p2132
sg172
F0.01986817541366812
sg173
S'4.101'
p2133
sg175
S'35.001'
p2134
sg177
S'46.01'
p2135
sg179
S'PGC039653'
p2136
sg181
S'0.43'
p2137
sg183
S'6.7051'
p2138
sg185
S'18.36'
p2139
sg187
S'-99.99'
p2140
sg189
S'79'
p2141
sg191
S'42'
p2142
sg193
g453
sg195
g1002
sg196
S'0.014'
p2143
sg198
S'22.7'
p2144
sg200
g600
sg202
F6.016292255345809e-11
sg203
S'-99.99'
p2145
sg205
g206
sg207
S'17.614'
p2146
sg209
g85
sg210
S'1.03E+12'
p2147
sg212
S'17.8'
p2148
sg214
F2548.0
sg215
S'-99.99'
p2149
sg217
S'6.41E+12'
p2150
sg219
S'0.39'
p2151
sg221
S'0.012'
p2152
sg223
g453
sg225
S'17.8'
p2153
sg227
S'B_(Magellan)'
p2154
sg229
S'20.78'
p2155
sg231
S'31'
p2156
sg233
S'VCC0339'
p2157
sg235
S'-99.99'
p2158
sg237
S'6.643888888888889'
p2159
sg239
S'18'
p2160
sg241
S'0.33130'
p2161
sg243
S'r_sdss_iso'
p2162
sg245
S'r_sdss_iso'
p2163
sg247
g51
sg248
S'13.6'
p2164
sg250
g42
sg251
S'3.5'
p2165
sg253
S'0.0064'
p2166
sg255
g453
sg257
S'184.83708333333334'
p2167
sg259
S"['SDSSJ121920.67+064218.3']"
p2168
sg261
S'184.83614'
p2169
sg263
S'0.0064'
p2170
sg265
S'2485'
p2171
sg267
S'0.0053'
p2172
sg269
S'31'
p2173
sg271
S'r_sdss_iso'
p2174
sg273
S'0.29'
p2175
sg275
S'-99'
p2176
sg277
S'18'
p2177
sg279
S'2187'
p2178
sg281
S'24.17'
p2179
sg283
g284
sg285
g2137
sg286
S'0.018'
p2180
sg288
S'0.014'
p2181
sg290
S'-99.99'
p2182
sg292
S'68.200452'
p2183
sg294
S'-99.99'
p2184
sg296
F79.9
sg297
S'0.012'
p2185
sg299
S'3.527'
p2186
sa(dp2187
g130
S'17'
p2188
sg132
S'12'
p2189
sg134
S'27.9'
p2190
sg136
S'120002'
p2191
sg138
F233.021
sg139
F103.68203191971115
sg140
S'59'
p2192
sg142
S'0.007455'
p2193
sg144
S'B_(B_T^0)'
p2194
sg146
g2121
sg148
S'279.829994'
p2195
sg150
S'B_(B_T)'
p2196
sg152
S'25.7'
p2197
sg154
S'12.223'
p2198
sg156
g2126
sg158
g2127
sg160
S'11.488'
p2199
sg162
S'27.9'
p2200
sg164
S'25.812'
p2201
sg166
S'128'
p2202
sg168
S'TF'
p2203
sg170
S'0.63'
p2204
sg172
F0.006991664309550501
sg173
S'22.07'
p2205
sg175
S'35.676'
p2206
sg177
S'146.97'
p2207
sg179
S'NGC4223'
p2208
sg181
S'2.1'
p2209
sg183
S'6.69007'
p2210
sg185
S'24.252'
p2211
sg187
S'28.0'
p2212
sg189
S'130'
p2213
sg191
S'41'
p2214
sg193
g453
sg195
g1002
sg196
S'0.81'
p2215
sg198
g2144
sg200
g600
sg202
F0.0005529229276766317
sg203
S'0.52'
p2216
sg205
g201
sg207
S'12.993'
p2217
sg209
g85
sg210
g2147
sg212
S'12.9'
p2218
sg214
F2548.0
sg215
S'20.4'
p2219
sg217
g2150
sg219
S'4.4'
p2220
sg221
S'0.5'
p2221
sg223
S'SA(s)0+:;Sy_LINER'
p2222
sg225
S'12.9'
p2223
sg227
S'B_(m_B)'
p2224
sg229
S'88.13'
p2225
sg231
g2156
sg233
S'NGC4223'
p2226
sg235
S'33.9'
p2227
sg237
g2159
sg239
S'13'
p2228
sg241
g2161
sg243
S'K_2mass_tot'
p2229
sg245
S'K_2mass_tot'
p2230
sg247
g51
sg248
g2164
sg250
g42
sg251
S'4.89'
p2231
sg253
S'0.66'
p2232
sg255
S'.LAS+*.'
p2233
sg257
g2167
sg259
S"['NGC4223', 'IC3102', 'UGC07319', '2MASXJ12172582+0641239', 'SDSSJ121725.80+064124.2']"
p2234
sg261
S'184.35755'
p2235
sg263
S'0.66'
p2236
sg265
S'2533'
p2237
sg267
S'0.41'
p2238
sg269
S'57'
p2239
sg271
S'K_2mass_tot'
p2240
sg273
S'8.2'
p2241
sg275
S'39'
p2242
sg277
S'13.5'
p2243
sg279
S'2235'
p2244
sg281
S'163.2'
p2245
sg283
g284
sg285
g2209
sg286
S'0.0186'
p2246
sg288
S'0.81'
p2247
sg290
S'4.894'
p2248
sg292
S'68.023262'
p2249
sg294
S'154.22'
p2250
sg296
F34.5
sg297
S'0.78'
p2251
sg299
S'11.92'
p2252
sa(dp2253
g130
S'18'
p2254
sg132
S'12'
p2255
sg134
S'-99.99'
p2256
sg136
S'-99'
p2257
sg138
F196.518
sg139
F32.14598467927215
sg140
S'53'
p2258
sg142
S'0.008596'
p2259
sg144
g453
sg146
g2121
sg148
S'280.414182'
p2260
sg150
g453
sg152
S'-99.99'
p2261
sg154
S'14.642'
p2262
sg156
g2126
sg158
g2127
sg160
S'14.015'
p2263
sg162
S'40.49'
p2264
sg164
S'14.4192'
p2265
sg166
S'-99'
p2266
sg168
g453
sg170
S'-99.99'
p2267
sg172
F0.005133633054362335
sg173
S'10.11'
p2268
sg175
S'40.492'
p2269
sg177
S'85.76'
p2270
sg179
S'PGC039509'
p2271
sg181
S'0.63'
p2272
sg183
S'6.60364'
p2273
sg185
S'13.104'
p2274
sg187
S'-99.99'
p2275
sg189
S'105'
p2276
sg191
S'36'
p2277
sg193
g453
sg195
g1002
sg196
S'-99.99'
p2278
sg198
g2144
sg200
g600
sg202
F5.75749797317063e-17
sg203
S'-99.99'
p2279
sg205
g201
sg207
S'15.299'
p2280
sg209
g85
sg210
g2147
sg212
S'-99.99'
p2281
sg214
F2548.0
sg215
S'-99.99'
p2282
sg217
g2150
sg219
S'1.6'
p2283
sg221
S'0.13'
p2284
sg223
S'dS0,N_pec'
p2285
sg225
S'-99.99'
p2286
sg227
g453
sg229
S'31.93'
p2287
sg231
g2156
sg233
S'VCC0278'
p2288
sg235
S'-99.99'
p2289
sg237
g2159
sg239
S'-99.99'
p2290
sg241
g2161
sg243
S'K_2mass_tot'
p2291
sg245
S'K_2mass_tot'
p2292
sg247
g51
sg248
g2164
sg250
g42
sg251
S'4.04'
p2293
sg253
S'-99.99'
p2294
sg255
g453
sg257
g2167
sg259
S"['2MASXJ12181446+0636142', 'SDSSJ121814.42+063613.1']"
p2295
sg261
S'184.56008'
p2296
sg263
S'-99.99'
p2297
sg265
S'2875'
p2298
sg267
S'0.06'
p2299
sg269
S'52'
p2300
sg271
S'K_2mass_tot'
p2301
sg273
S'2.6'
p2302
sg275
S'-99'
p2303
sg277
S'15.7'
p2304
sg279
S'2577'
p2305
sg281
S'51.5'
p2306
sg283
g284
sg285
g2272
sg286
S'0.0188'
p2307
sg288
S'-99.99'
p2308
sg290
S'-99.99'
p2309
sg292
S'68.012089'
p2310
sg294
S'-99.99'
p2311
sg296
F23.3
sg297
S'-99.99'
p2312
sg299
S'6.268'
p2313
saas.