(dp0
S'Vhels'
p1
(lp2
F1284.0
aF1284.0
aF7312.0
aF930.0
aF616.0
aF616.0
aF1736.0
asS'impacts'
p3
(lp4
F100.931
aF100.931
aF366.291
aF145.178
aF20.517
aF20.517
aF330.608
asS'group_dists'
p5
(lp6
F14.9
aF14.9
aF76.7
aF11.1
aF8.9
aF8.9
aF21.0
asS'MTypes'
p7
(lp8
S'E+0-1_pec;NLRG_Sy'
p9
aS'E+0-1_pec;NLRG_Sy'
p10
aS'SA(s)0^0^:'
p11
aS'(R)SB(r)ab_LINER'
p12
aS'SB(s)m;LINER_HII'
p13
aS'SB(s)m;LINER_HII'
p14
aS'SAB(s)bc;HII_LINER'
p15
asS'e_Lya_Ws'
p16
(lp17
F20.0
aF16.0
aF9.0
aF8.0
aF25.0
aF30.0
aF2.0
asS'e_Lstar_sdsss'
p18
(lp19
F3.3
aF3.3
aF0.49
aF-99.99
aF-99.99
aF-99.99
aF-99.99
asS'Bmag_sdsss'
p20
(lp21
F10.0
aF10.0
aF15.2
aF-99.99
aF-99.99
aF-99.99
aF-99.99
asS'Nas'
p22
(lp23
F46400000000000.0
aF235000000000000.0
aF10700000000000.0
aF109000000000000.0
aF262000000000000.0
aF262000000000000.0
aF143000000000000.0
asS'Lya_Ws'
p24
(lp25
F176.0
aF525.0
aF51.0
aF305.0
aF568.0
aF585.0
aF369.0
asS'bestDists'
p26
(lp27
F16.4
aF16.4
aF110.0
aF12.6
aF11.3
aF11.3
aF13.6
asS'adjustedIncs'
p28
(lp29
F31.0
aF31.0
aF17.0
aF66.0
aF90.0
aF90.0
aF74.0
asS'targets'
p30
(lp31
S'MS1228.6+1219'
p32
aS'MS1228.6+1219'
p33
aS'RX_J1236.0+2641'
p34
aS'TON605'
p35
aS'CSO295'
p36
aS'CSO295'
p37
aS'3C273.0'
p38
asS'e_bs'
p39
(lp40
F2.4
aF1.4
aF3.0
aF2.6
aF3.7
aF3.9
aF2.2
asS'incs'
p41
(lp42
F31.0
aF31.0
aF16.0
aF63.0
aF78.0
aF78.0
aF70.0
asS'azimuths'
p43
(lp44
F11.1
aF11.1
aF45.7
aF39.6
aF81.6
aF81.6
aF5.6
asS'group_nums'
p45
(lp46
S'100002'
p47
aS'100002'
p48
aS'100082'
p49
aS'100065'
p50
aS'112910'
p51
aS'112910'
p52
aS'170002'
p53
asS'Ws'
p54
(lp55
F57.5
aF94.4
aF34.6
aF60.2
aF106.8
aF129.0
aF70.0
asS'ls'
p56
(lp57
F0.3209571565950639
aF0.7943686479863297
aF0.06393600699981519
aF0.3544781739151435
aF0.982673995620941
aF0.9538604890329919
aF0.02986580708821084
asS'Lya_vs'
p58
(lp59
F1046.0
aF1286.0
aF7223.0
aF1048.0
aF600.0
aF662.0
aF1580.0
asS'R_virs'
p60
(lp61
F210.39
aF210.39
aF226.16
aF160.88
aF177.36
aF177.36
aF187.12
asS'Bmags'
p62
(lp63
F9.59
aF9.59
aF14.3
aF11.1
aF11.7
aF11.7
aF11.4
asS'cuss'
p64
(lp65
F226.1579981517346
aF226.1579981517346
aF264.6439567569983
aF126.20191795689954
aF156.0082523201898
aF156.0082523201898
aF175.280107165645
asS'vcorrs'
p66
(lp67
F1584.0
aF1584.0
aF7603.0
aF1217.0
aF871.0
aF871.0
aF2031.0
asS'e_Nas'
p68
(lp69
F6410000000000.0
aF28400000000000.0
aF2010000000000.0
aF4430000000000.0
aF42500000000000.0
aF43300000000000.0
aF1050000000000.0
asS'e_bestDists'
p70
(lp71
F2.79
aF2.79
aF7.34
aF4.28
aF4.21
aF4.21
aF3.3
asS'group_mems'
p72
(lp73
S'197'
p74
aS'197'
p75
aS'12'
p76
aS'15'
p77
aS'1'
p78
ag78
aS'4'
p79
asS'e_Lstar_meds'
p80
(lp81
F4.8
aF4.8
aF1.2
aF1.4
aF0.72
aF0.72
aF0.91
asS'Dec_targets'
p82
(lp83
F12.051944444444445
aF12.051944444444445
aF26.693333333333335
aF30.116944444444446
aF36.67777777777778
aF36.67777777777778
aF2.0525
asS'PAs'
p84
(lp85
F153.0
aF153.0
aF90.0
aF100.0
aF43.0
aF43.0
aF70.0
asS'Lstar_meds'
p86
(lp87
F6.2
aF6.2
aF3.8
aF0.92
aF0.42
aF0.42
aF0.81
asS'RA_galaxies'
p88
(lp89
F187.70593
aF187.70593
aF189.16625
aF184.9608
aF163.12971
aF163.12971
aF188.53509
asS'bs'
p90
(lp91
F34.5
aF56.7
aF20.8
aF36.1
aF64.1
aF77.5
aF42.0
asS'e_Ws'
p92
(lp93
F3.9
aF2.4
aF5.0
aF4.3
aF6.1
aF6.5
aF3.6
asS'Dec_galaxies'
p94
(lp95
F12.39112
aF12.39112
aF26.82994
aF29.61448
aF36.61878
aF36.61878
aF2.65366
asS'MajDiams'
p96
(lp97
F37.12
aF37.12
aF41.22
aF25.16
aF28.98
aF28.98
aF31.32
asS'RA_targets'
p98
(lp99
F187.80458333333334
aF187.80458333333334
aF189.01708333333332
aF184.46708333333333
aF163.02291666666667
aF163.02291666666667
aF187.27791666666667
asS'e_Lya_vs'
p100
(lp101
F2.0
aF2.0
aF1.0
aF1.0
aF1.0
aF7.0
aF1.0
asS'z_targets'
p102
(lp103
F0.11612
aF0.11612
aF0.20915
aF0.13
aF0.60999
aF0.60999
aF0.15834
asS'Lstar_sdsss'
p104
(lp105
F4.2
aF4.2
aF1.6
aF-99.99
aF-99.99
aF-99.99
aF-99.99
asS'Names'
p106
(lp107
S'NGC4486'
p108
aS'NGC4486'
p109
aS'IC3585'
p110
aS'NGC4274'
p111
aS'NGC3432'
p112
aS'NGC3432'
p113
aS'NGC4527'
p114
asS'l_cuss'
p115
(lp116
F0.3310537241202144
aF0.8193576427149171
aF0.12971175466362042
aF0.21307336779868988
aF0.9788356967467272
aF0.9501347349604026
aF0.019312329498647186
asS'others'
p117
(lp118
(lp119
(dp120
S'RAm'
p121
S'31'
p122
sS'RAh'
p123
S'12'
p124
sS'RID_median'
p125
S'-99.99'
p126
sS'group_num'
p127
S'-99'
p128
sS'impact'
p129
F22.059
sS'cus'
p130
F4.134459937646028
sS'adjustedInc'
p131
S'50'
p132
sS'z'
p133
S'0.002591'
p134
sS'Bmag_max_key'
p135
S'B_t'
p136
sS'e_W'
p137
S'3.9'
p138
sS'GLON'
p139
S'284.766394'
p140
sS'Bmag_min_key'
p141
S'B_J_25'
p142
sS'group_dist'
p143
S'-99.99'
p144
sS'rmag_sdss'
p145
S'16.371'
p146
sS'identified'
p147
S'Lya'
p148
sS'e_b'
p149
S'2.4'
p150
sS'zmag_sdss'
p151
S'16.007'
p152
sS'bestDist'
p153
S'15.16'
p154
sS'RAs'
p155
S'33.3528'
p156
sS'RC3_pa'
p157
S'-99'
p158
sS'distIndicator'
p159
S'x'
p160
sS'e_Lstar_min'
p161
S'0.0018'
p162
sS'l'
p163
F0.20306476186833095
sS'MajDiam'
p164
S'2.576'
p165
sS'distvcorr'
p166
S'15.168'
p167
sS'R_vir'
p168
S'33.39'
p169
sS'Name'
p170
S'PGC041458'
p171
sS'e_MajDiam'
p172
S'0.22'
p173
sS'DEdeg'
p174
S'12.06378'
p175
sS'DEs'
p176
S'49.608'
p177
sS'RID_mean'
p178
S'-99.99'
p179
sS'PA'
p180
S'154'
p181
sS'DEm'
p182
S'3'
p183
sS'lumClass'
p184
g160
sS'DEd'
p185
S'12'
p186
sS'Lstar_med'
p187
S'0.0064'
p188
sS'W'
p189
S'57.5'
p190
sS'e_Lya_W'
p191
S'20'
p192
sS'l_cus'
p193
F1.3625129185477164e-13
sS'RC3_r25'
p194
S'-99.99'
p195
sS'e_inc'
p196
g78
sS'gmag_sdss'
p197
S'16.991'
p198
sS'e_Lya_v'
p199
S'2'
p200
sS'e_Na'
p201
S'6.41E+12'
p202
sS'Bmag'
p203
S'16.9'
p204
sS'Lya_v'
p205
F1046.0
sS'RID_min'
p206
S'-99.99'
p207
sS'Na'
p208
S'4.64E+13'
p209
sS'e_MinDiam_ang'
p210
S'0.58'
p211
sS'Lstar_sdss'
p212
S'0.004'
p213
sS'MType'
p214
S'dE6,N'
p215
sS'Bmag_max'
p216
S'16.8'
p217
sS'Bmag_key'
p218
S'B_tot__(INT/WFC)'
p219
sS'MinDiam_ang'
p220
S'23.12'
p221
sS'Lya_W'
p222
S'176'
p223
sS'NEDname'
p224
S'VCC1369'
p225
sS'RID_max'
p226
S'-99.99'
p227
sS'Dec_target'
p228
S'12.051944444444445'
p229
sS'Bmag_min'
p230
S'17.4'
p231
sS'z_target'
p232
S'0.11612'
p233
sS'paKey'
p234
S'r_sdss_iso'
p235
sS'diameterKey'
p236
S'r_sdss_iso'
p237
sS'flag'
p238
S'0'
p239
sS'b'
p240
S'34.5'
p241
sS'target'
p242
g32
sS'e_bestDist'
p243
S'1.51'
p244
sS'e_Lstar_max'
p245
S'0.0033'
p246
sS'RC3_type'
p247
g160
sS'RA_target'
p248
S'187.80458333333334'
p249
sS'altNames'
p250
S"['SDSSJ123133.35+120349.5']"
p251
sS'RAdeg'
p252
S'187.88897'
p253
sS'e_Lstar_med'
p254
S'0.0029'
p255
sS'vcorr'
p256
S'1077'
p257
sS'e_Lstar_sdss'
p258
S'0.0018'
p259
sS'inc'
p260
S'49'
p261
sS'ratioKey'
p262
S'r_sdss_iso'
p263
sS'e_MajDiam_ang'
p264
S'0.35'
p265
sS'group_mem'
p266
S'-99'
p267
sS'Bmag_sdss'
p268
S'17.4'
p269
sS'Vhel'
p270
S'777'
p271
sS'MajDiam_ang'
p272
S'35.03'
p273
sS'DE-'
p274
S'+'
p275
sS'e_MinDiam'
p276
g173
sS'E(B-V)'
p277
S'0.0242'
p278
sS'Lstar_max'
p279
S'0.0069'
p280
sS'RID_std'
p281
S'-99.99'
p282
sS'GLAT'
p283
S'74.230105'
p284
sS'RC3_d25'
p285
S'-99.99'
p286
sS'azimuth'
p287
F72.2
sS'Lstar_min'
p288
S'0.0039'
p289
sS'MinDiam'
p290
S'1.7'
p291
sa(dp292
g121
S'31'
p293
sg123
S'12'
p294
sg125
S'-99.99'
p295
sg127
S'100002'
p296
sg129
F143.636
sg130
F50.099014750791255
sg131
S'71'
p297
sg133
S'0.003486'
p298
sg135
S'B_(B_T)'
p299
sg137
g138
sg139
S'285.201512'
p300
sg141
S'B_(m_B)'
p301
sg143
S'14.9'
p302
sg145
S'12.506'
p303
sg147
g148
sg149
g150
sg151
S'11.947'
p304
sg153
S'18.94'
p305
sg155
S'32.5272'
p306
sg157
S'65'
p307
sg159
g160
sg161
S'0.12'
p308
sg163
F0.15490608019988278
sg164
S'13.59'
p309
sg166
S'18.942'
p310
sg168
S'105.18'
p311
sg170
S'NGC4497'
p312
sg172
S'0.52'
p313
sg174
S'11.62472'
p314
sg176
S'28.992'
p315
sg178
S'-99.99'
p316
sg180
S'75'
p317
sg182
S'37'
p318
sg184
g160
sg185
S'11'
p319
sg187
S'0.3'
p320
sg189
g190
sg191
g192
sg193
F0.00026922901547659695
sg194
S'0.46'
p321
sg196
g200
sg197
S'13.215'
p322
sg199
g200
sg201
g202
sg203
S'13.2'
p323
sg205
F1046.0
sg206
S'-99.99'
p324
sg208
g209
sg210
S'2.8'
p325
sg212
S'0.2'
p326
sg214
S'SAB(s)0+:'
p327
sg216
S'13.2'
p328
sg218
S'B_(B_T^0)'
p329
sg220
S'56.24'
p330
sg222
g223
sg224
S'NGC4497'
p331
sg226
S'-99.99'
p332
sg228
g229
sg230
S'13.4'
p333
sg232
g233
sg234
S'K_2mass_tot'
p334
sg236
S'K_2mass_tot'
p335
sg238
g239
sg240
g241
sg242
g32
sg243
S'1.89'
p336
sg245
S'0.15'
p337
sg247
S'.LXS+*.'
p338
sg248
g249
sg250
S"['NGC4497', 'IC3452', 'UGC07665', '2MASXJ12313253+1137291', 'SDSSJ123132.52+113728.9']"
p339
sg252
S'187.88553'
p340
sg254
S'0.14'
p341
sg256
S'1345'
p342
sg258
S'0.093'
p343
sg260
S'68'
p344
sg262
S'K_2mass_tot'
p345
sg264
S'7.4'
p346
sg266
S'197'
p347
sg268
S'13.7'
p348
sg270
S'1045'
p349
sg272
S'148.0'
p350
sg274
g275
sg276
g313
sg277
S'0.0369'
p351
sg279
S'0.31'
p352
sg281
S'-99.99'
p353
sg283
S'73.807687'
p354
sg285
S'122.5'
p355
sg287
F85.5
sg288
S'0.25'
p356
sg290
S'5.165'
p357
sa(dp358
g121
S'30'
p359
sg123
S'12'
p360
sg125
S'-99.99'
p361
sg127
S'-99'
p362
sg129
F134.905
sg130
F72.76894534758628
sg131
S'12'
p363
sg133
S'0.0042'
p364
sg135
g160
sg137
g138
sg139
S'283.753686'
p365
sg141
g160
sg143
S'-99.99'
p366
sg145
S'11.752'
p367
sg147
g148
sg149
g150
sg151
S'10.94'
p368
sg153
S'21.95'
p369
sg155
S'47.5512'
p370
sg157
S'-99'
p371
sg159
g160
sg161
S'-99.99'
p372
sg163
F0.1506339527303522
sg164
S'17.43'
p373
sg166
S'21.957'
p374
sg168
S'124.88'
p375
sg170
S'SDSSJ123047.55+122318.1'
p376
sg172
S'1.9'
p377
sg174
S'12.38836'
p378
sg176
S'18.096'
p379
sg178
S'-99.99'
p380
sg180
S'5'
p381
sg182
S'23'
p382
sg184
g160
sg185
S'12'
p383
sg187
S'-99.99'
p384
sg189
g190
sg191
g192
sg193
F0.015564220808318827
sg194
S'-99.99'
p385
sg196
g183
sg197
S'12.544'
p386
sg199
g200
sg201
g202
sg203
S'-99.99'
p387
sg205
F1046.0
sg206
S'-99.99'
p388
sg208
g209
sg210
S'1.3'
p389
sg212
S'0.47'
p390
sg214
g160
sg216
S'-99.99'
p391
sg218
g160
sg220
S'160.5'
p392
sg222
g223
sg224
S'SDSSJ123047.55+122318.1'
p393
sg226
S'-99.99'
p394
sg228
g229
sg230
S'-99.99'
p395
sg232
g233
sg234
S'r_sdss_dev'
p396
sg236
S'r_sdss_pet'
p397
sg238
g239
sg240
g241
sg242
g32
sg243
S'2.19'
p398
sg245
S'-99.99'
p399
sg247
g160
sg248
g249
sg250
S"['SDSSJ123047.55+122318.1']"
p400
sg252
S'187.69813'
p401
sg254
S'-99.99'
p402
sg256
S'1559'
p403
sg258
S'0.22'
p404
sg260
S'12'
p405
sg262
S'r_sdss_dev'
p406
sg264
S'1.3'
p407
sg266
S'-99'
p408
sg268
S'13'
p409
sg270
S'1259'
p410
sg272
S'163.8'
p411
sg274
g275
sg276
g377
sg277
S'0.0196'
p412
sg279
S'-99.99'
p413
sg281
S'-99.99'
p414
sg283
S'74.486215'
p415
sg285
S'-99.99'
p416
sg287
F22.2
sg288
S'-99.99'
p417
sg290
S'17.08'
p418
sa(dp419
g121
S'30'
p420
sg123
S'12'
p421
sg125
S'16.8'
p422
sg127
S'-99'
p423
sg129
F29.438
sg130
F1.991688300663535
sg131
S'61'
p424
sg133
S'0.004183'
p425
sg135
S'B_J_25'
p426
sg137
g138
sg139
S'284.144051'
p427
sg141
S'B_t'
p428
sg143
S'-99.99'
p429
sg145
S'16.681'
p430
sg147
g148
sg149
g150
sg151
S'16.821'
p431
sg153
S'16.8'
p432
sg155
S'48.5208'
p433
sg157
S'-99'
p434
sg159
S'TFest'
p435
sg161
S'0.00049'
p436
sg163
F0.10921487141241967
sg164
S'1.583'
p437
sg166
S'21.886'
p438
sg168
S'23.86'
p439
sg170
S'PGC041360'
p440
sg172
S'0.057'
p441
sg174
S'12.04502'
p442
sg176
S'42.072'
p443
sg178
S'16.9'
p444
sg180
S'78'
p445
sg182
g200
sg184
g160
sg185
S'12'
p446
sg187
S'0.0031'
p447
sg189
g190
sg191
g192
sg193
F6.6523826761967956e-96
sg194
S'0.51'
p448
sg196
g200
sg197
S'16.71'
p449
sg199
g200
sg201
g202
sg203
S'17.9'
p450
sg205
F1046.0
sg206
S'16.8'
p451
sg208
g209
sg210
S'0.63'
p452
sg212
S'0.0075'
p453
sg214
S'Blue_Compact_Dwarf'
p454
sg216
S'17.9'
p455
sg218
S'B_J_25'
p456
sg220
S'9.911'
p457
sg222
g223
sg224
S'VCC1313'
p458
sg226
S'17.0'
p459
sg228
g229
sg230
S'18'
p460
sg232
g233
sg234
S'r_sdss_iso'
p461
sg236
S'r_sdss_iso'
p462
sg238
g239
sg240
g241
sg242
g32
sg243
S'0.1'
p463
sg245
S'0.0003'
p464
sg247
S'       '
p465
sg248
g249
sg250
S"['SDSSJ123048.61+120242.8']"
p466
sg252
S'187.70217'
p467
sg254
S'0.0003'
p468
sg256
S'1554'
p469
sg258
S'0.00026'
p470
sg260
S'59'
p471
sg262
S'rc3_dr_25'
p472
sg264
S'0.27'
p473
sg266
S'-99'
p474
sg268
S'16.9'
p475
sg270
S'1254'
p476
sg272
S'19.43'
p477
sg274
g275
sg276
g441
sg277
S'0.0235'
p478
sg279
S'0.0031'
p479
sg281
S'0.1'
p480
sg283
S'74.159451'
p481
sg285
S'13.13'
p482
sg287
F8.0
sg288
S'0.0029'
p483
sg290
S'0.8073'
p484
sa(dp485
g121
S'30'
p486
sg123
S'12'
p487
sg125
S'17.1'
p488
sg127
S'100002'
p489
sg129
F67.818
sg130
F18.8386547290405
sg131
S'38'
p490
sg133
S'0.002528'
p491
sg135
S'B_T__(Johnson)'
p492
sg137
g138
sg139
S'284.03156'
p493
sg141
S'B_(HST)'
p494
sg143
S'14.9'
p495
sg145
S'12.217'
p496
sg147
g148
sg149
g150
sg151
S'11.078'
p497
sg153
S'17.1'
p498
sg155
S'57.7104'
p499
sg157
S'-99'
p500
sg159
S'GCLF'
p501
sg161
S'0.087'
p502
sg163
F0.0954136686741874
sg164
S'7.08'
p503
sg166
S'14.901'
p504
sg168
S'67.07'
p505
sg170
S'NGC4486A'
p506
sg172
S'0.46'
p507
sg174
S'12.27036'
p508
sg176
S'13.296'
p509
sg178
S'16.871'
p510
sg180
g381
sg182
S'16'
p511
sg184
g160
sg185
S'12'
p512
sg187
S'0.26'
p513
sg189
g190
sg191
g192
sg193
F6.242831551574061e-07
sg194
S'-99.99'
p514
sg196
g381
sg197
S'12.85'
p515
sg199
g200
sg201
g202
sg203
S'13.1'
p516
sg205
F1046.0
sg206
S'15.0'
p517
sg208
g209
sg210
S'3.4'
p518
sg212
S'0.23'
p519
sg214
S'E2'
p520
sg216
S'13.1'
p521
sg218
S'B_T__(Johnson)'
p522
sg220
S'68.32'
p523
sg222
g223
sg224
S'NGC4486A'
p524
sg226
S'18.4'
p525
sg228
g229
sg230
S'13.3'
p526
sg232
g233
sg234
S'K_2mass_tot'
p527
sg236
S'K_2mass_tot'
p528
sg238
g239
sg240
g241
sg242
g32
sg243
S'1.39'
p529
sg245
S'0.099'
p530
sg247
g160
sg248
g249
sg250
S"['NGC4486A', 'UGC07658', '2MASXJ12305772+1216132', 'SDSSJ123057.71+121613.2']"
p531
sg252
S'187.74046'
p532
sg254
S'0.099'
p533
sg256
S'1058'
p534
sg258
S'0.085'
p535
sg260
S'37'
p536
sg262
S'K_2mass_tot'
p537
sg264
S'4.3'
p538
sg266
S'197'
p539
sg268
S'13.3'
p540
sg270
S'758'
p541
sg272
S'85.4'
p542
sg274
g275
sg276
g507
sg277
S'0.0202'
p543
sg279
S'0.26'
p544
sg281
S'1.394'
p545
sg283
S'74.385832'
p546
sg285
S'-99.99'
p547
sg287
F21.0
sg288
S'0.23'
p548
sg290
S'5.664'
p549
saa(lp550
(dp551
g121
S'30'
p552
sg123
S'12'
p553
sg125
S'-99.99'
p554
sg127
S'-99'
p555
sg129
F134.905
sg130
F72.76894534758628
sg131
S'12'
p556
sg133
S'0.0042'
p557
sg135
g160
sg137
S'2.4'
p558
sg139
S'283.753686'
p559
sg141
g160
sg143
S'-99.99'
p560
sg145
S'11.752'
p561
sg147
S'Lya'
p562
sg149
S'1.4'
p563
sg151
S'10.94'
p564
sg153
S'21.95'
p565
sg155
S'47.5512'
p566
sg157
S'-99'
p567
sg159
g160
sg161
S'-99.99'
p568
sg163
F0.3076899867940036
sg164
S'17.43'
p569
sg166
S'21.957'
p570
sg168
S'124.88'
p571
sg170
S'SDSSJ123047.55+122318.1'
p572
sg172
S'1.9'
p573
sg174
S'12.38836'
p574
sg176
S'18.096'
p575
sg178
S'-99.99'
p576
sg180
g381
sg182
S'23'
p577
sg184
g160
sg185
S'12'
p578
sg187
S'-99.99'
p579
sg189
S'94.4'
p580
sg191
S'16'
p581
sg193
F0.031792001790879244
sg194
S'-99.99'
p582
sg196
g183
sg197
S'12.544'
p583
sg199
g200
sg201
S'2.84E+13'
p584
sg203
S'-99.99'
p585
sg205
F1286.0
sg206
S'-99.99'
p586
sg208
S'2.35E+14'
p587
sg210
S'1.3'
p588
sg212
S'0.47'
p589
sg214
g160
sg216
S'-99.99'
p590
sg218
g160
sg220
S'160.5'
p591
sg222
S'525'
p592
sg224
S'SDSSJ123047.55+122318.1'
p593
sg226
S'-99.99'
p594
sg228
S'12.051944444444445'
p595
sg230
S'-99.99'
p596
sg232
S'0.11612'
p597
sg234
S'r_sdss_dev'
p598
sg236
S'r_sdss_pet'
p599
sg238
g239
sg240
S'56.7'
p600
sg242
g33
sg243
S'2.19'
p601
sg245
S'-99.99'
p602
sg247
g160
sg248
S'187.80458333333334'
p603
sg250
S"['SDSSJ123047.55+122318.1']"
p604
sg252
S'187.69813'
p605
sg254
S'-99.99'
p606
sg256
S'1559'
p607
sg258
S'0.22'
p608
sg260
S'12'
p609
sg262
S'r_sdss_dev'
p610
sg264
S'1.3'
p611
sg266
S'-99'
p612
sg268
S'13'
p613
sg270
S'1259'
p614
sg272
S'163.8'
p615
sg274
g275
sg276
g573
sg277
S'0.0196'
p616
sg279
S'-99.99'
p617
sg281
S'-99.99'
p618
sg283
S'74.486215'
p619
sg285
S'-99.99'
p620
sg287
F22.2
sg288
S'-99.99'
p621
sg290
S'17.08'
p622
sa(dp623
g121
S'30'
p624
sg123
S'12'
p625
sg125
S'16.8'
p626
sg127
S'-99'
p627
sg129
F29.438
sg130
F1.991688300663535
sg131
S'61'
p628
sg133
S'0.004183'
p629
sg135
S'B_J_25'
p630
sg137
g558
sg139
S'284.144051'
p631
sg141
S'B_t'
p632
sg143
S'-99.99'
p633
sg145
S'16.681'
p634
sg147
g562
sg149
g563
sg151
S'16.821'
p635
sg153
S'16.8'
p636
sg155
S'48.5208'
p637
sg157
S'-99'
p638
sg159
S'TFest'
p639
sg161
S'0.00049'
p640
sg163
F0.21468186596915326
sg164
S'1.583'
p641
sg166
S'21.886'
p642
sg168
S'23.86'
p643
sg170
S'PGC041360'
p644
sg172
S'0.057'
p645
sg174
S'12.04502'
p646
sg176
S'42.072'
p647
sg178
S'16.9'
p648
sg180
S'78'
p649
sg182
g200
sg184
g160
sg185
S'12'
p650
sg187
S'0.0031'
p651
sg189
g580
sg191
g581
sg193
F1.307647857473366e-95
sg194
S'0.51'
p652
sg196
g200
sg197
S'16.71'
p653
sg199
g200
sg201
g584
sg203
S'17.9'
p654
sg205
F1286.0
sg206
S'16.8'
p655
sg208
g587
sg210
S'0.63'
p656
sg212
S'0.0075'
p657
sg214
S'Blue_Compact_Dwarf'
p658
sg216
S'17.9'
p659
sg218
S'B_J_25'
p660
sg220
S'9.911'
p661
sg222
g592
sg224
S'VCC1313'
p662
sg226
S'17.0'
p663
sg228
g595
sg230
S'18'
p664
sg232
g597
sg234
S'r_sdss_iso'
p665
sg236
S'r_sdss_iso'
p666
sg238
g239
sg240
g600
sg242
g33
sg243
S'0.1'
p667
sg245
S'0.0003'
p668
sg247
S'       '
p669
sg248
g603
sg250
S"['SDSSJ123048.61+120242.8']"
p670
sg252
S'187.70217'
p671
sg254
S'0.0003'
p672
sg256
S'1554'
p673
sg258
S'0.00026'
p674
sg260
S'59'
p675
sg262
S'rc3_dr_25'
p676
sg264
S'0.27'
p677
sg266
S'-99'
p678
sg268
S'16.9'
p679
sg270
S'1254'
p680
sg272
S'19.43'
p681
sg274
g275
sg276
g645
sg277
S'0.0235'
p682
sg279
S'0.0031'
p683
sg281
S'0.1'
p684
sg283
S'74.159451'
p685
sg285
S'13.13'
p686
sg287
F8.0
sg288
S'0.0029'
p687
sg290
S'0.8073'
p688
sa(dp689
g121
S'30'
p690
sg123
S'12'
p691
sg125
S'16.4'
p692
sg127
S'100002'
p693
sg129
F102.384
sg130
F30.173112234040428
sg131
S'36'
p694
sg133
S'0.0045'
p695
sg135
S'B_(m_B)'
p696
sg137
g558
sg139
S'283.385189'
p697
sg141
S'B_(B_T)'
p698
sg143
S'14.9'
p699
sg145
S'14.046'
p700
sg147
g562
sg149
g563
sg151
S'13.373'
p701
sg153
S'16.4'
p702
sg155
S'17.4168'
p703
sg157
S'140'
p704
sg159
S'SBF'
p705
sg161
S'0.37'
p706
sg163
F0.2071753123275331
sg164
S'9.692'
p707
sg166
S'23.225'
p708
sg168
S'83.3'
p709
sg170
S'NGC4478'
p710
sg172
S'1.3'
p711
sg174
S'12.32855'
p712
sg176
S'42.78'
p713
sg178
S'16.11'
p714
sg180
S'140'
p715
sg182
S'19'
p716
sg184
g160
sg185
S'12'
p717
sg187
S'0.55'
p718
sg189
g580
sg191
g581
sg193
F9.375185564762928e-06
sg194
S'0.85'
p719
sg196
S'6'
p720
sg197
S'14.873'
p721
sg199
g200
sg201
g584
sg203
S'12.2'
p722
sg205
F1286.0
sg206
S'8.87'
p723
sg208
g587
sg210
S'5.0'
p724
sg212
S'0.03'
p725
sg214
S'E2'
p726
sg216
S'12.2'
p727
sg218
S'B_(HST)'
p728
sg220
S'99.96'
p729
sg222
g592
sg224
S'NGC4478'
p730
sg226
S'23.3'
p731
sg228
g595
sg230
S'12.4'
p732
sg232
g597
sg234
S'K_2mass_tot'
p733
sg236
S'K_2mass_tot'
p734
sg238
g239
sg240
g600
sg242
g33
sg243
S'2.74'
p735
sg245
S'0.44'
p736
sg247
S'.E.2...'
p737
sg248
g603
sg250
S"['NGC4478', 'UGC07645', '2MASXJ12301743+1219428', 'SDSSJ123017.41+121942.7']"
p738
sg252
S'187.57257'
p739
sg254
S'0.43'
p740
sg256
S'1649'
p741
sg258
S'0.023'
p742
sg260
S'35'
p743
sg262
S'K_2mass_tot'
p744
sg264
S'6.1'
p745
sg266
S'197'
p746
sg268
S'15.4'
p747
sg270
S'1349'
p748
sg272
S'121.9'
p749
sg274
g275
sg276
g711
sg277
S'0.0207'
p750
sg279
S'0.57'
p751
sg281
S'2.74'
p752
sg283
S'74.392153'
p753
sg285
S'114.33'
p754
sg287
F0.6
sg288
S'0.48'
p755
sg290
S'7.948'
p756
sa(dp757
g121
S'30'
p758
sg123
S'12'
p759
sg125
S'-99.99'
p760
sg127
S'-99'
p761
sg129
F39.705
sg130
F3.137135350443139
sg131
S'67'
p762
sg133
S'0.004386'
p763
sg135
g160
sg137
g558
sg139
S'284.145017'
p764
sg141
g160
sg143
S'-99.99'
p765
sg145
S'16.681'
p766
sg147
g562
sg149
g563
sg151
S'16.821'
p767
sg153
S'22.74'
p768
sg155
S'48.6048'
p769
sg157
S'-99'
p770
sg159
g160
sg161
S'-99.99'
p771
sg163
F0.1592414283129946
sg164
S'2.143'
p772
sg166
S'22.745'
p773
sg168
S'29.4'
p774
sg170
S'SDSSJ123048.60+120242.8'
p775
sg172
S'0.18'
p776
sg174
S'12.04523'
p777
sg176
S'42.828'
p778
sg178
S'-99.99'
p779
sg180
S'78'
p780
sg182
g200
sg184
g160
sg185
S'12'
p781
sg187
S'-99.99'
p782
sg189
g580
sg191
g581
sg193
F2.6691159945585486e-70
sg194
S'-99.99'
p783
sg196
g200
sg197
S'16.71'
p784
sg199
g200
sg201
g584
sg203
S'-99.99'
p785
sg205
F1286.0
sg206
S'-99.99'
p786
sg208
g587
sg210
S'0.69'
p787
sg212
S'0.014'
p788
sg214
S'Extended_Src_[SDSS]'
p789
sg216
S'-99.99'
p790
sg218
g160
sg220
S'8.357'
p791
sg222
g592
sg224
S'SDSSJ123048.60+120242.8'
p792
sg226
S'-99.99'
p793
sg228
g595
sg230
S'-99.99'
p794
sg232
g597
sg234
S'r_sdss_iso'
p795
sg236
S'r_sdss_iso'
p796
sg238
g239
sg240
g600
sg242
g33
sg243
S'2.27'
p797
sg245
S'-99.99'
p798
sg247
g160
sg248
g603
sg250
S"['SDSSJ123048.60+120242.8']"
p799
sg252
S'187.70252'
p800
sg254
S'-99.99'
p801
sg256
S'1615'
p802
sg258
S'0.0063'
p803
sg260
S'65'
p804
sg262
S'r_sdss_dev'
p805
sg264
S'0.27'
p806
sg266
S'-99'
p807
sg268
S'16.9'
p808
sg270
S'1315'
p809
sg272
S'19.43'
p810
sg274
g275
sg276
g776
sg277
S'0.0235'
p811
sg279
S'-99.99'
p812
sg281
S'-99.99'
p813
sg283
S'74.159754'
p814
sg285
S'-99.99'
p815
sg287
F8.2
sg288
S'-99.99'
p816
sg290
S'0.9215'
p817
saa(lp818
(dp819
g121
S'36'
p820
sg123
S'12'
p821
sg125
S'-99.99'
p822
sg127
S'-99'
p823
sg129
F177.718
sg130
F130.05851860989347
sg131
S'77'
p824
sg133
S'0.025151'
p825
sg135
g160
sg137
g381
sg139
S'217.76268'
p826
sg141
g160
sg143
S'-99.99'
p827
sg145
S'-99.99'
p828
sg147
S'Lya'
p829
sg149
g183
sg151
S'-99.99'
p830
sg153
S'110.29'
p831
sg155
S'2.2104'
p832
sg157
S'-99'
p833
sg159
g160
sg161
S'-99.99'
p834
sg163
F0.06112601745710616
sg164
S'25.67'
p835
sg166
S'110.297'
p836
sg168
S'163.12'
p837
sg170
S'2MFGC09922'
p838
sg172
S'0.77'
p839
sg174
S'26.78539'
p840
sg176
S'7.404'
p841
sg178
S'-99.99'
p842
sg180
S'25'
p843
sg182
S'47'
p844
sg184
g160
sg185
S'26'
p845
sg187
S'-99.99'
p846
sg189
S'34.6'
p847
sg191
S'9'
p848
sg193
F0.03096183757815076
sg194
S'-99.99'
p849
sg196
g78
sg197
S'-99.99'
p850
sg199
g78
sg201
S'2.01E+12'
p851
sg203
S'-99.99'
p852
sg205
F7223.0
sg206
S'-99.99'
p853
sg208
S'1.07E+13'
p854
sg210
S'0.72'
p855
sg212
S'-99.99'
p856
sg214
g160
sg216
S'-99.99'
p857
sg218
g160
sg220
S'14.4'
p858
sg222
S'51'
p859
sg224
S'2MFGC09922'
p860
sg226
S'-99.99'
p861
sg228
S'26.693333333333335'
p862
sg230
S'-99.99'
p863
sg232
S'0.20915'
p864
sg234
S'K_2mass_tot'
p865
sg236
S'K_2mass_tot'
p866
sg238
g239
sg240
S'20.8'
p867
sg242
g34
sg243
S'11.02'
p868
sg245
S'-99.99'
p869
sg247
g160
sg248
S'189.01708333333332'
p870
sg250
S"['2MASXJ12360219+2647071', 'SDSSJ123602.20+264707.3']"
p871
sg252
S'189.00921'
p872
sg254
S'-99.99'
p873
sg256
S'7831'
p874
sg258
S'-99.99'
p875
sg260
S'73'
p876
sg262
S'K_2mass_tot'
p877
sg264
S'2.4'
p878
sg266
S'-99'
p879
sg268
S'-99.99'
p880
sg270
S'7540'
p881
sg272
S'48.0'
p882
sg274
g275
sg276
g839
sg277
S'0.0163'
p883
sg279
S'-99.99'
p884
sg281
S'-99.99'
p885
sg283
S'86.551124'
p886
sg285
S'-99.99'
p887
sg287
F29.4
sg288
S'-99.99'
p888
sg290
S'7.7'
p889
sa(dp890
g121
S'36'
p891
sg123
S'12'
p892
sg125
S'-99.99'
p893
sg127
S'-99'
p894
sg129
F131.386
sg130
F25.599397118994816
sg131
S'45'
p895
sg133
S'0.024591'
p896
sg135
g160
sg137
g381
sg139
S'218.322536'
p897
sg141
g160
sg143
S'-99.99'
p898
sg145
S'16.007'
p899
sg147
g829
sg149
g183
sg151
S'15.395'
p900
sg153
S'107.93'
p901
sg155
S'12.2616'
p902
sg157
S'-99'
p903
sg159
g160
sg161
S'-99.99'
p904
sg163
F0.03879748609961465
sg164
S'8.686'
p905
sg166
S'107.931'
p906
sg168
S'77.23'
p907
sg170
S'IC3565'
p908
sg172
S'0.63'
p909
sg174
S'26.75612'
p910
sg176
S'22.032'
p911
sg178
S'-99.99'
p912
sg180
S'25'
p913
sg182
S'45'
p914
sg184
g160
sg185
S'26'
p915
sg187
S'-99.99'
p916
sg189
g847
sg191
g848
sg193
F2.545721236551265e-12
sg194
S'-99.99'
p917
sg196
g79
sg197
S'16.711'
p918
sg199
g78
sg201
g851
sg203
S'-99.99'
p919
sg205
F7223.0
sg206
S'-99.99'
p920
sg208
g854
sg210
S'0.6'
p921
sg212
S'0.25'
p922
sg214
g160
sg216
S'-99.99'
p923
sg218
g160
sg220
S'11.95'
p924
sg222
g859
sg224
S'IC3565'
p925
sg226
S'-99.99'
p926
sg228
g862
sg230
S'-99.99'
p927
sg232
g864
sg234
S'K_2mass_tot'
p928
sg236
S'K_2mass_tot'
p929
sg238
g239
sg240
g867
sg242
g34
sg243
S'10.79'
p930
sg245
S'-99.99'
p931
sg247
g160
sg248
g870
sg250
S"['IC3565', '2MASXJ12361227+2645221', 'SDSSJ123612.26+264521.9']"
p932
sg252
S'189.05109'
p933
sg254
S'-99.99'
p934
sg256
S'7663'
p935
sg258
S'0.12'
p936
sg260
S'44'
p937
sg262
S'r_sdss_iso'
p938
sg264
S'0.83'
p939
sg266
S'-99'
p940
sg268
S'17.2'
p941
sg270
S'7372'
p942
sg272
S'16.6'
p943
sg274
g275
sg276
g909
sg277
S'0.0172'
p944
sg279
S'-99.99'
p945
sg281
S'-99.99'
p946
sg283
S'86.58476'
p947
sg285
S'-99.99'
p948
sg287
F0.8
sg288
S'-99.99'
p949
sg290
S'6.254'
p950
sa(dp951
g121
S'35'
p952
sg123
S'12'
p953
sg125
S'110.0'
p954
sg127
S'100082'
p955
sg129
F433.857
sg130
F404.11450691109815
sg131
S'47'
p956
sg133
S'0.024987'
p957
sg135
S'B_(m_B^0)'
p958
sg137
g381
sg139
S'215.636722'
p959
sg141
S'B_(Johnson)'
p960
sg143
S'76.7'
p961
sg145
S'12.94'
p962
sg147
g829
sg149
g183
sg151
S'12.294'
p963
sg153
S'110'
p964
sg155
S'45.8568'
p965
sg157
S'80'
p966
sg159
S'TF'
p967
sg161
S'0.64'
p968
sg163
F0.02619496601615426
sg164
S'54.66'
p969
sg166
S'109.605'
p970
sg168
S'274.78'
p971
sg170
S'NGC4556'
p972
sg172
S'1.7'
p973
sg174
S'26.90889'
p974
sg176
S'32.004'
p975
sg178
S'108.667'
p976
sg180
S'70'
p977
sg182
S'54'
p978
sg184
g160
sg185
S'26'
p979
sg187
S'4.4'
p980
sg189
g847
sg191
g848
sg193
F0.1000786219852657
sg194
S'0.83'
p981
sg196
g79
sg197
S'13.747'
p982
sg199
g78
sg201
g851
sg203
S'14.1'
p983
sg205
F7223.0
sg206
S'102.0'
p984
sg208
g854
sg210
S'3.6'
p985
sg212
S'3.8'
p986
sg214
S'E+:'
p987
sg216
S'13.9'
p988
sg218
S'B_(m_B)'
p989
sg220
S'71.75'
p990
sg222
g859
sg224
S'NGC4556'
p991
sg226
S'114.0'
p992
sg228
g862
sg230
S'14.6'
p993
sg232
g864
sg234
S'K_2mass_tot'
p994
sg236
S'K_2mass_tot'
p995
sg238
g239
sg240
g867
sg242
g34
sg243
S'4.98'
p996
sg245
S'1.0'
p997
sg247
S'.E+..*.'
p998
sg248
g870
sg250
S"['NGC4556', 'UGC07765', '2MASXJ12354585+2654317', 'SDSSJ123545.85+265431.9']"
p999
sg252
S'188.94107'
p1000
sg254
S'1.1'
p1001
sg256
S'7782'
p1002
sg258
S'0.8'
p1003
sg260
S'46'
p1004
sg262
S'K_2mass_tot'
p1005
sg264
S'5.1'
p1006
sg266
S'12'
p1007
sg268
S'14.2'
p1008
sg270
S'7491'
p1009
sg272
S'102.5'
p1010
sg274
g275
sg276
g973
sg277
S'0.0151'
p1011
sg279
S'5.0'
p1012
sg281
S'4.989'
p1013
sg283
S'86.502512'
p1014
sg285
S'72.14'
p1015
sg287
F87.5
sg288
S'2.7'
p1016
sg290
S'38.26'
p1017
saa(lp1018
(dp1019
g121
S'17'
p1020
sg123
S'12'
p1021
sg125
S'16.0'
p1022
sg127
S'100065'
p1023
sg129
F142.964
sg130
F60.25745723974751
sg131
S'59'
p1024
sg133
S'0.002948'
p1025
sg135
S'B_(B_T^0)'
p1026
sg137
S'4.3'
p1027
sg139
S'192.521111'
p1028
sg141
S'B_T(25)_'
p1029
sg143
S'11.1'
p1030
sg145
S'-99.99'
p1031
sg147
S'Lya'
p1032
sg149
S'2.6'
p1033
sg151
S'-99.99'
p1034
sg153
S'16'
p1035
sg155
S'36.7728'
p1036
sg157
S'-99'
p1037
sg159
S'DRing'
p1038
sg161
S'0.42'
p1039
sg163
F0.13678804153253787
sg164
S'15.37'
p1040
sg166
S'16.495'
p1041
sg168
S'114.5'
p1042
sg170
S'NGC4245'
p1043
sg172
S'1.7'
p1044
sg174
S'29.60801'
p1045
sg176
S'28.836'
p1046
sg178
S'14.233'
p1047
sg180
S'135'
p1048
sg182
S'36'
p1049
sg184
g160
sg185
S'29'
p1050
sg187
S'0.55'
p1051
sg189
S'60.2'
p1052
sg191
S'8'
p1053
sg193
F0.0023359353829664614
sg194
S'0.76'
p1054
sg196
g183
sg197
S'-99.99'
p1055
sg199
g78
sg201
S'4.43E+12'
p1056
sg203
S'12.2'
p1057
sg205
F1048.0
sg206
S'9.7'
p1058
sg208
S'1.09E+14'
p1059
sg210
S'5.4'
p1060
sg212
S'-99.99'
p1061
sg214
S'SB(r)0/a:_HII'
p1062
sg216
S'12'
p1063
sg218
S'B^0^_T(25)_'
p1064
sg220
S'107.0'
p1065
sg222
S'305'
p1066
sg224
S'NGC4245'
p1067
sg226
S'17.0'
p1068
sg228
S'30.116944444444446'
p1069
sg230
S'12.4'
p1070
sg232
S'0.13000'
p1071
sg234
S'K_2mass_tot'
p1072
sg236
S'K_2mass_tot'
p1073
sg238
g239
sg240
S'36.1'
p1074
sg242
g35
sg243
S'3.23'
p1075
sg245
S'0.58'
p1076
sg247
S'.SBR0*.'
p1077
sg248
S'184.46708333333333'
p1078
sg250
S"['NGC4245', 'UGC07328', '2MASXJ12173678+2936288', 'SDSSJ121736.78+293628.8']"
p1079
sg252
S'184.40322'
p1080
sg254
S'0.52'
p1081
sg256
S'1171'
p1082
sg258
S'-99.99'
p1083
sg260
S'57'
p1084
sg262
S'K_2mass_tot'
p1085
sg264
S'9.9'
p1086
sg266
S'15'
p1087
sg268
S'-99.99'
p1088
sg270
S'884'
p1089
sg272
S'198.2'
p1090
sg274
g275
sg276
g1044
sg277
S'0.018'
p1091
sg279
S'0.63'
p1092
sg281
S'3.231'
p1093
sg283
S'82.159402'
p1094
sg285
S'173.04'
p1095
sg287
F51.2
sg288
S'0.44'
p1096
sg290
S'8.302'
p1097
sa(dp1098
g121
S'22'
p1099
sg123
S'12'
p1100
sg125
S'9.7'
p1101
sg127
S'100065'
p1102
sg129
F174.94
sg130
F59.72897079307494
sg131
S'48'
p1103
sg133
S'0.003212'
p1104
sg135
S'B_(B_T^0)'
p1105
sg137
g1027
sg139
S'187.68642'
p1106
sg141
S'B_(B_T)'
p1107
sg143
S'11.1'
p1108
sg145
S'11.18'
p1109
sg147
g1032
sg149
g1033
sg151
S'10.326'
p1110
sg153
S'9.7'
p1111
sg155
S'31.824'
p1112
sg157
S'-99'
p1113
sg159
S'TFest'
p1114
sg161
S'0.57'
p1115
sg163
F0.08468413321980832
sg164
S'15.28'
p1116
sg166
S'17.604'
p1117
sg168
S'114.04'
p1118
sg170
S'NGC4314'
p1119
sg172
S'3.2'
p1120
sg174
S'29.89589'
p1121
sg176
S'45.204'
p1122
sg178
S'9.7'
p1123
sg180
S'148'
p1124
sg182
S'53'
p1125
sg184
S'LC_I'
p1126
sg185
S'29'
p1127
sg187
S'0.47'
p1128
sg189
g1052
sg191
g1053
sg193
F0.00016758207843563564
sg194
S'0.89'
p1129
sg196
g79
sg197
S'11.826'
p1130
sg199
g78
sg201
g1056
sg203
S'11.2'
p1131
sg205
F1048.0
sg206
S'9.7'
p1132
sg208
g1059
sg210
S'11.0'
p1133
sg212
S'0.19'
p1134
sg214
S'SB(rs)a_LINER'
p1135
sg216
S'11.2'
p1136
sg218
S'B^0^_T(25)_'
p1137
sg220
S'221.0'
p1138
sg222
g1066
sg224
S'NGC4314'
p1139
sg226
S'9.7'
p1140
sg228
g1069
sg230
S'11.4'
p1141
sg232
g1071
sg234
S'K_lga2mass_tot'
p1142
sg236
S'K_lga2mass_tot'
p1143
sg238
g239
sg240
g1074
sg242
g35
sg243
S'2.98'
p1144
sg245
S'0.72'
p1145
sg247
S'.SBT1..'
p1146
sg248
g1078
sg250
S"['NGC4314', 'UGC07443', '2MASXJ12223197+2953430', 'SDSSJ122232.01+295343.7']"
p1147
sg252
S'185.6326'
p1148
sg254
S'0.68'
p1149
sg256
S'1250'
p1150
sg258
S'0.26'
p1151
sg260
S'47'
p1152
sg262
S'K_lga2mass_tot'
p1153
sg264
S'16.0'
p1154
sg266
S'15'
p1155
sg268
S'12.3'
p1156
sg270
S'963'
p1157
sg272
S'325.0'
p1158
sg274
g275
sg276
g1120
sg277
S'0.0217'
p1159
sg279
S'0.51'
p1160
sg281
S'2.989'
p1161
sg283
S'83.074703'
p1162
sg285
S'250.12'
p1163
sg287
F45.6
sg288
S'0.4'
p1164
sg290
S'10.39'
p1165
sa(dp1166
g121
S'18'
p1167
sg123
S'12'
p1168
sg125
S'-99.99'
p1169
sg127
S'-99'
p1170
sg129
F39.341
sg130
F4.907900882454738
sg131
S'49'
p1171
sg133
S'0.002538'
p1172
sg135
g160
sg137
g1027
sg139
S'188.901093'
p1173
sg141
g160
sg143
S'-99.99'
p1174
sg145
S'16.175'
p1175
sg147
g1032
sg149
g1033
sg151
S'16.089'
p1176
sg153
S'14.75'
p1177
sg155
S'31.5576'
p1178
sg157
S'-99'
p1179
sg159
g160
sg161
S'-99.99'
p1180
sg163
F0.08179415229011158
sg164
S'2.888'
p1181
sg166
S'14.754'
p1182
sg168
S'36.13'
p1183
sg170
S'SDSSJ121831.55+300339.9'
p1184
sg172
S'0.24'
p1185
sg174
S'30.06111'
p1186
sg176
S'39.996'
p1187
sg178
S'-99.99'
p1188
sg180
S'65'
p1189
sg182
g183
sg184
g160
sg185
S'30'
p1190
sg187
S'-99.99'
p1191
sg189
g1052
sg191
g1053
sg193
F3.3307703633974424e-29
sg194
S'-99.99'
p1192
sg196
g78
sg197
S'16.814'
p1193
sg199
g78
sg201
g1056
sg203
S'-99.99'
p1194
sg205
F1048.0
sg206
S'-99.99'
p1195
sg208
g1059
sg210
S'0.59'
p1196
sg212
S'0.0043'
p1197
sg214
S'Extended_Src_[SDSS]'
p1198
sg216
S'-99.99'
p1199
sg218
g160
sg220
S'27.05'
p1200
sg222
g1066
sg224
S'SDSSJ121831.55+300339.9'
p1201
sg226
S'-99.99'
p1202
sg228
g1069
sg230
S'-99.99'
p1203
sg232
g1071
sg234
S'r_sdss_iso'
p1204
sg236
S'r_sdss_iso'
p1205
sg238
g239
sg240
g1074
sg242
g35
sg243
S'1.47'
p1206
sg245
S'-99.99'
p1207
sg247
g160
sg248
g1078
sg250
S"['SDSSJ121831.55+300339.9']"
p1208
sg252
S'184.63149'
p1209
sg254
S'-99.99'
p1210
sg256
S'1048'
p1211
sg258
S'0.002'
p1212
sg260
S'48'
p1213
sg262
S'r_sdss_iso'
p1214
sg264
S'0.38'
p1215
sg266
S'-99'
p1216
sg268
S'17.2'
p1217
sg270
S'761'
p1218
sg272
S'40.38'
p1219
sg274
g275
sg276
g1185
sg277
S'0.0171'
p1220
sg279
S'-99.99'
p1221
sg281
S'-99.99'
p1222
sg283
S'82.205703'
p1223
sg285
S'-99.99'
p1224
sg287
F46.4
sg288
S'-99.99'
p1225
sg290
S'1.935'
p1226
saa(lp1227
(dp1228
g121
S'52'
p1229
sg123
S'10'
p1230
sg125
S'-99.99'
p1231
sg127
S'-99'
p1232
sg129
F21.742
sg130
F25.119044488853472
sg131
S'66'
p1233
sg133
S'0.001947'
p1234
sg135
g160
sg137
S'6.1'
p1235
sg139
S'184.751984'
p1236
sg141
g160
sg143
S'-99.99'
p1237
sg145
S'12.132'
p1238
sg147
S'Lya'
p1239
sg149
S'3.7'
p1240
sg151
S'11.796'
p1241
sg153
S'11.81'
p1242
sg155
S'33.1392'
p1243
sg157
S'-99'
p1244
sg159
g160
sg161
S'-99.99'
p1245
sg163
F0.9187471923493427
sg164
S'8.577'
p1246
sg166
S'11.817'
p1247
sg168
S'76.56'
p1248
sg170
S'SDSSJ105233.13+363736.7'
p1249
sg172
S'0.44'
p1250
sg174
S'36.62689'
p1251
sg176
S'36.804'
p1252
sg178
S'-99.99'
p1253
sg180
S'41'
p1254
sg182
S'37'
p1255
sg184
g160
sg185
S'36'
p1256
sg187
S'-99.99'
p1257
sg189
S'106.8'
p1258
sg191
S'25'
p1259
sg193
F0.47081626964269185
sg194
S'-99.99'
p1260
sg196
g239
sg197
S'13.064'
p1261
sg199
g78
sg201
S'4.25E+13'
p1262
sg203
S'-99.99'
p1263
sg205
F600.0
sg206
S'-99.99'
p1264
sg208
S'2.62E+14'
p1265
sg210
S'0.98'
p1266
sg212
S'0.079'
p1267
sg214
S'WR?_HII'
p1268
sg216
S'-99.99'
p1269
sg218
g160
sg220
S'65.87'
p1270
sg222
S'568'
p1271
sg224
S'SDSSJ105233.13+363736.7'
p1272
sg226
S'-99.99'
p1273
sg228
S'36.67777777777778'
p1274
sg230
S'-99.99'
p1275
sg232
S'0.60999'
p1276
sg234
S'r_sdss_iso'
p1277
sg236
S'r_sdss_iso'
p1278
sg238
g239
sg240
S'64.1'
p1279
sg242
g36
sg243
S'1.18'
p1280
sg245
S'-99.99'
p1281
sg247
g160
sg248
S'163.02291666666667'
p1282
sg250
S"['SDSSJ105233.13+363736.7']"
p1283
sg252
S'163.13808'
p1284
sg254
S'-99.99'
p1285
sg256
S'839'
p1286
sg258
S'0.036'
p1287
sg260
S'64'
p1288
sg262
S'r_sdss_iso'
p1289
sg264
S'0.95'
p1290
sg266
S'-99'
p1291
sg268
S'13.6'
p1292
sg270
S'584'
p1293
sg272
S'149.7'
p1294
sg274
g275
sg276
g1250
sg277
S'0.011'
p1295
sg279
S'-99.99'
p1296
sg281
S'-99.99'
p1297
sg283
S'63.167249'
p1298
sg285
S'-99.99'
p1299
sg287
F77.9
sg288
S'-99.99'
p1300
sg290
S'3.774'
p1301
sa(dp1302
g121
S'52'
p1303
sg123
S'10'
p1304
sg125
S'-99.99'
p1305
sg127
S'-99'
p1306
sg129
F22.037
sg130
F14.42223381189613
sg131
S'70'
p1307
sg133
S'0.001671'
p1308
sg135
g160
sg137
g1235
sg139
S'184.657548'
p1309
sg141
g160
sg143
S'-99.99'
p1310
sg145
S'15.698'
p1311
sg147
g1239
sg149
g1240
sg151
S'18.915'
p1312
sg153
S'10.64'
p1313
sg155
S'40.8'
p1314
sg157
S'-99'
p1315
sg159
g160
sg161
S'-99.99'
p1316
sg163
F0.7446283590092838
sg164
S'5.925'
p1317
sg166
S'10.648'
p1318
sg168
S'59.31'
p1319
sg170
S'SDSSJ105240.79+363953.7'
p1320
sg172
S'0.38'
p1321
sg174
S'36.66494'
p1322
sg176
S'53.784'
p1323
sg178
S'-99.99'
p1324
sg180
S'42'
p1325
sg182
S'39'
p1326
sg184
g160
sg185
S'36'
p1327
sg187
S'-99.99'
p1328
sg189
g1258
sg191
g1259
sg193
F0.08278045582303646
sg194
S'-99.99'
p1329
sg196
g78
sg197
S'15.611'
p1330
sg199
g78
sg201
g1262
sg203
S'-99.99'
p1331
sg205
F600.0
sg206
S'-99.99'
p1332
sg208
g1265
sg210
S'2.6'
p1333
sg212
S'0.0082'
p1334
sg214
g160
sg216
S'-99.99'
p1335
sg218
g160
sg220
S'44.76'
p1336
sg222
g1271
sg224
S'SDSSJ105240.79+363953.7'
p1337
sg226
S'-99.99'
p1338
sg228
g1274
sg230
S'-99.99'
p1339
sg232
g1276
sg234
S'r_sdss_iso'
p1340
sg236
S'r_sdss_pet'
p1341
sg238
g239
sg240
g1279
sg242
g36
sg243
S'1.06'
p1342
sg245
S'-99.99'
p1343
sg247
g160
sg248
g1282
sg250
S"['SDSSJ105240.79+363953.7']"
p1344
sg252
S'163.17'
p1345
sg254
S'-99.99'
p1346
sg256
S'756'
p1347
sg258
S'0.0038'
p1348
sg260
S'67'
p1349
sg262
S'r_sdss_iso'
p1350
sg264
S'0.96'
p1351
sg266
S'-99'
p1352
sg268
S'15.8'
p1353
sg270
S'501'
p1354
sg272
S'114.8'
p1355
sg274
g275
sg276
g1321
sg277
S'0.011'
p1356
sg279
S'-99.99'
p1357
sg281
S'-99.99'
p1358
sg283
S'63.184219'
p1359
sg285
S'-99.99'
p1360
sg287
F54.2
sg288
S'-99.99'
p1361
sg290
S'2.311'
p1362
sa(dp1363
g121
S'52'
p1364
sg123
S'10'
p1365
sg125
S'-99.99'
p1366
sg127
S'-99'
p1367
sg129
F22.9
sg130
F13.191720520349119
sg131
S'35'
p1368
sg133
S'0.002552'
p1369
sg135
g160
sg137
g1235
sg139
S'184.847516'
p1370
sg141
g160
sg143
S'-99.99'
p1371
sg145
S'15.532'
p1372
sg147
g1239
sg149
g1240
sg151
S'15.837'
p1373
sg153
S'14.36'
p1374
sg155
S'16.7496'
p1375
sg157
S'-99'
p1376
sg159
g160
sg161
S'-99.99'
p1377
sg163
F0.5502383365989666
sg164
S'5.583'
p1378
sg166
S'14.366'
p1379
sg168
S'56.93'
p1380
sg170
S'UGC05983'
p1381
sg172
S'0.75'
p1382
sg174
S'36.59451'
p1383
sg176
S'40.236'
p1384
sg178
S'-99.99'
p1385
sg180
S'96'
p1386
sg182
S'35'
p1387
sg184
g160
sg185
S'36'
p1388
sg187
S'-99.99'
p1389
sg189
g1258
sg191
g1259
sg193
F0.03177490702852671
sg194
S'-99.99'
p1390
sg196
g381
sg197
S'15.79'
p1391
sg199
g78
sg201
g1262
sg203
S'-99.99'
p1392
sg205
F600.0
sg206
S'-99.99'
p1393
sg208
g1265
sg210
S'3.8'
p1394
sg212
S'0.011'
p1395
sg214
S'DWARF'
p1396
sg216
S'-99.99'
p1397
sg218
g160
sg220
S'66.54'
p1398
sg222
g1271
sg224
S'UGC05983'
p1399
sg226
S'-99.99'
p1400
sg228
g1274
sg230
S'-99.99'
p1401
sg232
g1276
sg234
S'r_sdss_iso'
p1402
sg236
S'poss_103a-O'
p1403
sg238
g239
sg240
g1279
sg242
g36
sg243
S'1.43'
p1404
sg245
S'-99.99'
p1405
sg247
g160
sg248
g1282
sg250
S"['UGC05983', 'SDSSJ105216.74+363540.2']"
p1406
sg252
S'163.06979'
p1407
sg254
S'-99.99'
p1408
sg256
S'1020'
p1409
sg258
S'0.0053'
p1410
sg260
S'34'
p1411
sg262
S'poss_103a-O'
p1412
sg264
S'0.87'
p1413
sg266
S'-99'
p1414
sg268
S'16.1'
p1415
sg270
S'765'
p1416
sg272
S'80.16'
p1417
sg274
g275
sg276
g1382
sg277
S'0.011'
p1418
sg279
S'-99.99'
p1419
sg281
S'-99.99'
p1420
sg283
S'63.12044'
p1421
sg285
S'-99.99'
p1422
sg287
F59.7
sg288
S'-99.99'
p1423
sg290
S'4.634'
p1424
saa(lp1425
(dp1426
g121
S'52'
p1427
sg123
S'10'
p1428
sg125
S'-99.99'
p1429
sg127
S'-99'
p1430
sg129
F21.742
sg130
F25.119044488853472
sg131
S'66'
p1431
sg133
S'0.001947'
p1432
sg135
g160
sg137
S'6.5'
p1433
sg139
S'184.751984'
p1434
sg141
g160
sg143
S'-99.99'
p1435
sg145
S'12.132'
p1436
sg147
S'Lya'
p1437
sg149
S'3.9'
p1438
sg151
S'11.796'
p1439
sg153
S'11.81'
p1440
sg155
S'33.1392'
p1441
sg157
S'-99'
p1442
sg159
g160
sg161
S'-99.99'
p1443
sg163
F0.8369488810215759
sg164
S'8.577'
p1444
sg166
S'11.817'
p1445
sg168
S'76.56'
p1446
sg170
S'SDSSJ105233.13+363736.7'
p1447
sg172
S'0.44'
p1448
sg174
S'36.62689'
p1449
sg176
S'36.804'
p1450
sg178
S'-99.99'
p1451
sg180
S'41'
p1452
sg182
S'37'
p1453
sg184
g160
sg185
S'36'
p1454
sg187
S'-99.99'
p1455
sg189
S'129'
p1456
sg191
S'30'
p1457
sg193
F0.42889834475202515
sg194
S'-99.99'
p1458
sg196
g239
sg197
S'13.064'
p1459
sg199
S'7'
p1460
sg201
S'4.33E+13'
p1461
sg203
S'-99.99'
p1462
sg205
F662.0
sg206
S'-99.99'
p1463
sg208
S'2.62E+14'
p1464
sg210
S'0.98'
p1465
sg212
S'0.079'
p1466
sg214
S'WR?_HII'
p1467
sg216
S'-99.99'
p1468
sg218
g160
sg220
S'65.87'
p1469
sg222
S'585'
p1470
sg224
S'SDSSJ105233.13+363736.7'
p1471
sg226
S'-99.99'
p1472
sg228
S'36.67777777777778'
p1473
sg230
S'-99.99'
p1474
sg232
S'0.60999'
p1475
sg234
S'r_sdss_iso'
p1476
sg236
S'r_sdss_iso'
p1477
sg238
g239
sg240
S'77.5'
p1478
sg242
g37
sg243
S'1.18'
p1479
sg245
S'-99.99'
p1480
sg247
g160
sg248
S'163.02291666666667'
p1481
sg250
S"['SDSSJ105233.13+363736.7']"
p1482
sg252
S'163.13808'
p1483
sg254
S'-99.99'
p1484
sg256
S'839'
p1485
sg258
S'0.036'
p1486
sg260
S'64'
p1487
sg262
S'r_sdss_iso'
p1488
sg264
S'0.95'
p1489
sg266
S'-99'
p1490
sg268
S'13.6'
p1491
sg270
S'584'
p1492
sg272
S'149.7'
p1493
sg274
g275
sg276
g1448
sg277
S'0.011'
p1494
sg279
S'-99.99'
p1495
sg281
S'-99.99'
p1496
sg283
S'63.167249'
p1497
sg285
S'-99.99'
p1498
sg287
F77.9
sg288
S'-99.99'
p1499
sg290
S'3.774'
p1500
sa(dp1501
g121
S'52'
p1502
sg123
S'10'
p1503
sg125
S'-99.99'
p1504
sg127
S'-99'
p1505
sg129
F22.9
sg130
F13.191720520349119
sg131
S'35'
p1506
sg133
S'0.002552'
p1507
sg135
g160
sg137
g1433
sg139
S'184.847516'
p1508
sg141
g160
sg143
S'-99.99'
p1509
sg145
S'15.532'
p1510
sg147
g1437
sg149
g1438
sg151
S'15.837'
p1511
sg153
S'14.36'
p1512
sg155
S'16.7496'
p1513
sg157
S'-99'
p1514
sg159
g160
sg161
S'-99.99'
p1515
sg163
F0.7178118760414696
sg164
S'5.583'
p1516
sg166
S'14.366'
p1517
sg168
S'56.93'
p1518
sg170
S'UGC05983'
p1519
sg172
S'0.75'
p1520
sg174
S'36.59451'
p1521
sg176
S'40.236'
p1522
sg178
S'-99.99'
p1523
sg180
S'96'
p1524
sg182
S'35'
p1525
sg184
g160
sg185
S'36'
p1526
sg187
S'-99.99'
p1527
sg189
g1456
sg191
g1457
sg193
F0.0414518656881838
sg194
S'-99.99'
p1528
sg196
g381
sg197
S'15.79'
p1529
sg199
g1460
sg201
g1461
sg203
S'-99.99'
p1530
sg205
F662.0
sg206
S'-99.99'
p1531
sg208
g1464
sg210
S'3.8'
p1532
sg212
S'0.011'
p1533
sg214
S'DWARF'
p1534
sg216
S'-99.99'
p1535
sg218
g160
sg220
S'66.54'
p1536
sg222
g1470
sg224
S'UGC05983'
p1537
sg226
S'-99.99'
p1538
sg228
g1473
sg230
S'-99.99'
p1539
sg232
g1475
sg234
S'r_sdss_iso'
p1540
sg236
S'poss_103a-O'
p1541
sg238
g239
sg240
g1478
sg242
g37
sg243
S'1.43'
p1542
sg245
S'-99.99'
p1543
sg247
g160
sg248
g1481
sg250
S"['UGC05983', 'SDSSJ105216.74+363540.2']"
p1544
sg252
S'163.06979'
p1545
sg254
S'-99.99'
p1546
sg256
S'1020'
p1547
sg258
S'0.0053'
p1548
sg260
S'34'
p1549
sg262
S'poss_103a-O'
p1550
sg264
S'0.87'
p1551
sg266
S'-99'
p1552
sg268
S'16.1'
p1553
sg270
S'765'
p1554
sg272
S'80.16'
p1555
sg274
g275
sg276
g1520
sg277
S'0.011'
p1556
sg279
S'-99.99'
p1557
sg281
S'-99.99'
p1558
sg283
S'63.12044'
p1559
sg285
S'-99.99'
p1560
sg287
F59.7
sg288
S'-99.99'
p1561
sg290
S'4.634'
p1562
sa(dp1563
g121
S'52'
p1564
sg123
S'10'
p1565
sg125
S'-99.99'
p1566
sg127
S'-99'
p1567
sg129
F22.037
sg130
F14.42223381189613
sg131
S'70'
p1568
sg133
S'0.001671'
p1569
sg135
g160
sg137
g1433
sg139
S'184.657548'
p1570
sg141
g160
sg143
S'-99.99'
p1571
sg145
S'15.698'
p1572
sg147
g1437
sg149
g1438
sg151
S'18.915'
p1573
sg153
S'10.64'
p1574
sg155
S'40.8'
p1575
sg157
S'-99'
p1576
sg159
g160
sg161
S'-99.99'
p1577
sg163
F0.5753423454087648
sg164
S'5.925'
p1578
sg166
S'10.648'
p1579
sg168
S'59.31'
p1580
sg170
S'SDSSJ105240.79+363953.7'
p1581
sg172
S'0.38'
p1582
sg174
S'36.66494'
p1583
sg176
S'53.784'
p1584
sg178
S'-99.99'
p1585
sg180
S'42'
p1586
sg182
S'39'
p1587
sg184
g160
sg185
S'36'
p1588
sg187
S'-99.99'
p1589
sg189
g1456
sg191
g1457
sg193
F0.06396090214801857
sg194
S'-99.99'
p1590
sg196
g78
sg197
S'15.611'
p1591
sg199
g1460
sg201
g1461
sg203
S'-99.99'
p1592
sg205
F662.0
sg206
S'-99.99'
p1593
sg208
g1464
sg210
S'2.6'
p1594
sg212
S'0.0082'
p1595
sg214
g160
sg216
S'-99.99'
p1596
sg218
g160
sg220
S'44.76'
p1597
sg222
g1470
sg224
S'SDSSJ105240.79+363953.7'
p1598
sg226
S'-99.99'
p1599
sg228
g1473
sg230
S'-99.99'
p1600
sg232
g1475
sg234
S'r_sdss_iso'
p1601
sg236
S'r_sdss_pet'
p1602
sg238
g239
sg240
g1478
sg242
g37
sg243
S'1.06'
p1603
sg245
S'-99.99'
p1604
sg247
g160
sg248
g1481
sg250
S"['SDSSJ105240.79+363953.7']"
p1605
sg252
S'163.17'
p1606
sg254
S'-99.99'
p1607
sg256
S'756'
p1608
sg258
S'0.0038'
p1609
sg260
S'67'
p1610
sg262
S'r_sdss_iso'
p1611
sg264
S'0.96'
p1612
sg266
S'-99'
p1613
sg268
S'15.8'
p1614
sg270
S'501'
p1615
sg272
S'114.8'
p1616
sg274
g275
sg276
g1582
sg277
S'0.011'
p1617
sg279
S'-99.99'
p1618
sg281
S'-99.99'
p1619
sg283
S'63.184219'
p1620
sg285
S'-99.99'
p1621
sg287
F54.2
sg288
S'-99.99'
p1622
sg290
S'2.311'
p1623
saa(lp1624
(dp1625
g121
S'29'
p1626
sg123
S'12'
p1627
sg125
S'14.6'
p1628
sg127
S'-99'
p1629
sg129
F170.98
sg130
F28.659042240190093
sg131
S'62'
p1630
sg133
S'0.005254'
p1631
sg135
S'B_(Johnson)'
p1632
sg137
S'3.6'
p1633
sg139
S'289.589197'
p1634
sg141
S'B_(Johnson)'
p1635
sg143
S'-99.99'
p1636
sg145
S'14.741'
p1637
sg147
S'Lya'
p1638
sg149
S'2.2'
p1639
sg151
S'14.788'
p1640
sg153
S'14.6'
p1641
sg155
S'2.1408'
p1642
sg157
S'145'
p1643
sg159
S'TF'
p1644
sg161
S'0.094'
p1645
sg163
F0.012059659186678165
sg164
S'9.365'
p1646
sg166
S'26.341'
p1647
sg168
S'81.35'
p1648
sg170
S'UGC07612'
p1649
sg172
S'4.2'
p1650
sg174
S'2.72319'
p1651
sg176
S'23.484'
p1652
sg178
S'24.25'
p1653
sg180
S'145'
p1654
sg182
S'43'
p1655
sg184
S'LC_V'
p1656
sg185
g200
sg187
S'0.058'
p1657
sg189
S'70'
p1658
sg191
g200
sg193
F3.48246847100843e-16
sg194
S'0.54'
p1659
sg196
g381
sg197
S'14.993'
p1660
sg199
g78
sg201
S'1.05E+12'
p1661
sg203
S'14.4'
p1662
sg205
F1580.0
sg206
S'14.6'
p1663
sg208
S'1.43E+14'
p1664
sg210
S'9.6'
p1665
sg212
S'0.025'
p1666
sg214
S'Sm:_HII'
p1667
sg216
S'14.1'
p1668
sg218
S'B_(B_T^0)'
p1669
sg220
S'66.15'
p1670
sg222
S'369'
p1671
sg224
S'UGC07612'
p1672
sg226
S'33.9'
p1673
sg228
S'2.0525'
p1674
sg230
S'15.1'
p1675
sg232
S'0.15834'
p1676
sg234
S'poss_103a-O'
p1677
sg236
S'poss_103a-O'
p1678
sg238
g239
sg240
S'42'
p1679
sg242
g38
sg243
S'9.65'
p1680
sg245
S'0.23'
p1681
sg247
S'.S..9*.'
p1682
sg248
S'187.27791666666667'
p1683
sg250
S"['UGC07612', 'SDSSJ122901.87+024324.6']"
p1684
sg252
S'187.25892'
p1685
sg254
S'0.17'
p1686
sg256
S'1870'
p1687
sg258
S'0.076'
p1688
sg260
S'60'
p1689
sg262
S'poss_103a-O'
p1690
sg264
S'1.3'
p1691
sg266
S'-99'
p1692
sg268
S'15.3'
p1693
sg270
S'1575'
p1694
sg272
S'132.3'
p1695
sg274
g275
sg276
g1650
sg277
S'0.0153'
p1696
sg279
S'0.074'
p1697
sg281
S'9.65'
p1698
sg283
S'65.012984'
p1699
sg285
S'128.28'
p1700
sg287
F33.4
sg288
S'0.031'
p1701
sg290
S'4.682'
p1702
sa(dp1703
g121
S'34'
p1704
sg123
S'12'
p1705
sg125
S'14.9'
p1706
sg127
S'170002'
p1707
sg129
F348.733
sg130
F161.20465603697681
sg131
S'61'
p1708
sg133
S'0.006031'
p1709
sg135
S'B'
p1710
sg137
g1633
sg139
S'292.949501'
p1711
sg141
S'B_(B_T)'
p1712
sg143
S'21'
p1713
sg145
S'12'
p1714
sg147
g1638
sg149
g1639
sg151
S'11.106'
p1715
sg153
S'14.9'
p1716
sg155
S'27.0504'
p1717
sg157
S'130'
p1718
sg159
S'Ceph'
p1719
sg161
S'1.0'
p1720
sg163
F0.010222134558636723
sg164
S'29.62'
p1721
sg166
S'29.614'
p1722
sg168
S'180.05'
p1723
sg170
S'NGC4536'
p1724
sg172
S'2.9'
p1725
sg174
S'2.18814'
p1726
sg176
S'17.304'
p1727
sg178
S'15.363'
p1728
sg180
S'95'
p1729
sg182
S'11'
p1730
sg184
S'LC_II-III'
p1731
sg185
g200
sg187
S'2.0'
p1732
sg189
g1658
sg191
g200
sg193
F0.0040397067303238445
sg194
S'0.43'
p1733
sg196
g183
sg197
S'13.181'
p1734
sg199
g78
sg201
g1661
sg203
S'10.6'
p1735
sg205
F1580.0
sg206
S'8.67'
p1736
sg208
g1664
sg210
S'11.0'
p1737
sg212
S'0.11'
p1738
sg214
S'SAB(rs)bc;HII_Sbrst'
p1739
sg216
S'9.89'
p1740
sg218
S'B_(B_T^0)'
p1741
sg220
S'213.2'
p1742
sg222
g1671
sg224
S'NGC4536'
p1743
sg226
S'28.0'
p1744
sg228
g1674
sg230
S'11.2'
p1745
sg232
g1676
sg234
S'K_lga2mass_tot'
p1746
sg236
S'K_lga2mass_tot'
p1747
sg238
g239
sg240
g1679
sg242
g38
sg243
S'2.83'
p1748
sg245
S'3.3'
p1749
sg247
S'.SXT4..'
p1750
sg248
g1683
sg250
S"['NGC4536', 'UGC07732', '2MASXJ12342712+0211163', 'SDSSJ123427.04+021117.2']"
p1751
sg252
S'188.61271'
p1752
sg254
S'1.8'
p1753
sg256
S'2103'
p1754
sg258
S'0.093'
p1755
sg260
S'59'
p1756
sg262
S'K_lga2mass_tot'
p1757
sg264
S'21.0'
p1758
sg266
g79
sg268
S'13.8'
p1759
sg270
S'1808'
p1760
sg272
S'410.0'
p1761
sg274
g275
sg276
g1725
sg277
S'0.0157'
p1762
sg279
S'3.8'
p1763
sg281
S'2.83'
p1764
sg283
S'64.730132'
p1765
sg285
S'455.15'
p1766
sg287
F10.8
sg288
S'1.2'
p1767
sg290
S'15.4'
p1768
sa(dp1769
g121
S'29'
p1770
sg123
S'12'
p1771
sg125
S'-99.99'
p1772
sg127
S'-99'
p1773
sg129
F94.177
sg130
F8.49394836027392
sg131
S'62'
p1774
sg133
S'0.005966'
p1775
sg135
S'B_(LCO)'
p1776
sg137
g1633
sg139
S'290.374472'
p1777
sg141
S'b_J'
p1778
sg143
S'-99.99'
p1779
sg145
S'16.674'
p1780
sg147
g1638
sg149
g1639
sg151
S'16.08'
p1781
sg153
S'29.34'
p1782
sg155
S'50.58'
p1783
sg157
S'-99'
p1784
sg159
g160
sg161
S'0.0049'
p1785
sg163
F0.008208797592961007
sg164
S'4.163'
p1786
sg166
S'29.346'
p1787
sg168
S'46.49'
p1788
sg170
S'2PIGGNGPGALB+3.26065+0.04028'
p1789
sg172
S'0.31'
p1790
sg174
S'2.03158'
p1791
sg176
S'53.688'
p1792
sg178
S'-99.99'
p1793
sg180
S'152'
p1794
sg182
g78
sg184
g160
sg185
g200
sg187
S'0.012'
p1795
sg189
g1658
sg191
g200
sg193
F2.0281730513626653e-54
sg194
S'-99.99'
p1796
sg196
g200
sg197
S'17.204'
p1797
sg199
g78
sg201
g1661
sg203
S'17.6'
p1798
sg205
F1580.0
sg206
S'-99.99'
p1799
sg208
g1664
sg210
S'0.67'
p1800
sg212
S'0.012'
p1801
sg214
g160
sg216
S'17.6'
p1802
sg218
S'B_(LCO)'
p1803
sg220
S'14.63'
p1804
sg222
g1671
sg224
S'SDSSJ122950.57+020153.7'
p1805
sg226
S'-99.99'
p1806
sg228
g1674
sg230
S'17.8'
p1807
sg232
g1676
sg234
S'r_sdss_iso'
p1808
sg236
S'r_sdss_iso'
p1809
sg238
g239
sg240
g1679
sg242
g38
sg243
S'2.93'
p1810
sg245
S'0.0054'
p1811
sg247
g160
sg248
g1683
sg250
S"['SDSSJ122950.57+020153.7']"
p1812
sg252
S'187.46075'
p1813
sg254
S'0.0054'
p1814
sg256
S'2084'
p1815
sg258
S'0.0057'
p1816
sg260
S'60'
p1817
sg262
S'r_sdss_iso'
p1818
sg264
S'0.32'
p1819
sg266
S'-99'
p1820
sg268
S'17.6'
p1821
sg270
S'1789'
p1822
sg272
S'29.26'
p1823
sg274
g275
sg276
g1790
sg277
S'0.0165'
p1824
sg279
S'0.012'
p1825
sg281
S'-99.99'
p1826
sg283
S'64.375538'
p1827
sg285
S'-99.99'
p1828
sg287
F55.5
sg288
S'0.01'
p1829
sg290
S'2.082'
p1830
saas.