(dp0
S'Vhels'
p1
(lp2
F1284.0
aF1284.0
aF7312.0
aF616.0
aF616.0
aF1736.0
aF2410.0
asS'impacts'
p3
(lp4
F100.931
aF100.931
aF366.291
aF20.517
aF20.517
aF330.608
aF247.452
asS'group_dists'
p5
(lp6
F14.9
aF14.9
aF76.7
aF8.9
aF8.9
aF21.0
aF25.7
asS'MTypes'
p7
(lp8
S'E+0-1_pec;NLRG_Sy'
p9
aS'E+0-1_pec;NLRG_Sy'
p10
aS'SA(s)0^0^:'
p11
aS'SB(s)m;LINER_HII'
p12
aS'SB(s)m;LINER_HII'
p13
aS'SAB(s)bc;HII_LINER'
p14
aS'SA(s)a_Sy1'
p15
asS'e_Lya_Ws'
p16
(lp17
F20.0
aF16.0
aF9.0
aF25.0
aF30.0
aF2.0
aF5.0
asS'e_Lstar_sdsss'
p18
(lp19
F3.3
aF3.3
aF0.49
aF-99.99
aF-99.99
aF-99.99
aF0.59
asS'Bmag_sdsss'
p20
(lp21
F10.0
aF10.0
aF15.2
aF-99.99
aF-99.99
aF-99.99
aF13.1
asS'Nas'
p22
(lp23
F46400000000000.0
aF235000000000000.0
aF10700000000000.0
aF262000000000000.0
aF262000000000000.0
aF143000000000000.0
aF6410000000000.0
asS'Lya_Ws'
p24
(lp25
F176.0
aF525.0
aF51.0
aF568.0
aF585.0
aF369.0
aF31.0
asS'bestDists'
p26
(lp27
F16.4
aF16.4
aF110.0
aF11.3
aF11.3
aF13.6
aF18.4
asS'adjustedIncs'
p28
(lp29
F31.0
aF31.0
aF17.0
aF90.0
aF90.0
aF74.0
aF74.0
asS'targets'
p30
(lp31
S'MS1228.6+1219'
p32
aS'MS1228.6+1219'
p33
aS'RX_J1236.0+2641'
p34
aS'CSO295'
p35
aS'CSO295'
p36
aS'3C273.0'
p37
aS'PG1216+069'
p38
asS'e_bs'
p39
(lp40
F2.4
aF1.4
aF3.0
aF3.7
aF3.9
aF2.2
aF1.4
asS'incs'
p41
(lp42
F31.0
aF31.0
aF16.0
aF78.0
aF78.0
aF70.0
aF70.0
asS'azimuths'
p43
(lp44
F11.1
aF11.1
aF45.7
aF81.6
aF81.6
aF5.6
aF85.3
asS'group_nums'
p45
(lp46
S'100002'
p47
aS'100002'
p48
aS'100082'
p49
aS'112910'
p50
aS'112910'
p51
aS'170002'
p52
aS'120002'
p53
asS'Ws'
p54
(lp55
F57.5
aF94.4
aF34.6
aF106.8
aF129.0
aF70.0
aF22.7
asS'ls'
p56
(lp57
F0.19277267513827911
aF0.7943400512297468
aF0.05953674544917223
aF0.9804125209542504
aF0.9358670472419909
aF0.023991275666620748
aF0.025568341864647147
asS'Lya_vs'
p58
(lp59
F1046.0
aF1286.0
aF7223.0
aF600.0
aF662.0
aF1580.0
aF2548.0
asS'R_virs'
p60
(lp61
F210.39
aF210.39
aF226.16
aF177.36
aF177.36
aF187.12
aF138.54
asS'Bmags'
p62
(lp63
F9.59
aF9.59
aF14.3
aF11.7
aF11.7
aF11.4
aF12.6
asS'cuss'
p64
(lp65
F226.1579981517346
aF226.1579981517346
aF264.6439567569983
aF156.0082523201898
aF156.0082523201898
aF175.280107165645
aF91.1925083326476
asS'vcorrs'
p66
(lp67
F1584.0
aF1584.0
aF7603.0
aF871.0
aF871.0
aF2031.0
aF2708.0
asS'e_Nas'
p68
(lp69
F6410000000000.0
aF28400000000000.0
aF2010000000000.0
aF42500000000000.0
aF43300000000000.0
aF1050000000000.0
aF1030000000000.0
asS'e_bestDists'
p70
(lp71
F2.79
aF2.79
aF7.34
aF4.21
aF4.21
aF3.3
aF8.02
asS'group_mems'
p72
(lp73
S'197'
p74
aS'197'
p75
aS'12'
p76
aS'1'
p77
ag77
aS'4'
p78
aS'39'
p79
asS'e_Lstar_meds'
p80
(lp81
F4.8
aF4.8
aF1.2
aF0.72
aF0.72
aF0.91
aF1.0
asS'Dec_targets'
p82
(lp83
F12.051944444444445
aF12.051944444444445
aF26.693333333333335
aF36.67777777777778
aF36.67777777777778
aF2.0525
aF6.643888888888889
asS'PAs'
p84
(lp85
F153.0
aF153.0
aF90.0
aF43.0
aF43.0
aF70.0
aF50.0
asS'Lstar_meds'
p86
(lp87
F6.2
aF6.2
aF3.8
aF0.42
aF0.42
aF0.81
aF0.5
asS'RA_galaxies'
p88
(lp89
F187.70593
aF187.70593
aF189.16625
aF163.12971
aF163.12971
aF188.53509
aF184.29117
asS'bs'
p90
(lp91
F34.5
aF56.7
aF20.8
aF64.1
aF77.5
aF42.0
aF13.6
asS'e_Ws'
p92
(lp93
F3.9
aF2.4
aF5.0
aF6.1
aF6.5
aF3.6
aF2.4
asS'Dec_galaxies'
p94
(lp95
F12.39112
aF12.39112
aF26.82994
aF36.61878
aF36.61878
aF2.65366
aF7.19158
asS'MajDiams'
p96
(lp97
F37.12
aF37.12
aF41.22
aF28.98
aF28.98
aF31.32
aF20.26
asS'RA_targets'
p98
(lp99
F187.80458333333334
aF187.80458333333334
aF189.01708333333332
aF163.02291666666667
aF163.02291666666667
aF187.27791666666667
aF184.83708333333334
asS'e_Lya_vs'
p100
(lp101
F2.0
aF2.0
aF1.0
aF1.0
aF7.0
aF1.0
aF4.0
asS'z_targets'
p102
(lp103
F0.11612
aF0.11612
aF0.20915
aF0.60999
aF0.60999
aF0.15834
aF0.3313
asS'Lstar_sdsss'
p104
(lp105
F4.2
aF4.2
aF1.6
aF-99.99
aF-99.99
aF-99.99
aF0.29
asS'Names'
p106
(lp107
S'NGC4486'
p108
aS'NGC4486'
p109
aS'IC3585'
p110
aS'NGC3432'
p111
aS'NGC3432'
p112
aS'NGC4527'
p113
aS'NGC4235'
p114
asS'l_cuss'
p115
(lp116
F0.19883685626508646
aF0.8193281463707167
aF0.12078664404544016
aF0.9765830553408188
aF0.9322115750814878
aF0.015513641382541077
aF0.00039396463280967316
asS'others'
p117
(lp118
(lp119
(dp120
S'RAm'
p121
S'31'
p122
sS'RAh'
p123
S'12'
p124
sS'RID_median'
p125
S'-99.99'
p126
sS'group_num'
p127
S'100002'
p128
sS'impact'
p129
F143.636
sS'cus'
p130
F50.099014750791255
sS'adjustedInc'
p131
S'71'
p132
sS'z'
p133
S'0.003486'
p134
sS'Bmag_max_key'
p135
S'B_(B_T)'
p136
sS'e_W'
p137
S'3.9'
p138
sS'GLON'
p139
S'285.201512'
p140
sS'Bmag_min_key'
p141
S'B_(m_B)'
p142
sS'group_dist'
p143
S'14.9'
p144
sS'rmag_sdss'
p145
S'12.506'
p146
sS'identified'
p147
S'Lya'
p148
sS'e_b'
p149
S'2.4'
p150
sS'zmag_sdss'
p151
S'11.947'
p152
sS'bestDist'
p153
S'18.94'
p154
sS'RAs'
p155
S'32.5272'
p156
sS'RC3_pa'
p157
S'65'
p158
sS'distIndicator'
p159
S'x'
p160
sS'e_Lstar_min'
p161
S'0.12'
p162
sS'l'
p163
F0.15490468605143468
sS'MajDiam'
p164
S'13.59'
p165
sS'distvcorr'
p166
S'18.942'
p167
sS'R_vir'
p168
S'105.18'
p169
sS'Name'
p170
S'NGC4497'
p171
sS'e_MajDiam'
p172
S'0.52'
p173
sS'DEdeg'
p174
S'11.62472'
p175
sS'DEs'
p176
S'28.992'
p177
sS'RID_mean'
p178
S'-99.99'
p179
sS'PA'
p180
S'75'
p181
sS'DEm'
p182
S'37'
p183
sS'lumClass'
p184
g160
sS'DEd'
p185
S'11'
p186
sS'Lstar_med'
p187
S'0.3'
p188
sS'W'
p189
S'57.5'
p190
sS'e_Lya_W'
p191
S'20'
p192
sS'l_cus'
p193
F0.0002692265924263614
sS'RC3_r25'
p194
S'0.46'
p195
sS'e_inc'
p196
S'2'
p197
sS'gmag_sdss'
p198
S'13.215'
p199
sS'e_Lya_v'
p200
g197
sS'e_Na'
p201
S'6.41E+12'
p202
sS'Bmag'
p203
S'13.2'
p204
sS'Lya_v'
p205
F1046.0
sS'RID_min'
p206
S'-99.99'
p207
sS'Na'
p208
S'4.64E+13'
p209
sS'e_MinDiam_ang'
p210
S'2.8'
p211
sS'Lstar_sdss'
p212
S'0.2'
p213
sS'MType'
p214
S'SAB(s)0+:'
p215
sS'Bmag_max'
p216
S'13.2'
p217
sS'Bmag_key'
p218
S'B_(B_T^0)'
p219
sS'MinDiam_ang'
p220
S'56.24'
p221
sS'Lya_W'
p222
S'176'
p223
sS'NEDname'
p224
S'NGC4497'
p225
sS'RID_max'
p226
S'-99.99'
p227
sS'Dec_target'
p228
S'12.051944444444445'
p229
sS'Bmag_min'
p230
S'13.4'
p231
sS'z_target'
p232
S'0.11612'
p233
sS'paKey'
p234
S'K_2mass_tot'
p235
sS'diameterKey'
p236
S'K_2mass_tot'
p237
sS'flag'
p238
S'0'
p239
sS'b'
p240
S'34.5'
p241
sS'target'
p242
g32
sS'e_bestDist'
p243
S'1.89'
p244
sS'e_Lstar_max'
p245
S'0.15'
p246
sS'RC3_type'
p247
S'.LXS+*.'
p248
sS'RA_target'
p249
S'187.80458333333334'
p250
sS'altNames'
p251
S"['NGC4497', 'IC3452', 'UGC07665', '2MASXJ12313253+1137291', 'SDSSJ123132.52+113728.9']"
p252
sS'RAdeg'
p253
S'187.88553'
p254
sS'e_Lstar_med'
p255
S'0.14'
p256
sS'vcorr'
p257
S'1345'
p258
sS'e_Lstar_sdss'
p259
S'0.093'
p260
sS'inc'
p261
S'68'
p262
sS'ratioKey'
p263
S'K_2mass_tot'
p264
sS'e_MajDiam_ang'
p265
S'7.4'
p266
sS'group_mem'
p267
S'197'
p268
sS'Bmag_sdss'
p269
S'13.7'
p270
sS'Vhel'
p271
S'1045'
p272
sS'MajDiam_ang'
p273
S'148.0'
p274
sS'DE-'
p275
S'+'
p276
sS'e_MinDiam'
p277
g173
sS'E(B-V)'
p278
S'0.0369'
p279
sS'Lstar_max'
p280
S'0.31'
p281
sS'RID_std'
p282
S'-99.99'
p283
sS'GLAT'
p284
S'73.807687'
p285
sS'RC3_d25'
p286
S'122.5'
p287
sS'azimuth'
p288
F85.5
sS'Lstar_min'
p289
S'0.25'
p290
sS'MinDiam'
p291
S'5.165'
p292
sa(dp293
g121
S'31'
p294
sg123
S'12'
p295
sg125
S'-99.99'
p296
sg127
S'-99'
p297
sg129
F22.059
sg130
F4.134459937646028
sg131
S'50'
p298
sg133
S'0.002591'
p299
sg135
S'B_t'
p300
sg137
g138
sg139
S'284.766394'
p301
sg141
S'B_J_25'
p302
sg143
S'-99.99'
p303
sg145
S'16.371'
p304
sg147
g148
sg149
g150
sg151
S'16.007'
p305
sg153
S'15.16'
p306
sg155
S'33.3528'
p307
sg157
S'-99'
p308
sg159
g160
sg161
S'0.0018'
p309
sg163
F0.10587677862750439
sg164
S'2.576'
p310
sg166
S'15.168'
p311
sg168
S'33.39'
p312
sg170
S'PGC041458'
p313
sg172
S'0.22'
p314
sg174
S'12.06378'
p315
sg176
S'49.608'
p316
sg178
S'-99.99'
p317
sg180
S'154'
p318
sg182
S'3'
p319
sg184
g160
sg185
S'12'
p320
sg187
S'0.0064'
p321
sg189
g190
sg191
g192
sg193
F7.104062631394904e-14
sg194
S'-99.99'
p322
sg196
g77
sg198
S'16.991'
p323
sg200
g197
sg201
g202
sg203
S'16.9'
p324
sg205
F1046.0
sg206
S'-99.99'
p325
sg208
g209
sg210
S'0.58'
p326
sg212
S'0.004'
p327
sg214
S'dE6,N'
p328
sg216
S'16.8'
p329
sg218
S'B_tot__(INT/WFC)'
p330
sg220
S'23.12'
p331
sg222
g223
sg224
S'VCC1369'
p332
sg226
S'-99.99'
p333
sg228
g229
sg230
S'17.4'
p334
sg232
g233
sg234
S'r_sdss_iso'
p335
sg236
S'r_sdss_iso'
p336
sg238
g239
sg240
g241
sg242
g32
sg243
S'1.51'
p337
sg245
S'0.0033'
p338
sg247
g160
sg249
g250
sg251
S"['SDSSJ123133.35+120349.5']"
p339
sg253
S'187.88897'
p340
sg255
S'0.0029'
p341
sg257
S'1077'
p342
sg259
S'0.0018'
p343
sg261
S'49'
p344
sg263
S'r_sdss_iso'
p345
sg265
S'0.35'
p346
sg267
S'-99'
p347
sg269
S'17.4'
p348
sg271
S'777'
p349
sg273
S'35.03'
p350
sg275
g276
sg277
g314
sg278
S'0.0242'
p351
sg280
S'0.0069'
p352
sg282
S'-99.99'
p353
sg284
S'74.230105'
p354
sg286
S'-99.99'
p355
sg288
F72.2
sg289
S'0.0039'
p356
sg291
S'1.7'
p357
sa(dp358
g121
S'30'
p359
sg123
S'12'
p360
sg125
S'-99.99'
p361
sg127
S'-99'
p362
sg129
F134.905
sg130
F72.76894534758628
sg131
S'12'
p363
sg133
S'0.0042'
p364
sg135
g160
sg137
g138
sg139
S'283.753686'
p365
sg141
g160
sg143
S'-99.99'
p366
sg145
S'11.752'
p367
sg147
g148
sg149
g150
sg151
S'10.94'
p368
sg153
S'21.95'
p369
sg155
S'47.5512'
p370
sg157
S'-99'
p371
sg159
g160
sg161
S'-99.99'
p372
sg163
F0.10013624810395332
sg164
S'17.43'
p373
sg166
S'21.957'
p374
sg168
S'124.88'
p375
sg170
S'SDSSJ123047.55+122318.1'
p376
sg172
S'1.9'
p377
sg174
S'12.38836'
p378
sg176
S'18.096'
p379
sg178
S'-99.99'
p380
sg180
S'5'
p381
sg182
S'23'
p382
sg184
g160
sg185
S'12'
p383
sg187
S'-99.99'
p384
sg189
g190
sg191
g192
sg193
F0.01034655632516298
sg194
S'-99.99'
p385
sg196
g319
sg198
S'12.544'
p386
sg200
g197
sg201
g202
sg203
S'-99.99'
p387
sg205
F1046.0
sg206
S'-99.99'
p388
sg208
g209
sg210
S'1.3'
p389
sg212
S'0.47'
p390
sg214
g160
sg216
S'-99.99'
p391
sg218
g160
sg220
S'160.5'
p392
sg222
g223
sg224
S'SDSSJ123047.55+122318.1'
p393
sg226
S'-99.99'
p394
sg228
g229
sg230
S'-99.99'
p395
sg232
g233
sg234
S'r_sdss_dev'
p396
sg236
S'r_sdss_pet'
p397
sg238
g239
sg240
g241
sg242
g32
sg243
S'2.19'
p398
sg245
S'-99.99'
p399
sg247
g160
sg249
g250
sg251
S"['SDSSJ123047.55+122318.1']"
p400
sg253
S'187.69813'
p401
sg255
S'-99.99'
p402
sg257
S'1559'
p403
sg259
S'0.22'
p404
sg261
S'12'
p405
sg263
S'r_sdss_dev'
p406
sg265
S'1.3'
p407
sg267
S'-99'
p408
sg269
S'13'
p409
sg271
S'1259'
p410
sg273
S'163.8'
p411
sg275
g276
sg277
g377
sg278
S'0.0196'
p412
sg280
S'-99.99'
p413
sg282
S'-99.99'
p414
sg284
S'74.486215'
p415
sg286
S'-99.99'
p416
sg288
F22.2
sg289
S'-99.99'
p417
sg291
S'17.08'
p418
sa(dp419
g121
S'30'
p420
sg123
S'12'
p421
sg125
S'16.8'
p422
sg127
S'-99'
p423
sg129
F29.438
sg130
F1.991688300663535
sg131
S'61'
p424
sg133
S'0.004183'
p425
sg135
S'B_J_25'
p426
sg137
g138
sg139
S'284.144051'
p427
sg141
S'B_t'
p428
sg143
S'-99.99'
p429
sg145
S'16.681'
p430
sg147
g148
sg149
g150
sg151
S'16.821'
p431
sg153
S'16.8'
p432
sg155
S'48.5208'
p433
sg157
S'-99'
p434
sg159
S'TFest'
p435
sg161
S'0.00049'
p436
sg163
F0.07399083536634846
sg164
S'1.583'
p437
sg166
S'21.886'
p438
sg168
S'23.86'
p439
sg170
S'PGC041360'
p440
sg172
S'0.057'
p441
sg174
S'12.04502'
p442
sg176
S'42.072'
p443
sg178
S'16.9'
p444
sg180
S'78'
p445
sg182
g197
sg184
g160
sg185
S'12'
p446
sg187
S'0.0031'
p447
sg189
g190
sg191
g192
sg193
F4.506852821624547e-96
sg194
S'0.51'
p448
sg196
g197
sg198
S'16.71'
p449
sg200
g197
sg201
g202
sg203
S'17.9'
p450
sg205
F1046.0
sg206
S'16.8'
p451
sg208
g209
sg210
S'0.63'
p452
sg212
S'0.0075'
p453
sg214
S'Blue_Compact_Dwarf'
p454
sg216
S'17.9'
p455
sg218
S'B_J_25'
p456
sg220
S'9.911'
p457
sg222
g223
sg224
S'VCC1313'
p458
sg226
S'17.0'
p459
sg228
g229
sg230
S'18'
p460
sg232
g233
sg234
S'r_sdss_iso'
p461
sg236
S'r_sdss_iso'
p462
sg238
g239
sg240
g241
sg242
g32
sg243
S'0.1'
p463
sg245
S'0.0003'
p464
sg247
S'       '
p465
sg249
g250
sg251
S"['SDSSJ123048.61+120242.8']"
p466
sg253
S'187.70217'
p467
sg255
S'0.0003'
p468
sg257
S'1554'
p469
sg259
S'0.00026'
p470
sg261
S'59'
p471
sg263
S'rc3_dr_25'
p472
sg265
S'0.27'
p473
sg267
S'-99'
p474
sg269
S'16.9'
p475
sg271
S'1254'
p476
sg273
S'19.43'
p477
sg275
g276
sg277
g441
sg278
S'0.0235'
p478
sg280
S'0.0031'
p479
sg282
S'0.1'
p480
sg284
S'74.159451'
p481
sg286
S'13.13'
p482
sg288
F8.0
sg289
S'0.0029'
p483
sg291
S'0.8073'
p484
sa(dp485
g121
S'30'
p486
sg123
S'12'
p487
sg125
S'17.1'
p488
sg127
S'100002'
p489
sg129
F67.818
sg130
F18.8386547290405
sg131
S'38'
p490
sg133
S'0.002528'
p491
sg135
S'B_T__(Johnson)'
p492
sg137
g138
sg139
S'284.03156'
p493
sg141
S'B_(HST)'
p494
sg143
S'14.9'
p495
sg145
S'12.217'
p496
sg147
g148
sg149
g150
sg151
S'11.078'
p497
sg153
S'17.1'
p498
sg155
S'57.7104'
p499
sg157
S'-99'
p500
sg159
S'GCLF'
p501
sg161
S'0.087'
p502
sg163
F0.04522842883697785
sg164
S'7.08'
p503
sg166
S'14.901'
p504
sg168
S'67.07'
p505
sg170
S'NGC4486A'
p506
sg172
S'0.46'
p507
sg174
S'12.27036'
p508
sg176
S'13.296'
p509
sg178
S'16.871'
p510
sg180
g381
sg182
S'16'
p511
sg184
g160
sg185
S'12'
p512
sg187
S'0.26'
p513
sg189
g190
sg191
g192
sg193
F2.9592559063604426e-07
sg194
S'-99.99'
p514
sg196
g381
sg198
S'12.85'
p515
sg200
g197
sg201
g202
sg203
S'13.1'
p516
sg205
F1046.0
sg206
S'15.0'
p517
sg208
g209
sg210
S'3.4'
p518
sg212
S'0.23'
p519
sg214
S'E2'
p520
sg216
S'13.1'
p521
sg218
S'B_T__(Johnson)'
p522
sg220
S'68.32'
p523
sg222
g223
sg224
S'NGC4486A'
p524
sg226
S'18.4'
p525
sg228
g229
sg230
S'13.3'
p526
sg232
g233
sg234
S'K_2mass_tot'
p527
sg236
S'K_2mass_tot'
p528
sg238
g239
sg240
g241
sg242
g32
sg243
S'1.39'
p529
sg245
S'0.099'
p530
sg247
g160
sg249
g250
sg251
S"['NGC4486A', 'UGC07658', '2MASXJ12305772+1216132', 'SDSSJ123057.71+121613.2']"
p531
sg253
S'187.74046'
p532
sg255
S'0.099'
p533
sg257
S'1058'
p534
sg259
S'0.085'
p535
sg261
S'37'
p536
sg263
S'K_2mass_tot'
p537
sg265
S'4.3'
p538
sg267
S'197'
p539
sg269
S'13.3'
p540
sg271
S'758'
p541
sg273
S'85.4'
p542
sg275
g276
sg277
g507
sg278
S'0.0202'
p543
sg280
S'0.26'
p544
sg282
S'1.394'
p545
sg284
S'74.385832'
p546
sg286
S'-99.99'
p547
sg288
F21.0
sg289
S'0.23'
p548
sg291
S'5.664'
p549
saa(lp550
(dp551
g121
S'30'
p552
sg123
S'12'
p553
sg125
S'-99.99'
p554
sg127
S'-99'
p555
sg129
F134.905
sg130
F72.76894534758628
sg131
S'12'
p556
sg133
S'0.0042'
p557
sg135
g160
sg137
S'2.4'
p558
sg139
S'283.753686'
p559
sg141
g160
sg143
S'-99.99'
p560
sg145
S'11.752'
p561
sg147
S'Lya'
p562
sg149
S'1.4'
p563
sg151
S'10.94'
p564
sg153
S'21.95'
p565
sg155
S'47.5512'
p566
sg157
S'-99'
p567
sg159
g160
sg161
S'-99.99'
p568
sg163
F0.3056778408534248
sg164
S'17.43'
p569
sg166
S'21.957'
p570
sg168
S'124.88'
p571
sg170
S'SDSSJ123047.55+122318.1'
p572
sg172
S'1.9'
p573
sg174
S'12.38836'
p574
sg176
S'18.096'
p575
sg178
S'-99.99'
p576
sg180
g381
sg182
S'23'
p577
sg184
g160
sg185
S'12'
p578
sg187
S'-99.99'
p579
sg189
S'94.4'
p580
sg191
S'16'
p581
sg193
F0.031584097243796204
sg194
S'-99.99'
p582
sg196
g319
sg198
S'12.544'
p583
sg200
g197
sg201
S'2.84E+13'
p584
sg203
S'-99.99'
p585
sg205
F1286.0
sg206
S'-99.99'
p586
sg208
S'2.35E+14'
p587
sg210
S'1.3'
p588
sg212
S'0.47'
p589
sg214
g160
sg216
S'-99.99'
p590
sg218
g160
sg220
S'160.5'
p591
sg222
S'525'
p592
sg224
S'SDSSJ123047.55+122318.1'
p593
sg226
S'-99.99'
p594
sg228
S'12.051944444444445'
p595
sg230
S'-99.99'
p596
sg232
S'0.11612'
p597
sg234
S'r_sdss_dev'
p598
sg236
S'r_sdss_pet'
p599
sg238
g239
sg240
S'56.7'
p600
sg242
g33
sg243
S'2.19'
p601
sg245
S'-99.99'
p602
sg247
g160
sg249
S'187.80458333333334'
p603
sg251
S"['SDSSJ123047.55+122318.1']"
p604
sg253
S'187.69813'
p605
sg255
S'-99.99'
p606
sg257
S'1559'
p607
sg259
S'0.22'
p608
sg261
S'12'
p609
sg263
S'r_sdss_dev'
p610
sg265
S'1.3'
p611
sg267
S'-99'
p612
sg269
S'13'
p613
sg271
S'1259'
p614
sg273
S'163.8'
p615
sg275
g276
sg277
g573
sg278
S'0.0196'
p616
sg280
S'-99.99'
p617
sg282
S'-99.99'
p618
sg284
S'74.486215'
p619
sg286
S'-99.99'
p620
sg288
F22.2
sg289
S'-99.99'
p621
sg291
S'17.08'
p622
sa(dp623
g121
S'30'
p624
sg123
S'12'
p625
sg125
S'16.8'
p626
sg127
S'-99'
p627
sg129
F29.438
sg130
F1.991688300663535
sg131
S'61'
p628
sg133
S'0.004183'
p629
sg135
S'B_J_25'
p630
sg137
g558
sg139
S'284.144051'
p631
sg141
S'B_t'
p632
sg143
S'-99.99'
p633
sg145
S'16.681'
p634
sg147
g562
sg149
g563
sg151
S'16.821'
p635
sg153
S'16.8'
p636
sg155
S'48.5208'
p637
sg157
S'-99'
p638
sg159
S'TFest'
p639
sg161
S'0.00049'
p640
sg163
F0.21271244691469227
sg164
S'1.583'
p641
sg166
S'21.886'
p642
sg168
S'23.86'
p643
sg170
S'PGC041360'
p644
sg172
S'0.057'
p645
sg174
S'12.04502'
p646
sg176
S'42.072'
p647
sg178
S'16.9'
p648
sg180
S'78'
p649
sg182
g197
sg184
g160
sg185
S'12'
p650
sg187
S'0.0031'
p651
sg189
g580
sg191
g581
sg193
F1.2956519369264337e-95
sg194
S'0.51'
p652
sg196
g197
sg198
S'16.71'
p653
sg200
g197
sg201
g584
sg203
S'17.9'
p654
sg205
F1286.0
sg206
S'16.8'
p655
sg208
g587
sg210
S'0.63'
p656
sg212
S'0.0075'
p657
sg214
S'Blue_Compact_Dwarf'
p658
sg216
S'17.9'
p659
sg218
S'B_J_25'
p660
sg220
S'9.911'
p661
sg222
g592
sg224
S'VCC1313'
p662
sg226
S'17.0'
p663
sg228
g595
sg230
S'18'
p664
sg232
g597
sg234
S'r_sdss_iso'
p665
sg236
S'r_sdss_iso'
p666
sg238
g239
sg240
g600
sg242
g33
sg243
S'0.1'
p667
sg245
S'0.0003'
p668
sg247
S'       '
p669
sg249
g603
sg251
S"['SDSSJ123048.61+120242.8']"
p670
sg253
S'187.70217'
p671
sg255
S'0.0003'
p672
sg257
S'1554'
p673
sg259
S'0.00026'
p674
sg261
S'59'
p675
sg263
S'rc3_dr_25'
p676
sg265
S'0.27'
p677
sg267
S'-99'
p678
sg269
S'16.9'
p679
sg271
S'1254'
p680
sg273
S'19.43'
p681
sg275
g276
sg277
g645
sg278
S'0.0235'
p682
sg280
S'0.0031'
p683
sg282
S'0.1'
p684
sg284
S'74.159451'
p685
sg286
S'13.13'
p686
sg288
F8.0
sg289
S'0.0029'
p687
sg291
S'0.8073'
p688
sa(dp689
g121
S'30'
p690
sg123
S'12'
p691
sg125
S'16.4'
p692
sg127
S'100002'
p693
sg129
F102.384
sg130
F30.173112234040428
sg131
S'36'
p694
sg133
S'0.0045'
p695
sg135
S'B_(m_B)'
p696
sg137
g558
sg139
S'283.385189'
p697
sg141
S'B_(B_T)'
p698
sg143
S'14.9'
p699
sg145
S'14.046'
p700
sg147
g562
sg149
g563
sg151
S'13.373'
p701
sg153
S'16.4'
p702
sg155
S'17.4168'
p703
sg157
S'140'
p704
sg159
S'SBF'
p705
sg161
S'0.37'
p706
sg163
F0.19990541991855112
sg164
S'9.692'
p707
sg166
S'23.225'
p708
sg168
S'83.3'
p709
sg170
S'NGC4478'
p710
sg172
S'1.3'
p711
sg174
S'12.32855'
p712
sg176
S'42.78'
p713
sg178
S'16.11'
p714
sg180
S'140'
p715
sg182
S'19'
p716
sg184
g160
sg185
S'12'
p717
sg187
S'0.55'
p718
sg189
g580
sg191
g581
sg193
F9.046205293878549e-06
sg194
S'0.85'
p719
sg196
S'6'
p720
sg198
S'14.873'
p721
sg200
g197
sg201
g584
sg203
S'12.2'
p722
sg205
F1286.0
sg206
S'8.87'
p723
sg208
g587
sg210
S'5.0'
p724
sg212
S'0.03'
p725
sg214
S'E2'
p726
sg216
S'12.2'
p727
sg218
S'B_(HST)'
p728
sg220
S'99.96'
p729
sg222
g592
sg224
S'NGC4478'
p730
sg226
S'23.3'
p731
sg228
g595
sg230
S'12.4'
p732
sg232
g597
sg234
S'K_2mass_tot'
p733
sg236
S'K_2mass_tot'
p734
sg238
g239
sg240
g600
sg242
g33
sg243
S'2.74'
p735
sg245
S'0.44'
p736
sg247
S'.E.2...'
p737
sg249
g603
sg251
S"['NGC4478', 'UGC07645', '2MASXJ12301743+1219428', 'SDSSJ123017.41+121942.7']"
p738
sg253
S'187.57257'
p739
sg255
S'0.43'
p740
sg257
S'1649'
p741
sg259
S'0.023'
p742
sg261
S'35'
p743
sg263
S'K_2mass_tot'
p744
sg265
S'6.1'
p745
sg267
S'197'
p746
sg269
S'15.4'
p747
sg271
S'1349'
p748
sg273
S'121.9'
p749
sg275
g276
sg277
g711
sg278
S'0.0207'
p750
sg280
S'0.57'
p751
sg282
S'2.74'
p752
sg284
S'74.392153'
p753
sg286
S'114.33'
p754
sg288
F0.6
sg289
S'0.48'
p755
sg291
S'7.948'
p756
saa(lp757
(dp758
g121
S'36'
p759
sg123
S'12'
p760
sg125
S'-99.99'
p761
sg127
S'-99'
p762
sg129
F131.386
sg130
F25.599397118994816
sg131
S'45'
p763
sg133
S'0.024591'
p764
sg135
g160
sg137
g381
sg139
S'218.322536'
p765
sg141
g160
sg143
S'-99.99'
p766
sg145
S'16.007'
p767
sg147
S'Lya'
p768
sg149
g319
sg151
S'15.395'
p769
sg153
S'107.93'
p770
sg155
S'12.2616'
p771
sg157
S'-99'
p772
sg159
g160
sg161
S'-99.99'
p773
sg163
F0.031770762648058115
sg164
S'8.686'
p774
sg166
S'107.931'
p775
sg168
S'77.23'
p776
sg170
S'IC3565'
p777
sg172
S'0.63'
p778
sg174
S'26.75612'
p779
sg176
S'22.032'
p780
sg178
S'-99.99'
p781
sg180
S'25'
p782
sg182
S'45'
p783
sg184
g160
sg185
S'26'
p784
sg187
S'-99.99'
p785
sg189
S'34.6'
p786
sg191
S'9'
p787
sg193
F2.084658396859238e-12
sg194
S'-99.99'
p788
sg196
g78
sg198
S'16.711'
p789
sg200
g77
sg201
S'2.01E+12'
p790
sg203
S'-99.99'
p791
sg205
F7223.0
sg206
S'-99.99'
p792
sg208
S'1.07E+13'
p793
sg210
S'0.6'
p794
sg212
S'0.25'
p795
sg214
g160
sg216
S'-99.99'
p796
sg218
g160
sg220
S'11.95'
p797
sg222
S'51'
p798
sg224
S'IC3565'
p799
sg226
S'-99.99'
p800
sg228
S'26.693333333333335'
p801
sg230
S'-99.99'
p802
sg232
S'0.20915'
p803
sg234
S'K_2mass_tot'
p804
sg236
S'K_2mass_tot'
p805
sg238
g239
sg240
S'20.8'
p806
sg242
g34
sg243
S'10.79'
p807
sg245
S'-99.99'
p808
sg247
g160
sg249
S'189.01708333333332'
p809
sg251
S"['IC3565', '2MASXJ12361227+2645221', 'SDSSJ123612.26+264521.9']"
p810
sg253
S'189.05109'
p811
sg255
S'-99.99'
p812
sg257
S'7663'
p813
sg259
S'0.12'
p814
sg261
S'44'
p815
sg263
S'r_sdss_iso'
p816
sg265
S'0.83'
p817
sg267
S'-99'
p818
sg269
S'17.2'
p819
sg271
S'7372'
p820
sg273
S'16.6'
p821
sg275
g276
sg277
g778
sg278
S'0.0172'
p822
sg280
S'-99.99'
p823
sg282
S'-99.99'
p824
sg284
S'86.58476'
p825
sg286
S'-99.99'
p826
sg288
F0.8
sg289
S'-99.99'
p827
sg291
S'6.254'
p828
sa(dp829
g121
S'36'
p830
sg123
S'12'
p831
sg125
S'-99.99'
p832
sg127
S'-99'
p833
sg129
F177.718
sg130
F130.05851860989347
sg131
S'77'
p834
sg133
S'0.025151'
p835
sg135
g160
sg137
g381
sg139
S'217.76268'
p836
sg141
g160
sg143
S'-99.99'
p837
sg145
S'-99.99'
p838
sg147
g768
sg149
g319
sg151
S'-99.99'
p839
sg153
S'110.29'
p840
sg155
S'2.2104'
p841
sg157
S'-99'
p842
sg159
g160
sg161
S'-99.99'
p843
sg163
F0.024742850860609622
sg164
S'25.67'
p844
sg166
S'110.297'
p845
sg168
S'163.12'
p846
sg170
S'2MFGC09922'
p847
sg172
S'0.77'
p848
sg174
S'26.78539'
p849
sg176
S'7.404'
p850
sg178
S'-99.99'
p851
sg180
S'25'
p852
sg182
S'47'
p853
sg184
g160
sg185
S'26'
p854
sg187
S'-99.99'
p855
sg189
g786
sg191
g787
sg193
F0.01253286507834713
sg194
S'-99.99'
p856
sg196
g77
sg198
S'-99.99'
p857
sg200
g77
sg201
g790
sg203
S'-99.99'
p858
sg205
F7223.0
sg206
S'-99.99'
p859
sg208
g793
sg210
S'0.72'
p860
sg212
S'-99.99'
p861
sg214
g160
sg216
S'-99.99'
p862
sg218
g160
sg220
S'14.4'
p863
sg222
g798
sg224
S'2MFGC09922'
p864
sg226
S'-99.99'
p865
sg228
g801
sg230
S'-99.99'
p866
sg232
g803
sg234
S'K_2mass_tot'
p867
sg236
S'K_2mass_tot'
p868
sg238
g239
sg240
g806
sg242
g34
sg243
S'11.02'
p869
sg245
S'-99.99'
p870
sg247
g160
sg249
g809
sg251
S"['2MASXJ12360219+2647071', 'SDSSJ123602.20+264707.3']"
p871
sg253
S'189.00921'
p872
sg255
S'-99.99'
p873
sg257
S'7831'
p874
sg259
S'-99.99'
p875
sg261
S'73'
p876
sg263
S'K_2mass_tot'
p877
sg265
S'2.4'
p878
sg267
S'-99'
p879
sg269
S'-99.99'
p880
sg271
S'7540'
p881
sg273
S'48.0'
p882
sg275
g276
sg277
g848
sg278
S'0.0163'
p883
sg280
S'-99.99'
p884
sg282
S'-99.99'
p885
sg284
S'86.551124'
p886
sg286
S'-99.99'
p887
sg288
F29.4
sg289
S'-99.99'
p888
sg291
S'7.7'
p889
sa(dp890
g121
S'35'
p891
sg123
S'12'
p892
sg125
S'110.0'
p893
sg127
S'100082'
p894
sg129
F433.857
sg130
F404.11450691109815
sg131
S'47'
p895
sg133
S'0.024987'
p896
sg135
S'B_(m_B^0)'
p897
sg137
g381
sg139
S'215.636722'
p898
sg141
S'B_(Johnson)'
p899
sg143
S'76.7'
p900
sg145
S'12.94'
p901
sg147
g768
sg149
g319
sg151
S'12.294'
p902
sg153
S'110'
p903
sg155
S'45.8568'
p904
sg157
S'80'
p905
sg159
S'TF'
p906
sg161
S'0.64'
p907
sg163
F0.013724070411467367
sg164
S'54.66'
p908
sg166
S'109.605'
p909
sg168
S'274.78'
p910
sg170
S'NGC4556'
p911
sg172
S'1.7'
p912
sg174
S'26.90889'
p913
sg176
S'32.004'
p914
sg178
S'108.667'
p915
sg180
S'70'
p916
sg182
S'54'
p917
sg184
g160
sg185
S'26'
p918
sg187
S'4.4'
p919
sg189
g786
sg191
g787
sg193
F0.05243320621074266
sg194
S'0.83'
p920
sg196
g78
sg198
S'13.747'
p921
sg200
g77
sg201
g790
sg203
S'14.1'
p922
sg205
F7223.0
sg206
S'102.0'
p923
sg208
g793
sg210
S'3.6'
p924
sg212
S'3.8'
p925
sg214
S'E+:'
p926
sg216
S'13.9'
p927
sg218
S'B_(m_B)'
p928
sg220
S'71.75'
p929
sg222
g798
sg224
S'NGC4556'
p930
sg226
S'114.0'
p931
sg228
g801
sg230
S'14.6'
p932
sg232
g803
sg234
S'K_2mass_tot'
p933
sg236
S'K_2mass_tot'
p934
sg238
g239
sg240
g806
sg242
g34
sg243
S'4.98'
p935
sg245
S'1.0'
p936
sg247
S'.E+..*.'
p937
sg249
g809
sg251
S"['NGC4556', 'UGC07765', '2MASXJ12354585+2654317', 'SDSSJ123545.85+265431.9']"
p938
sg253
S'188.94107'
p939
sg255
S'1.1'
p940
sg257
S'7782'
p941
sg259
S'0.8'
p942
sg261
S'46'
p943
sg263
S'K_2mass_tot'
p944
sg265
S'5.1'
p945
sg267
S'12'
p946
sg269
S'14.2'
p947
sg271
S'7491'
p948
sg273
S'102.5'
p949
sg275
g276
sg277
g912
sg278
S'0.0151'
p950
sg280
S'5.0'
p951
sg282
S'4.989'
p952
sg284
S'86.502512'
p953
sg286
S'72.14'
p954
sg288
F87.5
sg289
S'2.7'
p955
sg291
S'38.26'
p956
saa(lp957
(dp958
g121
S'52'
p959
sg123
S'10'
p960
sg125
S'-99.99'
p961
sg127
S'-99'
p962
sg129
F21.742
sg130
F25.119044488853472
sg131
S'66'
p963
sg133
S'0.001947'
p964
sg135
g160
sg137
S'6.1'
p965
sg139
S'184.751984'
p966
sg141
g160
sg143
S'-99.99'
p967
sg145
S'12.132'
p968
sg147
S'Lya'
p969
sg149
S'3.7'
p970
sg151
S'11.796'
p971
sg153
S'11.81'
p972
sg155
S'33.1392'
p973
sg157
S'-99'
p974
sg159
g160
sg161
S'-99.99'
p975
sg163
F0.9166328354925924
sg164
S'8.577'
p976
sg166
S'11.817'
p977
sg168
S'76.56'
p978
sg170
S'SDSSJ105233.13+363736.7'
p979
sg172
S'0.44'
p980
sg174
S'36.62689'
p981
sg176
S'36.804'
p982
sg178
S'-99.99'
p983
sg180
S'41'
p984
sg182
S'37'
p985
sg184
g160
sg185
S'36'
p986
sg187
S'-99.99'
p987
sg189
S'106.8'
p988
sg191
S'25'
p989
sg193
F0.4697327576425702
sg194
S'-99.99'
p990
sg196
g239
sg198
S'13.064'
p991
sg200
g77
sg201
S'4.25E+13'
p992
sg203
S'-99.99'
p993
sg205
F600.0
sg206
S'-99.99'
p994
sg208
S'2.62E+14'
p995
sg210
S'0.98'
p996
sg212
S'0.079'
p997
sg214
S'WR?_HII'
p998
sg216
S'-99.99'
p999
sg218
g160
sg220
S'65.87'
p1000
sg222
S'568'
p1001
sg224
S'SDSSJ105233.13+363736.7'
p1002
sg226
S'-99.99'
p1003
sg228
S'36.67777777777778'
p1004
sg230
S'-99.99'
p1005
sg232
S'0.60999'
p1006
sg234
S'r_sdss_iso'
p1007
sg236
S'r_sdss_iso'
p1008
sg238
g239
sg240
S'64.1'
p1009
sg242
g35
sg243
S'1.18'
p1010
sg245
S'-99.99'
p1011
sg247
g160
sg249
S'163.02291666666667'
p1012
sg251
S"['SDSSJ105233.13+363736.7']"
p1013
sg253
S'163.13808'
p1014
sg255
S'-99.99'
p1015
sg257
S'839'
p1016
sg259
S'0.036'
p1017
sg261
S'64'
p1018
sg263
S'r_sdss_iso'
p1019
sg265
S'0.95'
p1020
sg267
S'-99'
p1021
sg269
S'13.6'
p1022
sg271
S'584'
p1023
sg273
S'149.7'
p1024
sg275
g276
sg277
g980
sg278
S'0.011'
p1025
sg280
S'-99.99'
p1026
sg282
S'-99.99'
p1027
sg284
S'63.167249'
p1028
sg286
S'-99.99'
p1029
sg288
F77.9
sg289
S'-99.99'
p1030
sg291
S'3.774'
p1031
sa(dp1032
g121
S'52'
p1033
sg123
S'10'
p1034
sg125
S'-99.99'
p1035
sg127
S'-99'
p1036
sg129
F22.037
sg130
F14.42223381189613
sg131
S'70'
p1037
sg133
S'0.001671'
p1038
sg135
g160
sg137
g965
sg139
S'184.657548'
p1039
sg141
g160
sg143
S'-99.99'
p1040
sg145
S'15.698'
p1041
sg147
g969
sg149
g970
sg151
S'18.915'
p1042
sg153
S'10.64'
p1043
sg155
S'40.8'
p1044
sg157
S'-99'
p1045
sg159
g160
sg161
S'-99.99'
p1046
sg163
F0.6817590163539798
sg164
S'5.925'
p1047
sg166
S'10.648'
p1048
sg168
S'59.31'
p1049
sg170
S'SDSSJ105240.79+363953.7'
p1050
sg172
S'0.38'
p1051
sg174
S'36.66494'
p1052
sg176
S'53.784'
p1053
sg178
S'-99.99'
p1054
sg180
S'42'
p1055
sg182
S'39'
p1056
sg184
g160
sg185
S'36'
p1057
sg187
S'-99.99'
p1058
sg189
g988
sg191
g989
sg193
F0.07579126077112487
sg194
S'-99.99'
p1059
sg196
g77
sg198
S'15.611'
p1060
sg200
g77
sg201
g992
sg203
S'-99.99'
p1061
sg205
F600.0
sg206
S'-99.99'
p1062
sg208
g995
sg210
S'2.6'
p1063
sg212
S'0.0082'
p1064
sg214
g160
sg216
S'-99.99'
p1065
sg218
g160
sg220
S'44.76'
p1066
sg222
g1001
sg224
S'SDSSJ105240.79+363953.7'
p1067
sg226
S'-99.99'
p1068
sg228
g1004
sg230
S'-99.99'
p1069
sg232
g1006
sg234
S'r_sdss_iso'
p1070
sg236
S'r_sdss_pet'
p1071
sg238
g239
sg240
g1009
sg242
g35
sg243
S'1.06'
p1072
sg245
S'-99.99'
p1073
sg247
g160
sg249
g1012
sg251
S"['SDSSJ105240.79+363953.7']"
p1074
sg253
S'163.17'
p1075
sg255
S'-99.99'
p1076
sg257
S'756'
p1077
sg259
S'0.0038'
p1078
sg261
S'67'
p1079
sg263
S'r_sdss_iso'
p1080
sg265
S'0.96'
p1081
sg267
S'-99'
p1082
sg269
S'15.8'
p1083
sg271
S'501'
p1084
sg273
S'114.8'
p1085
sg275
g276
sg277
g1051
sg278
S'0.011'
p1086
sg280
S'-99.99'
p1087
sg282
S'-99.99'
p1088
sg284
S'63.184219'
p1089
sg286
S'-99.99'
p1090
sg288
F54.2
sg289
S'-99.99'
p1091
sg291
S'2.311'
p1092
sa(dp1093
g121
S'52'
p1094
sg123
S'10'
p1095
sg125
S'-99.99'
p1096
sg127
S'-99'
p1097
sg129
F22.9
sg130
F13.191720520349119
sg131
S'35'
p1098
sg133
S'0.002552'
p1099
sg135
g160
sg137
g965
sg139
S'184.847516'
p1100
sg141
g160
sg143
S'-99.99'
p1101
sg145
S'15.532'
p1102
sg147
g969
sg149
g970
sg151
S'15.837'
p1103
sg153
S'14.36'
p1104
sg155
S'16.7496'
p1105
sg157
S'-99'
p1106
sg159
g160
sg161
S'-99.99'
p1107
sg163
F0.4306632764541731
sg164
S'5.583'
p1108
sg166
S'14.366'
p1109
sg168
S'56.93'
p1110
sg170
S'UGC05983'
p1111
sg172
S'0.75'
p1112
sg174
S'36.59451'
p1113
sg176
S'40.236'
p1114
sg178
S'-99.99'
p1115
sg180
S'96'
p1116
sg182
S'35'
p1117
sg184
g160
sg185
S'36'
p1118
sg187
S'-99.99'
p1119
sg189
g988
sg191
g989
sg193
F0.02486974218211488
sg194
S'-99.99'
p1120
sg196
g381
sg198
S'15.79'
p1121
sg200
g77
sg201
g992
sg203
S'-99.99'
p1122
sg205
F600.0
sg206
S'-99.99'
p1123
sg208
g995
sg210
S'3.8'
p1124
sg212
S'0.011'
p1125
sg214
S'DWARF'
p1126
sg216
S'-99.99'
p1127
sg218
g160
sg220
S'66.54'
p1128
sg222
g1001
sg224
S'UGC05983'
p1129
sg226
S'-99.99'
p1130
sg228
g1004
sg230
S'-99.99'
p1131
sg232
g1006
sg234
S'r_sdss_iso'
p1132
sg236
S'poss_103a-O'
p1133
sg238
g239
sg240
g1009
sg242
g35
sg243
S'1.43'
p1134
sg245
S'-99.99'
p1135
sg247
g160
sg249
g1012
sg251
S"['UGC05983', 'SDSSJ105216.74+363540.2']"
p1136
sg253
S'163.06979'
p1137
sg255
S'-99.99'
p1138
sg257
S'1020'
p1139
sg259
S'0.0053'
p1140
sg261
S'34'
p1141
sg263
S'poss_103a-O'
p1142
sg265
S'0.87'
p1143
sg267
S'-99'
p1144
sg269
S'16.1'
p1145
sg271
S'765'
p1146
sg273
S'80.16'
p1147
sg275
g276
sg277
g1112
sg278
S'0.011'
p1148
sg280
S'-99.99'
p1149
sg282
S'-99.99'
p1150
sg284
S'63.12044'
p1151
sg286
S'-99.99'
p1152
sg288
F59.7
sg289
S'-99.99'
p1153
sg291
S'4.634'
p1154
saa(lp1155
(dp1156
g121
S'52'
p1157
sg123
S'10'
p1158
sg125
S'-99.99'
p1159
sg127
S'-99'
p1160
sg129
F21.742
sg130
F25.119044488853472
sg131
S'66'
p1161
sg133
S'0.001947'
p1162
sg135
g160
sg137
S'6.5'
p1163
sg139
S'184.751984'
p1164
sg141
g160
sg143
S'-99.99'
p1165
sg145
S'12.132'
p1166
sg147
S'Lya'
p1167
sg149
S'3.9'
p1168
sg151
S'11.796'
p1169
sg153
S'11.81'
p1170
sg155
S'33.1392'
p1171
sg157
S'-99'
p1172
sg159
g160
sg161
S'-99.99'
p1173
sg163
F0.7923529960293945
sg164
S'8.577'
p1174
sg166
S'11.817'
p1175
sg168
S'76.56'
p1176
sg170
S'SDSSJ105233.13+363736.7'
p1177
sg172
S'0.44'
p1178
sg174
S'36.62689'
p1179
sg176
S'36.804'
p1180
sg178
S'-99.99'
p1181
sg180
S'41'
p1182
sg182
S'37'
p1183
sg184
g160
sg185
S'36'
p1184
sg187
S'-99.99'
p1185
sg189
S'129'
p1186
sg191
S'30'
p1187
sg193
F0.4060449761776484
sg194
S'-99.99'
p1188
sg196
g239
sg198
S'13.064'
p1189
sg200
S'7'
p1190
sg201
S'4.33E+13'
p1191
sg203
S'-99.99'
p1192
sg205
F662.0
sg206
S'-99.99'
p1193
sg208
S'2.62E+14'
p1194
sg210
S'0.98'
p1195
sg212
S'0.079'
p1196
sg214
S'WR?_HII'
p1197
sg216
S'-99.99'
p1198
sg218
g160
sg220
S'65.87'
p1199
sg222
S'585'
p1200
sg224
S'SDSSJ105233.13+363736.7'
p1201
sg226
S'-99.99'
p1202
sg228
S'36.67777777777778'
p1203
sg230
S'-99.99'
p1204
sg232
S'0.60999'
p1205
sg234
S'r_sdss_iso'
p1206
sg236
S'r_sdss_iso'
p1207
sg238
g239
sg240
S'77.5'
p1208
sg242
g36
sg243
S'1.18'
p1209
sg245
S'-99.99'
p1210
sg247
g160
sg249
S'163.02291666666667'
p1211
sg251
S"['SDSSJ105233.13+363736.7']"
p1212
sg253
S'163.13808'
p1213
sg255
S'-99.99'
p1214
sg257
S'839'
p1215
sg259
S'0.036'
p1216
sg261
S'64'
p1217
sg263
S'r_sdss_iso'
p1218
sg265
S'0.95'
p1219
sg267
S'-99'
p1220
sg269
S'13.6'
p1221
sg271
S'584'
p1222
sg273
S'149.7'
p1223
sg275
g276
sg277
g1178
sg278
S'0.011'
p1224
sg280
S'-99.99'
p1225
sg282
S'-99.99'
p1226
sg284
S'63.167249'
p1227
sg286
S'-99.99'
p1228
sg288
F77.9
sg289
S'-99.99'
p1229
sg291
S'3.774'
p1230
sa(dp1231
g121
S'52'
p1232
sg123
S'10'
p1233
sg125
S'-99.99'
p1234
sg127
S'-99'
p1235
sg129
F22.9
sg130
F13.191720520349119
sg131
S'35'
p1236
sg133
S'0.002552'
p1237
sg135
g160
sg137
g1163
sg139
S'184.847516'
p1238
sg141
g160
sg143
S'-99.99'
p1239
sg145
S'15.532'
p1240
sg147
g1167
sg149
g1168
sg151
S'15.837'
p1241
sg153
S'14.36'
p1242
sg155
S'16.7496'
p1243
sg157
S'-99'
p1244
sg159
g160
sg161
S'-99.99'
p1245
sg163
F0.652444790680418
sg164
S'5.583'
p1246
sg166
S'14.366'
p1247
sg168
S'56.93'
p1248
sg170
S'UGC05983'
p1249
sg172
S'0.75'
p1250
sg174
S'36.59451'
p1251
sg176
S'40.236'
p1252
sg178
S'-99.99'
p1253
sg180
S'96'
p1254
sg182
S'35'
p1255
sg184
g160
sg185
S'36'
p1256
sg187
S'-99.99'
p1257
sg189
g1186
sg191
g1187
sg193
F0.0376770777064678
sg194
S'-99.99'
p1258
sg196
g381
sg198
S'15.79'
p1259
sg200
g1190
sg201
g1191
sg203
S'-99.99'
p1260
sg205
F662.0
sg206
S'-99.99'
p1261
sg208
g1194
sg210
S'3.8'
p1262
sg212
S'0.011'
p1263
sg214
S'DWARF'
p1264
sg216
S'-99.99'
p1265
sg218
g160
sg220
S'66.54'
p1266
sg222
g1200
sg224
S'UGC05983'
p1267
sg226
S'-99.99'
p1268
sg228
g1203
sg230
S'-99.99'
p1269
sg232
g1205
sg234
S'r_sdss_iso'
p1270
sg236
S'poss_103a-O'
p1271
sg238
g239
sg240
g1208
sg242
g36
sg243
S'1.43'
p1272
sg245
S'-99.99'
p1273
sg247
g160
sg249
g1211
sg251
S"['UGC05983', 'SDSSJ105216.74+363540.2']"
p1274
sg253
S'163.06979'
p1275
sg255
S'-99.99'
p1276
sg257
S'1020'
p1277
sg259
S'0.0053'
p1278
sg261
S'34'
p1279
sg263
S'poss_103a-O'
p1280
sg265
S'0.87'
p1281
sg267
S'-99'
p1282
sg269
S'16.1'
p1283
sg271
S'765'
p1284
sg273
S'80.16'
p1285
sg275
g276
sg277
g1250
sg278
S'0.011'
p1286
sg280
S'-99.99'
p1287
sg282
S'-99.99'
p1288
sg284
S'63.12044'
p1289
sg286
S'-99.99'
p1290
sg288
F59.7
sg289
S'-99.99'
p1291
sg291
S'4.634'
p1292
sa(dp1293
g121
S'52'
p1294
sg123
S'10'
p1295
sg125
S'-99.99'
p1296
sg127
S'-99'
p1297
sg129
F22.037
sg130
F14.42223381189613
sg131
S'70'
p1298
sg133
S'0.001671'
p1299
sg135
g160
sg137
g1163
sg139
S'184.657548'
p1300
sg141
g160
sg143
S'-99.99'
p1301
sg145
S'15.698'
p1302
sg147
g1167
sg149
g1168
sg151
S'18.915'
p1303
sg153
S'10.64'
p1304
sg155
S'40.8'
p1305
sg157
S'-99'
p1306
sg159
g160
sg161
S'-99.99'
p1307
sg163
F0.4556277994522937
sg164
S'5.925'
p1308
sg166
S'10.648'
p1309
sg168
S'59.31'
p1310
sg170
S'SDSSJ105240.79+363953.7'
p1311
sg172
S'0.38'
p1312
sg174
S'36.66494'
p1313
sg176
S'53.784'
p1314
sg178
S'-99.99'
p1315
sg180
S'42'
p1316
sg182
S'39'
p1317
sg184
g160
sg185
S'36'
p1318
sg187
S'-99.99'
p1319
sg189
g1186
sg191
g1187
sg193
F0.05065221659632986
sg194
S'-99.99'
p1320
sg196
g77
sg198
S'15.611'
p1321
sg200
g1190
sg201
g1191
sg203
S'-99.99'
p1322
sg205
F662.0
sg206
S'-99.99'
p1323
sg208
g1194
sg210
S'2.6'
p1324
sg212
S'0.0082'
p1325
sg214
g160
sg216
S'-99.99'
p1326
sg218
g160
sg220
S'44.76'
p1327
sg222
g1200
sg224
S'SDSSJ105240.79+363953.7'
p1328
sg226
S'-99.99'
p1329
sg228
g1203
sg230
S'-99.99'
p1330
sg232
g1205
sg234
S'r_sdss_iso'
p1331
sg236
S'r_sdss_pet'
p1332
sg238
g239
sg240
g1208
sg242
g36
sg243
S'1.06'
p1333
sg245
S'-99.99'
p1334
sg247
g160
sg249
g1211
sg251
S"['SDSSJ105240.79+363953.7']"
p1335
sg253
S'163.17'
p1336
sg255
S'-99.99'
p1337
sg257
S'756'
p1338
sg259
S'0.0038'
p1339
sg261
S'67'
p1340
sg263
S'r_sdss_iso'
p1341
sg265
S'0.96'
p1342
sg267
S'-99'
p1343
sg269
S'15.8'
p1344
sg271
S'501'
p1345
sg273
S'114.8'
p1346
sg275
g276
sg277
g1312
sg278
S'0.011'
p1347
sg280
S'-99.99'
p1348
sg282
S'-99.99'
p1349
sg284
S'63.184219'
p1350
sg286
S'-99.99'
p1351
sg288
F54.2
sg289
S'-99.99'
p1352
sg291
S'2.311'
p1353
saa(lp1354
(dp1355
g121
S'29'
p1356
sg123
S'12'
p1357
sg125
S'14.6'
p1358
sg127
S'-99'
p1359
sg129
F170.98
sg130
F28.659042240190093
sg131
S'62'
p1360
sg133
S'0.005254'
p1361
sg135
S'B_(Johnson)'
p1362
sg137
S'3.6'
p1363
sg139
S'289.589197'
p1364
sg141
S'B_(Johnson)'
p1365
sg143
S'-99.99'
p1366
sg145
S'14.741'
p1367
sg147
S'Lya'
p1368
sg149
S'2.2'
p1369
sg151
S'14.788'
p1370
sg153
S'14.6'
p1371
sg155
S'2.1408'
p1372
sg157
S'145'
p1373
sg159
S'TF'
p1374
sg161
S'0.094'
p1375
sg163
F0.012056946068598393
sg164
S'9.365'
p1376
sg166
S'26.341'
p1377
sg168
S'81.35'
p1378
sg170
S'UGC07612'
p1379
sg172
S'4.2'
p1380
sg174
S'2.72319'
p1381
sg176
S'23.484'
p1382
sg178
S'24.25'
p1383
sg180
S'145'
p1384
sg182
S'43'
p1385
sg184
S'LC_V'
p1386
sg185
g197
sg187
S'0.058'
p1387
sg189
S'70'
p1388
sg191
g197
sg193
F3.481685003745826e-16
sg194
S'0.54'
p1389
sg196
g381
sg198
S'14.993'
p1390
sg200
g77
sg201
S'1.05E+12'
p1391
sg203
S'14.4'
p1392
sg205
F1580.0
sg206
S'14.6'
p1393
sg208
S'1.43E+14'
p1394
sg210
S'9.6'
p1395
sg212
S'0.025'
p1396
sg214
S'Sm:_HII'
p1397
sg216
S'14.1'
p1398
sg218
S'B_(B_T^0)'
p1399
sg220
S'66.15'
p1400
sg222
S'369'
p1401
sg224
S'UGC07612'
p1402
sg226
S'33.9'
p1403
sg228
S'2.0525'
p1404
sg230
S'15.1'
p1405
sg232
S'0.15834'
p1406
sg234
S'poss_103a-O'
p1407
sg236
S'poss_103a-O'
p1408
sg238
g239
sg240
S'42'
p1409
sg242
g37
sg243
S'9.65'
p1410
sg245
S'0.23'
p1411
sg247
S'.S..9*.'
p1412
sg249
S'187.27791666666667'
p1413
sg251
S"['UGC07612', 'SDSSJ122901.87+024324.6']"
p1414
sg253
S'187.25892'
p1415
sg255
S'0.17'
p1416
sg257
S'1870'
p1417
sg259
S'0.076'
p1418
sg261
S'60'
p1419
sg263
S'poss_103a-O'
p1420
sg265
S'1.3'
p1421
sg267
S'-99'
p1422
sg269
S'15.3'
p1423
sg271
S'1575'
p1424
sg273
S'132.3'
p1425
sg275
g276
sg277
g1380
sg278
S'0.0153'
p1426
sg280
S'0.074'
p1427
sg282
S'9.65'
p1428
sg284
S'65.012984'
p1429
sg286
S'128.28'
p1430
sg288
F33.4
sg289
S'0.031'
p1431
sg291
S'4.682'
p1432
sa(dp1433
g121
S'34'
p1434
sg123
S'12'
p1435
sg125
S'14.9'
p1436
sg127
S'170002'
p1437
sg129
F348.733
sg130
F161.20465603697681
sg131
S'61'
p1438
sg133
S'0.006031'
p1439
sg135
S'B'
p1440
sg137
g1363
sg139
S'292.949501'
p1441
sg141
S'B_(B_T)'
p1442
sg143
S'21'
p1443
sg145
S'12'
p1444
sg147
g1368
sg149
g1369
sg151
S'11.106'
p1445
sg153
S'14.9'
p1446
sg155
S'27.0504'
p1447
sg157
S'130'
p1448
sg159
S'Ceph'
p1449
sg161
S'1.0'
p1450
sg163
F0.0064025696903046705
sg164
S'29.62'
p1451
sg166
S'29.614'
p1452
sg168
S'180.05'
p1453
sg170
S'NGC4536'
p1454
sg172
S'2.9'
p1455
sg174
S'2.18814'
p1456
sg176
S'17.304'
p1457
sg178
S'15.363'
p1458
sg180
S'95'
p1459
sg182
S'11'
p1460
sg184
S'LC_II-III'
p1461
sg185
g197
sg187
S'2.0'
p1462
sg189
g1388
sg191
g197
sg193
F0.0025302449034422273
sg194
S'0.43'
p1463
sg196
g319
sg198
S'13.181'
p1464
sg200
g77
sg201
g1391
sg203
S'10.6'
p1465
sg205
F1580.0
sg206
S'8.67'
p1466
sg208
g1394
sg210
S'11.0'
p1467
sg212
S'0.11'
p1468
sg214
S'SAB(rs)bc;HII_Sbrst'
p1469
sg216
S'9.89'
p1470
sg218
S'B_(B_T^0)'
p1471
sg220
S'213.2'
p1472
sg222
g1401
sg224
S'NGC4536'
p1473
sg226
S'28.0'
p1474
sg228
g1404
sg230
S'11.2'
p1475
sg232
g1406
sg234
S'K_lga2mass_tot'
p1476
sg236
S'K_lga2mass_tot'
p1477
sg238
g239
sg240
g1409
sg242
g37
sg243
S'2.83'
p1478
sg245
S'3.3'
p1479
sg247
S'.SXT4..'
p1480
sg249
g1413
sg251
S"['NGC4536', 'UGC07732', '2MASXJ12342712+0211163', 'SDSSJ123427.04+021117.2']"
p1481
sg253
S'188.61271'
p1482
sg255
S'1.8'
p1483
sg257
S'2103'
p1484
sg259
S'0.093'
p1485
sg261
S'59'
p1486
sg263
S'K_lga2mass_tot'
p1487
sg265
S'21.0'
p1488
sg267
g78
sg269
S'13.8'
p1489
sg271
S'1808'
p1490
sg273
S'410.0'
p1491
sg275
g276
sg277
g1455
sg278
S'0.0157'
p1492
sg280
S'3.8'
p1493
sg282
S'2.83'
p1494
sg284
S'64.730132'
p1495
sg286
S'455.15'
p1496
sg288
F10.8
sg289
S'1.2'
p1497
sg291
S'15.4'
p1498
sa(dp1499
g121
S'29'
p1500
sg123
S'12'
p1501
sg125
S'-99.99'
p1502
sg127
S'-99'
p1503
sg129
F94.177
sg130
F8.49394836027392
sg131
S'62'
p1504
sg133
S'0.005966'
p1505
sg135
S'B_(LCO)'
p1506
sg137
g1363
sg139
S'290.374472'
p1507
sg141
S'b_J'
p1508
sg143
S'-99.99'
p1509
sg145
S'16.674'
p1510
sg147
g1368
sg149
g1369
sg151
S'16.08'
p1511
sg153
S'29.34'
p1512
sg155
S'50.58'
p1513
sg157
S'-99'
p1514
sg159
g160
sg161
S'0.0049'
p1515
sg163
F0.005540459592975663
sg164
S'4.163'
p1516
sg166
S'29.346'
p1517
sg168
S'46.49'
p1518
sg170
S'2PIGGNGPGALB+3.26065+0.04028'
p1519
sg172
S'0.31'
p1520
sg174
S'2.03158'
p1521
sg176
S'53.688'
p1522
sg178
S'-99.99'
p1523
sg180
S'152'
p1524
sg182
g77
sg184
g160
sg185
g197
sg187
S'0.012'
p1525
sg189
g1388
sg191
g197
sg193
F1.368898515450383e-54
sg194
S'-99.99'
p1526
sg196
g197
sg198
S'17.204'
p1527
sg200
g77
sg201
g1391
sg203
S'17.6'
p1528
sg205
F1580.0
sg206
S'-99.99'
p1529
sg208
g1394
sg210
S'0.67'
p1530
sg212
S'0.012'
p1531
sg214
g160
sg216
S'17.6'
p1532
sg218
S'B_(LCO)'
p1533
sg220
S'14.63'
p1534
sg222
g1401
sg224
S'SDSSJ122950.57+020153.7'
p1535
sg226
S'-99.99'
p1536
sg228
g1404
sg230
S'17.8'
p1537
sg232
g1406
sg234
S'r_sdss_iso'
p1538
sg236
S'r_sdss_iso'
p1539
sg238
g239
sg240
g1409
sg242
g37
sg243
S'2.93'
p1540
sg245
S'0.0054'
p1541
sg247
g160
sg249
g1413
sg251
S"['SDSSJ122950.57+020153.7']"
p1542
sg253
S'187.46075'
p1543
sg255
S'0.0054'
p1544
sg257
S'2084'
p1545
sg259
S'0.0057'
p1546
sg261
S'60'
p1547
sg263
S'r_sdss_iso'
p1548
sg265
S'0.32'
p1549
sg267
S'-99'
p1550
sg269
S'17.6'
p1551
sg271
S'1789'
p1552
sg273
S'29.26'
p1553
sg275
g276
sg277
g1520
sg278
S'0.0165'
p1554
sg280
S'0.012'
p1555
sg282
S'-99.99'
p1556
sg284
S'64.375538'
p1557
sg286
S'-99.99'
p1558
sg288
F55.5
sg289
S'0.01'
p1559
sg291
S'2.082'
p1560
saa(lp1561
(dp1562
g121
S'19'
p1563
sg123
S'12'
p1564
sg125
S'-99.99'
p1565
sg127
S'-99'
p1566
sg129
F37.396
sg130
F8.30490471354127
sg131
S'31'
p1567
sg133
S'0.007295'
p1568
sg135
S'B_(Magellan)'
p1569
sg137
S'2.4'
p1570
sg139
S'281.013838'
p1571
sg141
S'B_(LCO)'
p1572
sg143
S'-99.99'
p1573
sg145
S'16.948'
p1574
sg147
S'Lya'
p1575
sg149
S'1.4'
p1576
sg151
S'16.572'
p1577
sg153
S'35'
p1578
sg155
S'20.6736'
p1579
sg157
S'-99'
p1580
sg159
g160
sg161
S'0.0056'
p1581
sg163
F0.01986817541366812
sg164
S'4.101'
p1582
sg166
S'35.001'
p1583
sg168
S'46.01'
p1584
sg170
S'PGC039653'
p1585
sg172
S'0.43'
p1586
sg174
S'6.7051'
p1587
sg176
S'18.36'
p1588
sg178
S'-99.99'
p1589
sg180
S'79'
p1590
sg182
S'42'
p1591
sg184
g160
sg185
g720
sg187
S'0.014'
p1592
sg189
S'22.7'
p1593
sg191
g381
sg193
F6.016292255345809e-11
sg194
S'-99.99'
p1594
sg196
g197
sg198
S'17.614'
p1595
sg200
g78
sg201
S'1.03E+12'
p1596
sg203
S'17.8'
p1597
sg205
F2548.0
sg206
S'-99.99'
p1598
sg208
S'6.41E+12'
p1599
sg210
S'0.39'
p1600
sg212
S'0.012'
p1601
sg214
g160
sg216
S'17.8'
p1602
sg218
S'B_(Magellan)'
p1603
sg220
S'20.78'
p1604
sg222
S'31'
p1605
sg224
S'VCC0339'
p1606
sg226
S'-99.99'
p1607
sg228
S'6.643888888888889'
p1608
sg230
S'18'
p1609
sg232
S'0.33130'
p1610
sg234
S'r_sdss_iso'
p1611
sg236
S'r_sdss_iso'
p1612
sg238
g239
sg240
S'13.6'
p1613
sg242
g38
sg243
S'3.5'
p1614
sg245
S'0.0064'
p1615
sg247
g160
sg249
S'184.83708333333334'
p1616
sg251
S"['SDSSJ121920.67+064218.3']"
p1617
sg253
S'184.83614'
p1618
sg255
S'0.0064'
p1619
sg257
S'2485'
p1620
sg259
S'0.0053'
p1621
sg261
S'31'
p1622
sg263
S'r_sdss_iso'
p1623
sg265
S'0.29'
p1624
sg267
S'-99'
p1625
sg269
S'18'
p1626
sg271
S'2187'
p1627
sg273
S'24.17'
p1628
sg275
g276
sg277
g1586
sg278
S'0.018'
p1629
sg280
S'0.014'
p1630
sg282
S'-99.99'
p1631
sg284
S'68.200452'
p1632
sg286
S'-99.99'
p1633
sg288
F79.9
sg289
S'0.012'
p1634
sg291
S'3.527'
p1635
sa(dp1636
g121
S'17'
p1637
sg123
S'12'
p1638
sg125
S'27.9'
p1639
sg127
S'120002'
p1640
sg129
F233.021
sg130
F103.68203191971115
sg131
S'59'
p1641
sg133
S'0.007455'
p1642
sg135
S'B_(B_T^0)'
p1643
sg137
g1570
sg139
S'279.829994'
p1644
sg141
S'B_(B_T)'
p1645
sg143
S'25.7'
p1646
sg145
S'12.223'
p1647
sg147
g1575
sg149
g1576
sg151
S'11.488'
p1648
sg153
S'27.9'
p1649
sg155
S'25.812'
p1650
sg157
S'128'
p1651
sg159
S'TF'
p1652
sg161
S'0.63'
p1653
sg163
F0.006991664309550501
sg164
S'22.07'
p1654
sg166
S'35.676'
p1655
sg168
S'146.97'
p1656
sg170
S'NGC4223'
p1657
sg172
S'2.1'
p1658
sg174
S'6.69007'
p1659
sg176
S'24.252'
p1660
sg178
S'28.0'
p1661
sg180
S'130'
p1662
sg182
S'41'
p1663
sg184
g160
sg185
g720
sg187
S'0.81'
p1664
sg189
g1593
sg191
g381
sg193
F0.0005529229276766317
sg194
S'0.52'
p1665
sg196
g319
sg198
S'12.993'
p1666
sg200
g78
sg201
g1596
sg203
S'12.9'
p1667
sg205
F2548.0
sg206
S'20.4'
p1668
sg208
g1599
sg210
S'4.4'
p1669
sg212
S'0.5'
p1670
sg214
S'SA(s)0+:;Sy_LINER'
p1671
sg216
S'12.9'
p1672
sg218
S'B_(m_B)'
p1673
sg220
S'88.13'
p1674
sg222
g1605
sg224
S'NGC4223'
p1675
sg226
S'33.9'
p1676
sg228
g1608
sg230
S'13'
p1677
sg232
g1610
sg234
S'K_2mass_tot'
p1678
sg236
S'K_2mass_tot'
p1679
sg238
g239
sg240
g1613
sg242
g38
sg243
S'4.89'
p1680
sg245
S'0.66'
p1681
sg247
S'.LAS+*.'
p1682
sg249
g1616
sg251
S"['NGC4223', 'IC3102', 'UGC07319', '2MASXJ12172582+0641239', 'SDSSJ121725.80+064124.2']"
p1683
sg253
S'184.35755'
p1684
sg255
S'0.66'
p1685
sg257
S'2533'
p1686
sg259
S'0.41'
p1687
sg261
S'57'
p1688
sg263
S'K_2mass_tot'
p1689
sg265
S'8.2'
p1690
sg267
S'39'
p1691
sg269
S'13.5'
p1692
sg271
S'2235'
p1693
sg273
S'163.2'
p1694
sg275
g276
sg277
g1658
sg278
S'0.0186'
p1695
sg280
S'0.81'
p1696
sg282
S'4.894'
p1697
sg284
S'68.023262'
p1698
sg286
S'154.22'
p1699
sg288
F34.5
sg289
S'0.78'
p1700
sg291
S'11.92'
p1701
sa(dp1702
g121
S'18'
p1703
sg123
S'12'
p1704
sg125
S'-99.99'
p1705
sg127
S'-99'
p1706
sg129
F196.518
sg130
F32.14598467927215
sg131
S'53'
p1707
sg133
S'0.008596'
p1708
sg135
g160
sg137
g1570
sg139
S'280.414182'
p1709
sg141
g160
sg143
S'-99.99'
p1710
sg145
S'14.642'
p1711
sg147
g1575
sg149
g1576
sg151
S'14.015'
p1712
sg153
S'40.49'
p1713
sg155
S'14.4192'
p1714
sg157
S'-99'
p1715
sg159
g160
sg161
S'-99.99'
p1716
sg163
F0.005133633054362335
sg164
S'10.11'
p1717
sg166
S'40.492'
p1718
sg168
S'85.76'
p1719
sg170
S'PGC039509'
p1720
sg172
S'0.63'
p1721
sg174
S'6.60364'
p1722
sg176
S'13.104'
p1723
sg178
S'-99.99'
p1724
sg180
S'105'
p1725
sg182
S'36'
p1726
sg184
g160
sg185
g720
sg187
S'-99.99'
p1727
sg189
g1593
sg191
g381
sg193
F5.75749797317063e-17
sg194
S'-99.99'
p1728
sg196
g319
sg198
S'15.299'
p1729
sg200
g78
sg201
g1596
sg203
S'-99.99'
p1730
sg205
F2548.0
sg206
S'-99.99'
p1731
sg208
g1599
sg210
S'1.6'
p1732
sg212
S'0.13'
p1733
sg214
S'dS0,N_pec'
p1734
sg216
S'-99.99'
p1735
sg218
g160
sg220
S'31.93'
p1736
sg222
g1605
sg224
S'VCC0278'
p1737
sg226
S'-99.99'
p1738
sg228
g1608
sg230
S'-99.99'
p1739
sg232
g1610
sg234
S'K_2mass_tot'
p1740
sg236
S'K_2mass_tot'
p1741
sg238
g239
sg240
g1613
sg242
g38
sg243
S'4.04'
p1742
sg245
S'-99.99'
p1743
sg247
g160
sg249
g1616
sg251
S"['2MASXJ12181446+0636142', 'SDSSJ121814.42+063613.1']"
p1744
sg253
S'184.56008'
p1745
sg255
S'-99.99'
p1746
sg257
S'2875'
p1747
sg259
S'0.06'
p1748
sg261
S'52'
p1749
sg263
S'K_2mass_tot'
p1750
sg265
S'2.6'
p1751
sg267
S'-99'
p1752
sg269
S'15.7'
p1753
sg271
S'2577'
p1754
sg273
S'51.5'
p1755
sg275
g276
sg277
g1721
sg278
S'0.0188'
p1756
sg280
S'-99.99'
p1757
sg282
S'-99.99'
p1758
sg284
S'68.012089'
p1759
sg286
S'-99.99'
p1760
sg288
F23.3
sg289
S'-99.99'
p1761
sg291
S'6.268'
p1762
saas.