(dp0
S'Vhels'
p1
(lp2
F1284.0
aF1284.0
aF7312.0
asS'impacts'
p3
(lp4
F100.931
aF100.931
aF366.79
asS'group_dists'
p5
(lp6
F14.9
aF14.9
aF76.7
asS'MTypes'
p7
(lp8
S'E+0-1_pec;NLRG_Sy'
p9
aS'E+0-1_pec;NLRG_Sy'
p10
aS'SA(s)0^0^:'
p11
asS'e_Lya_Ws'
p12
(lp13
F20.0
aF16.0
aF9.0
asS'Nas'
p14
(lp15
F46400000000000.0
aF235000000000000.0
aF10700000000000.0
asS'Lya_Ws'
p16
(lp17
F176.0
aF525.0
aF51.0
asS'bestDists'
p18
(lp19
F16.4
aF16.4
aF110.0
asS'adjustedIncs'
p20
(lp21
F31.0
aF31.0
aF17.0
asS'targets'
p22
(lp23
S'MS1228.6+1219'
p24
aS'MS1228.6+1219'
p25
aS'RX_J1236.0+2641'
p26
asS'e_bs'
p27
(lp28
F2.4
aF1.4
aF3.0
asS'incs'
p29
(lp30
F31.0
aF31.0
aF16.0
asS'azimuths'
p31
(lp32
F11.1
aF11.1
aF45.6
asS'group_nums'
p33
(lp34
S'100002'
p35
aS'100002'
p36
aS'100082'
p37
asS'Ws'
p38
(lp39
F57.5
aF94.4
aF34.6
asS'ls'
p40
(lp41
F0.19277267513827911
aF0.7943400512297468
aF0.05911246411995197
asS'Lya_vs'
p42
(lp43
F1046.0
aF1286.0
aF7223.0
asS'R_virs'
p44
(lp45
F210.39
aF210.39
aF226.16
asS'Bmags'
p46
(lp47
F9.59
aF9.59
aF14.3
asS'cuss'
p48
(lp49
F226.1579981517346
aF226.1579981517346
aF264.6439567569983
asS'vcorrs'
p50
(lp51
F1584.0
aF1584.0
aF7603.0
asS'e_Nas'
p52
(lp53
F6410000000000.0
aF28400000000000.0
aF2010000000000.0
asS'e_bestDists'
p54
(lp55
F2.79
aF2.79
aF7.34
asS'group_mems'
p56
(lp57
S'197'
p58
aS'197'
p59
aS'12'
p60
asS'e_Lstar_meds'
p61
(lp62
F4.8
aF4.8
aF1.2
asS'Dec_targets'
p63
(lp64
F12.05194444
aF12.05194444
aF26.69333333
asS'PAs'
p65
(lp66
F153.0
aF153.0
aF90.0
asS'Lstar_meds'
p67
(lp68
F6.2
aF6.2
aF3.8
asS'RA_galaxies'
p69
(lp70
F187.70593
aF187.70593
aF189.16625
asS'bs'
p71
(lp72
F34.5
aF56.7
aF20.8
asS'e_Ws'
p73
(lp74
F3.9
aF2.4
aF5.0
asS'Dec_galaxies'
p75
(lp76
F12.39112
aF12.39112
aF26.82994
asS'MajDiams'
p77
(lp78
F37.12
aF37.12
aF41.22
asS'RA_targets'
p79
(lp80
F187.8045833
aF187.8045833
aF189.0166667
asS'e_Lya_vs'
p81
(lp82
F2.0
aF2.0
aF1.0
asS'z_targets'
p83
(lp84
F0.11612
aF0.11612
aF0.20915
asS'Names'
p85
(lp86
S'NGC4486'
p87
aS'NGC4486'
p88
aS'IC3585'
p89
asS'l_cuss'
p90
(lp91
F0.19883685626508646
aF0.8193281463707167
aF0.12015740773889345
asS'others'
p92
(lp93
(lp94
(dp95
S'RAm'
p96
S'31'
p97
sS'RAh'
p98
S'12'
p99
sS'RID_median'
p100
S'-99.99'
p101
sS'group_num'
p102
S'100002'
p103
sS'impact'
p104
F143.636
sS'cus'
p105
F50.099014750791255
sS'adjustedInc'
p106
S'71'
p107
sS'z'
p108
S'0.003486'
p109
sS'Bmag_max_key'
p110
S'B_(B_T)'
p111
sS'e_W'
p112
S'3.9'
p113
sS'GLON'
p114
S'285.201512'
p115
sS'Bmag_min_key'
p116
S'B_(m_B)'
p117
sS'group_dist'
p118
S'14.9'
p119
sS'rmag_sdss'
p120
S'12.506'
p121
sS'identified'
p122
S'Lya'
p123
sS'e_b'
p124
S'2.4'
p125
sS'zmag_sdss'
p126
S'11.947'
p127
sS'bestDist'
p128
S'18.94'
p129
sS'RAs'
p130
S'32.5272'
p131
sS'RC3_pa'
p132
S'65'
p133
sS'distIndicator'
p134
S'x'
p135
sS'e_Lstar_min'
p136
S'0.12'
p137
sS'l'
p138
F0.15490468605143468
sS'MajDiam'
p139
S'13.59'
p140
sS'distvcorr'
p141
S'18.942'
p142
sS'R_vir'
p143
S'105.18'
p144
sS'Name'
p145
S'NGC4497'
p146
sS'e_MajDiam'
p147
S'0.52'
p148
sS'DEdeg'
p149
S'11.62472'
p150
sS'DEs'
p151
S'28.992'
p152
sS'RID_mean'
p153
S'-99.99'
p154
sS'PA'
p155
S'75'
p156
sS'DEm'
p157
S'37'
p158
sS'lumClass'
p159
g135
sS'DEd'
p160
S'11'
p161
sS'Lstar_med'
p162
S'0.3'
p163
sS'W'
p164
S'57.5'
p165
sS'e_Lya_W'
p166
S'20'
p167
sS'l_cus'
p168
F0.0002692265924263614
sS'RC3_r25'
p169
S'0.46'
p170
sS'e_inc'
p171
S'2'
p172
sS'gmag_sdss'
p173
S'13.215'
p174
sS'e_Lya_v'
p175
g172
sS'e_Na'
p176
S'6.41E+12'
p177
sS'Bmag'
p178
S'13.2'
p179
sS'Lya_v'
p180
F1046.0
sS'RID_min'
p181
S'-99.99'
p182
sS'Na'
p183
S'4.64E+13'
p184
sS'e_MinDiam_ang'
p185
S'2.8'
p186
sS'Lstar_sdss'
p187
S'0.2'
p188
sS'MType'
p189
S'SAB(s)0+:'
p190
sS'Bmag_max'
p191
S'13.2'
p192
sS'Bmag_key'
p193
S'B_(B_T^0)'
p194
sS'MinDiam_ang'
p195
S'56.24'
p196
sS'Lya_W'
p197
S'176'
p198
sS'NEDname'
p199
S'NGC4497'
p200
sS'RID_max'
p201
S'-99.99'
p202
sS'Dec_target'
p203
S'12.05194444'
p204
sS'Bmag_min'
p205
S'13.4'
p206
sS'z_target'
p207
S'0.11612'
p208
sS'paKey'
p209
S'K_2mass_tot'
p210
sS'diameterKey'
p211
S'K_2mass_tot'
p212
sS'flag'
p213
S'0'
p214
sS'b'
p215
S'34.5'
p216
sS'target'
p217
g24
sS'e_bestDist'
p218
S'1.89'
p219
sS'e_Lstar_max'
p220
S'0.15'
p221
sS'RC3_type'
p222
S'.LXS+*.'
p223
sS'RA_target'
p224
S'187.8045833'
p225
sS'altNames'
p226
S"['NGC4497', 'IC3452', 'UGC07665', '2MASXJ12313253+1137291', 'SDSSJ123132.52+113728.9']"
p227
sS'RAdeg'
p228
S'187.88553'
p229
sS'e_Lstar_med'
p230
S'0.14'
p231
sS'vcorr'
p232
S'1345'
p233
sS'e_Lstar_sdss'
p234
S'0.093'
p235
sS'inc'
p236
S'68'
p237
sS'ratioKey'
p238
S'K_2mass_tot'
p239
sS'e_MajDiam_ang'
p240
S'7.4'
p241
sS'group_mem'
p242
S'197'
p243
sS'Bmag_sdss'
p244
S'13.7'
p245
sS'Vhel'
p246
S'1045'
p247
sS'MajDiam_ang'
p248
S'148.0'
p249
sS'DE-'
p250
S'+'
p251
sS'e_MinDiam'
p252
g148
sS'E(B-V)'
p253
S'0.0369'
p254
sS'Lstar_max'
p255
S'0.31'
p256
sS'RID_std'
p257
S'-99.99'
p258
sS'GLAT'
p259
S'73.807687'
p260
sS'RC3_d25'
p261
S'122.5'
p262
sS'azimuth'
p263
F85.5
sS'Lstar_min'
p264
S'0.25'
p265
sS'MinDiam'
p266
S'5.165'
p267
sa(dp268
g96
S'31'
p269
sg98
S'12'
p270
sg100
S'-99.99'
p271
sg102
S'-99'
p272
sg104
F22.059
sg105
F4.134459937646028
sg106
S'50'
p273
sg108
S'0.002591'
p274
sg110
S'B_t'
p275
sg112
g113
sg114
S'284.766394'
p276
sg116
S'B_J_25'
p277
sg118
S'-99.99'
p278
sg120
S'16.371'
p279
sg122
g123
sg124
g125
sg126
S'16.007'
p280
sg128
S'15.16'
p281
sg130
S'33.3528'
p282
sg132
S'-99'
p283
sg134
g135
sg136
S'0.0018'
p284
sg138
F0.10587677862750439
sg139
S'2.576'
p285
sg141
S'15.168'
p286
sg143
S'33.39'
p287
sg145
S'PGC041458'
p288
sg147
S'0.22'
p289
sg149
S'12.06378'
p290
sg151
S'49.608'
p291
sg153
S'-99.99'
p292
sg155
S'154'
p293
sg157
S'3'
p294
sg159
g135
sg160
S'12'
p295
sg162
S'0.0064'
p296
sg164
g165
sg166
g167
sg168
F7.104062631394904e-14
sg169
S'-99.99'
p297
sg171
S'1'
p298
sg173
S'16.991'
p299
sg175
g172
sg176
g177
sg178
S'16.9'
p300
sg180
F1046.0
sg181
S'-99.99'
p301
sg183
g184
sg185
S'0.58'
p302
sg187
S'0.004'
p303
sg189
S'dE6,N'
p304
sg191
S'16.8'
p305
sg193
S'B_tot__(INT/WFC)'
p306
sg195
S'23.12'
p307
sg197
g198
sg199
S'VCC1369'
p308
sg201
S'-99.99'
p309
sg203
g204
sg205
S'17.4'
p310
sg207
g208
sg209
S'r_sdss_iso'
p311
sg211
S'r_sdss_iso'
p312
sg213
g214
sg215
g216
sg217
g24
sg218
S'1.51'
p313
sg220
S'0.0033'
p314
sg222
g135
sg224
g225
sg226
S"['SDSSJ123133.35+120349.5']"
p315
sg228
S'187.88897'
p316
sg230
S'0.0029'
p317
sg232
S'1077'
p318
sg234
S'0.0018'
p319
sg236
S'49'
p320
sg238
S'r_sdss_iso'
p321
sg240
S'0.35'
p322
sg242
S'-99'
p323
sg244
S'17.4'
p324
sg246
S'777'
p325
sg248
S'35.03'
p326
sg250
g251
sg252
g289
sg253
S'0.0242'
p327
sg255
S'0.0069'
p328
sg257
S'-99.99'
p329
sg259
S'74.230105'
p330
sg261
S'-99.99'
p331
sg263
F72.2
sg264
S'0.0039'
p332
sg266
S'1.7'
p333
sa(dp334
g96
S'30'
p335
sg98
S'12'
p336
sg100
S'-99.99'
p337
sg102
S'-99'
p338
sg104
F134.905
sg105
F72.76894534758628
sg106
S'12'
p339
sg108
S'0.0042'
p340
sg110
g135
sg112
g113
sg114
S'283.753686'
p341
sg116
g135
sg118
S'-99.99'
p342
sg120
S'11.752'
p343
sg122
g123
sg124
g125
sg126
S'10.94'
p344
sg128
S'21.95'
p345
sg130
S'47.5512'
p346
sg132
S'-99'
p347
sg134
g135
sg136
S'-99.99'
p348
sg138
F0.10013624810395332
sg139
S'17.43'
p349
sg141
S'21.957'
p350
sg143
S'124.88'
p351
sg145
S'SDSSJ123047.55+122318.1'
p352
sg147
S'1.9'
p353
sg149
S'12.38836'
p354
sg151
S'18.096'
p355
sg153
S'-99.99'
p356
sg155
S'5'
p357
sg157
S'23'
p358
sg159
g135
sg160
S'12'
p359
sg162
S'-99.99'
p360
sg164
g165
sg166
g167
sg168
F0.01034655632516298
sg169
S'-99.99'
p361
sg171
g294
sg173
S'12.544'
p362
sg175
g172
sg176
g177
sg178
S'-99.99'
p363
sg180
F1046.0
sg181
S'-99.99'
p364
sg183
g184
sg185
S'1.3'
p365
sg187
S'0.47'
p366
sg189
g135
sg191
S'-99.99'
p367
sg193
g135
sg195
S'160.5'
p368
sg197
g198
sg199
S'SDSSJ123047.55+122318.1'
p369
sg201
S'-99.99'
p370
sg203
g204
sg205
S'-99.99'
p371
sg207
g208
sg209
S'r_sdss_dev'
p372
sg211
S'r_sdss_pet'
p373
sg213
g214
sg215
g216
sg217
g24
sg218
S'2.19'
p374
sg220
S'-99.99'
p375
sg222
g135
sg224
g225
sg226
S"['SDSSJ123047.55+122318.1']"
p376
sg228
S'187.69813'
p377
sg230
S'-99.99'
p378
sg232
S'1559'
p379
sg234
S'0.22'
p380
sg236
S'12'
p381
sg238
S'r_sdss_dev'
p382
sg240
S'1.3'
p383
sg242
S'-99'
p384
sg244
S'13'
p385
sg246
S'1259'
p386
sg248
S'163.8'
p387
sg250
g251
sg252
g353
sg253
S'0.0196'
p388
sg255
S'-99.99'
p389
sg257
S'-99.99'
p390
sg259
S'74.486215'
p391
sg261
S'-99.99'
p392
sg263
F22.2
sg264
S'-99.99'
p393
sg266
S'17.08'
p394
sa(dp395
g96
S'30'
p396
sg98
S'12'
p397
sg100
S'16.8'
p398
sg102
S'-99'
p399
sg104
F29.438
sg105
F1.991688300663535
sg106
S'61'
p400
sg108
S'0.004183'
p401
sg110
S'B_J_25'
p402
sg112
g113
sg114
S'284.144051'
p403
sg116
S'B_t'
p404
sg118
S'-99.99'
p405
sg120
S'16.681'
p406
sg122
g123
sg124
g125
sg126
S'16.821'
p407
sg128
S'16.8'
p408
sg130
S'48.5208'
p409
sg132
S'-99'
p410
sg134
S'TFest'
p411
sg136
S'0.00049'
p412
sg138
F0.07399083536634846
sg139
S'1.583'
p413
sg141
S'21.886'
p414
sg143
S'23.86'
p415
sg145
S'PGC041360'
p416
sg147
S'0.057'
p417
sg149
S'12.04502'
p418
sg151
S'42.072'
p419
sg153
S'16.9'
p420
sg155
S'78'
p421
sg157
g172
sg159
g135
sg160
S'12'
p422
sg162
S'0.0031'
p423
sg164
g165
sg166
g167
sg168
F4.506852821624547e-96
sg169
S'0.51'
p424
sg171
g172
sg173
S'16.71'
p425
sg175
g172
sg176
g177
sg178
S'17.9'
p426
sg180
F1046.0
sg181
S'16.8'
p427
sg183
g184
sg185
S'0.63'
p428
sg187
S'0.0075'
p429
sg189
S'Blue_Compact_Dwarf'
p430
sg191
S'17.9'
p431
sg193
S'B_J_25'
p432
sg195
S'9.911'
p433
sg197
g198
sg199
S'VCC1313'
p434
sg201
S'17.0'
p435
sg203
g204
sg205
S'18'
p436
sg207
g208
sg209
S'r_sdss_iso'
p437
sg211
S'r_sdss_iso'
p438
sg213
g214
sg215
g216
sg217
g24
sg218
S'0.1'
p439
sg220
S'0.0003'
p440
sg222
S'       '
p441
sg224
g225
sg226
S"['SDSSJ123048.61+120242.8']"
p442
sg228
S'187.70217'
p443
sg230
S'0.0003'
p444
sg232
S'1554'
p445
sg234
S'0.00026'
p446
sg236
S'59'
p447
sg238
S'rc3_dr_25'
p448
sg240
S'0.27'
p449
sg242
S'-99'
p450
sg244
S'16.9'
p451
sg246
S'1254'
p452
sg248
S'19.43'
p453
sg250
g251
sg252
g417
sg253
S'0.0235'
p454
sg255
S'0.0031'
p455
sg257
S'0.1'
p456
sg259
S'74.159451'
p457
sg261
S'13.13'
p458
sg263
F8.0
sg264
S'0.0029'
p459
sg266
S'0.8073'
p460
sa(dp461
g96
S'30'
p462
sg98
S'12'
p463
sg100
S'17.1'
p464
sg102
S'100002'
p465
sg104
F67.818
sg105
F18.8386547290405
sg106
S'38'
p466
sg108
S'0.002528'
p467
sg110
S'B_T__(Johnson)'
p468
sg112
g113
sg114
S'284.03156'
p469
sg116
S'B_(HST)'
p470
sg118
S'14.9'
p471
sg120
S'12.217'
p472
sg122
g123
sg124
g125
sg126
S'11.078'
p473
sg128
S'17.1'
p474
sg130
S'57.7104'
p475
sg132
S'-99'
p476
sg134
S'GCLF'
p477
sg136
S'0.087'
p478
sg138
F0.04522842883697785
sg139
S'7.08'
p479
sg141
S'14.901'
p480
sg143
S'67.07'
p481
sg145
S'NGC4486A'
p482
sg147
S'0.46'
p483
sg149
S'12.27036'
p484
sg151
S'13.296'
p485
sg153
S'16.871'
p486
sg155
g357
sg157
S'16'
p487
sg159
g135
sg160
S'12'
p488
sg162
S'0.26'
p489
sg164
g165
sg166
g167
sg168
F2.9592559063604426e-07
sg169
S'-99.99'
p490
sg171
g357
sg173
S'12.85'
p491
sg175
g172
sg176
g177
sg178
S'13.1'
p492
sg180
F1046.0
sg181
S'15.0'
p493
sg183
g184
sg185
S'3.4'
p494
sg187
S'0.23'
p495
sg189
S'E2'
p496
sg191
S'13.1'
p497
sg193
S'B_T__(Johnson)'
p498
sg195
S'68.32'
p499
sg197
g198
sg199
S'NGC4486A'
p500
sg201
S'18.4'
p501
sg203
g204
sg205
S'13.3'
p502
sg207
g208
sg209
S'K_2mass_tot'
p503
sg211
S'K_2mass_tot'
p504
sg213
g214
sg215
g216
sg217
g24
sg218
S'1.39'
p505
sg220
S'0.099'
p506
sg222
g135
sg224
g225
sg226
S"['NGC4486A', 'UGC07658', '2MASXJ12305772+1216132', 'SDSSJ123057.71+121613.2']"
p507
sg228
S'187.74046'
p508
sg230
S'0.099'
p509
sg232
S'1058'
p510
sg234
S'0.085'
p511
sg236
S'37'
p512
sg238
S'K_2mass_tot'
p513
sg240
S'4.3'
p514
sg242
S'197'
p515
sg244
S'13.3'
p516
sg246
S'758'
p517
sg248
S'85.4'
p518
sg250
g251
sg252
g483
sg253
S'0.0202'
p519
sg255
S'0.26'
p520
sg257
S'1.394'
p521
sg259
S'74.385832'
p522
sg261
S'-99.99'
p523
sg263
F21.0
sg264
S'0.23'
p524
sg266
S'5.664'
p525
saa(lp526
(dp527
g96
S'30'
p528
sg98
S'12'
p529
sg100
S'-99.99'
p530
sg102
S'-99'
p531
sg104
F134.905
sg105
F72.76894534758628
sg106
S'12'
p532
sg108
S'0.0042'
p533
sg110
g135
sg112
S'2.4'
p534
sg114
S'283.753686'
p535
sg116
g135
sg118
S'-99.99'
p536
sg120
S'11.752'
p537
sg122
S'Lya'
p538
sg124
S'1.4'
p539
sg126
S'10.94'
p540
sg128
S'21.95'
p541
sg130
S'47.5512'
p542
sg132
S'-99'
p543
sg134
g135
sg136
S'-99.99'
p544
sg138
F0.3056778408534248
sg139
S'17.43'
p545
sg141
S'21.957'
p546
sg143
S'124.88'
p547
sg145
S'SDSSJ123047.55+122318.1'
p548
sg147
S'1.9'
p549
sg149
S'12.38836'
p550
sg151
S'18.096'
p551
sg153
S'-99.99'
p552
sg155
g357
sg157
S'23'
p553
sg159
g135
sg160
S'12'
p554
sg162
S'-99.99'
p555
sg164
S'94.4'
p556
sg166
S'16'
p557
sg168
F0.031584097243796204
sg169
S'-99.99'
p558
sg171
g294
sg173
S'12.544'
p559
sg175
g172
sg176
S'2.84E+13'
p560
sg178
S'-99.99'
p561
sg180
F1286.0
sg181
S'-99.99'
p562
sg183
S'2.35E+14'
p563
sg185
S'1.3'
p564
sg187
S'0.47'
p565
sg189
g135
sg191
S'-99.99'
p566
sg193
g135
sg195
S'160.5'
p567
sg197
S'525'
p568
sg199
S'SDSSJ123047.55+122318.1'
p569
sg201
S'-99.99'
p570
sg203
S'12.05194444'
p571
sg205
S'-99.99'
p572
sg207
S'0.11612'
p573
sg209
S'r_sdss_dev'
p574
sg211
S'r_sdss_pet'
p575
sg213
g214
sg215
S'56.7'
p576
sg217
g25
sg218
S'2.19'
p577
sg220
S'-99.99'
p578
sg222
g135
sg224
S'187.8045833'
p579
sg226
S"['SDSSJ123047.55+122318.1']"
p580
sg228
S'187.69813'
p581
sg230
S'-99.99'
p582
sg232
S'1559'
p583
sg234
S'0.22'
p584
sg236
S'12'
p585
sg238
S'r_sdss_dev'
p586
sg240
S'1.3'
p587
sg242
S'-99'
p588
sg244
S'13'
p589
sg246
S'1259'
p590
sg248
S'163.8'
p591
sg250
g251
sg252
g549
sg253
S'0.0196'
p592
sg255
S'-99.99'
p593
sg257
S'-99.99'
p594
sg259
S'74.486215'
p595
sg261
S'-99.99'
p596
sg263
F22.2
sg264
S'-99.99'
p597
sg266
S'17.08'
p598
sa(dp599
g96
S'30'
p600
sg98
S'12'
p601
sg100
S'16.8'
p602
sg102
S'-99'
p603
sg104
F29.438
sg105
F1.991688300663535
sg106
S'61'
p604
sg108
S'0.004183'
p605
sg110
S'B_J_25'
p606
sg112
g534
sg114
S'284.144051'
p607
sg116
S'B_t'
p608
sg118
S'-99.99'
p609
sg120
S'16.681'
p610
sg122
g538
sg124
g539
sg126
S'16.821'
p611
sg128
S'16.8'
p612
sg130
S'48.5208'
p613
sg132
S'-99'
p614
sg134
S'TFest'
p615
sg136
S'0.00049'
p616
sg138
F0.21271244691469227
sg139
S'1.583'
p617
sg141
S'21.886'
p618
sg143
S'23.86'
p619
sg145
S'PGC041360'
p620
sg147
S'0.057'
p621
sg149
S'12.04502'
p622
sg151
S'42.072'
p623
sg153
S'16.9'
p624
sg155
S'78'
p625
sg157
g172
sg159
g135
sg160
S'12'
p626
sg162
S'0.0031'
p627
sg164
g556
sg166
g557
sg168
F1.2956519369264337e-95
sg169
S'0.51'
p628
sg171
g172
sg173
S'16.71'
p629
sg175
g172
sg176
g560
sg178
S'17.9'
p630
sg180
F1286.0
sg181
S'16.8'
p631
sg183
g563
sg185
S'0.63'
p632
sg187
S'0.0075'
p633
sg189
S'Blue_Compact_Dwarf'
p634
sg191
S'17.9'
p635
sg193
S'B_J_25'
p636
sg195
S'9.911'
p637
sg197
g568
sg199
S'VCC1313'
p638
sg201
S'17.0'
p639
sg203
g571
sg205
S'18'
p640
sg207
g573
sg209
S'r_sdss_iso'
p641
sg211
S'r_sdss_iso'
p642
sg213
g214
sg215
g576
sg217
g25
sg218
S'0.1'
p643
sg220
S'0.0003'
p644
sg222
S'       '
p645
sg224
g579
sg226
S"['SDSSJ123048.61+120242.8']"
p646
sg228
S'187.70217'
p647
sg230
S'0.0003'
p648
sg232
S'1554'
p649
sg234
S'0.00026'
p650
sg236
S'59'
p651
sg238
S'rc3_dr_25'
p652
sg240
S'0.27'
p653
sg242
S'-99'
p654
sg244
S'16.9'
p655
sg246
S'1254'
p656
sg248
S'19.43'
p657
sg250
g251
sg252
g621
sg253
S'0.0235'
p658
sg255
S'0.0031'
p659
sg257
S'0.1'
p660
sg259
S'74.159451'
p661
sg261
S'13.13'
p662
sg263
F8.0
sg264
S'0.0029'
p663
sg266
S'0.8073'
p664
sa(dp665
g96
S'30'
p666
sg98
S'12'
p667
sg100
S'16.4'
p668
sg102
S'100002'
p669
sg104
F102.384
sg105
F30.173112234040428
sg106
S'36'
p670
sg108
S'0.0045'
p671
sg110
S'B_(m_B)'
p672
sg112
g534
sg114
S'283.385189'
p673
sg116
S'B_(B_T)'
p674
sg118
S'14.9'
p675
sg120
S'14.046'
p676
sg122
g538
sg124
g539
sg126
S'13.373'
p677
sg128
S'16.4'
p678
sg130
S'17.4168'
p679
sg132
S'140'
p680
sg134
S'SBF'
p681
sg136
S'0.37'
p682
sg138
F0.19990541991855112
sg139
S'9.692'
p683
sg141
S'23.225'
p684
sg143
S'83.3'
p685
sg145
S'NGC4478'
p686
sg147
S'1.3'
p687
sg149
S'12.32855'
p688
sg151
S'42.78'
p689
sg153
S'16.11'
p690
sg155
S'140'
p691
sg157
S'19'
p692
sg159
g135
sg160
S'12'
p693
sg162
S'0.55'
p694
sg164
g556
sg166
g557
sg168
F9.046205293878549e-06
sg169
S'0.85'
p695
sg171
S'6'
p696
sg173
S'14.873'
p697
sg175
g172
sg176
g560
sg178
S'12.2'
p698
sg180
F1286.0
sg181
S'8.87'
p699
sg183
g563
sg185
S'5.0'
p700
sg187
S'0.03'
p701
sg189
S'E2'
p702
sg191
S'12.2'
p703
sg193
S'B_(HST)'
p704
sg195
S'99.96'
p705
sg197
g568
sg199
S'NGC4478'
p706
sg201
S'23.3'
p707
sg203
g571
sg205
S'12.4'
p708
sg207
g573
sg209
S'K_2mass_tot'
p709
sg211
S'K_2mass_tot'
p710
sg213
g214
sg215
g576
sg217
g25
sg218
S'2.74'
p711
sg220
S'0.44'
p712
sg222
S'.E.2...'
p713
sg224
g579
sg226
S"['NGC4478', 'UGC07645', '2MASXJ12301743+1219428', 'SDSSJ123017.41+121942.7']"
p714
sg228
S'187.57257'
p715
sg230
S'0.43'
p716
sg232
S'1649'
p717
sg234
S'0.023'
p718
sg236
S'35'
p719
sg238
S'K_2mass_tot'
p720
sg240
S'6.1'
p721
sg242
S'197'
p722
sg244
S'15.4'
p723
sg246
S'1349'
p724
sg248
S'121.9'
p725
sg250
g251
sg252
g687
sg253
S'0.0207'
p726
sg255
S'0.57'
p727
sg257
S'2.74'
p728
sg259
S'74.392153'
p729
sg261
S'114.33'
p730
sg263
F0.6
sg264
S'0.48'
p731
sg266
S'7.948'
p732
saa(lp733
(dp734
g96
S'36'
p735
sg98
S'12'
p736
sg100
S'-99.99'
p737
sg102
S'-99'
p738
sg104
F131.693
sg105
F25.599397118994816
sg106
S'45'
p739
sg108
S'0.024591'
p740
sg110
g135
sg112
g357
sg114
S'218.322536'
p741
sg116
g135
sg118
S'-99.99'
p742
sg120
S'16.007'
p743
sg122
S'Lya'
p744
sg124
g294
sg126
S'15.395'
p745
sg128
S'107.93'
p746
sg130
S'12.2616'
p747
sg132
S'-99'
p748
sg134
g135
sg136
S'-99.99'
p749
sg138
F0.03134345266062838
sg139
S'8.686'
p750
sg141
S'107.931'
p751
sg143
S'77.23'
p752
sg145
S'IC3565'
p753
sg147
S'0.63'
p754
sg149
S'26.75612'
p755
sg151
S'22.032'
p756
sg153
S'-99.99'
p757
sg155
S'25'
p758
sg157
S'45'
p759
sg159
g135
sg160
S'26'
p760
sg162
S'-99.99'
p761
sg164
S'34.6'
p762
sg166
S'9'
p763
sg168
F1.842938304890524e-12
sg169
S'-99.99'
p764
sg171
S'4'
p765
sg173
S'16.711'
p766
sg175
g298
sg176
S'2.01E+12'
p767
sg178
S'-99.99'
p768
sg180
F7223.0
sg181
S'-99.99'
p769
sg183
S'1.07E+13'
p770
sg185
S'0.6'
p771
sg187
S'0.25'
p772
sg189
g135
sg191
S'-99.99'
p773
sg193
g135
sg195
S'11.95'
p774
sg197
S'51'
p775
sg199
S'IC3565'
p776
sg201
S'-99.99'
p777
sg203
S'26.69333333'
p778
sg205
S'-99.99'
p779
sg207
S'0.20915'
p780
sg209
S'K_2mass_tot'
p781
sg211
S'K_2mass_tot'
p782
sg213
g214
sg215
S'20.8'
p783
sg217
g26
sg218
S'10.79'
p784
sg220
S'-99.99'
p785
sg222
g135
sg224
S'189.0166667'
p786
sg226
S"['IC3565', '2MASXJ12361227+2645221', 'SDSSJ123612.26+264521.9']"
p787
sg228
S'189.05109'
p788
sg230
S'-99.99'
p789
sg232
S'7663'
p790
sg234
S'0.12'
p791
sg236
S'44'
p792
sg238
S'r_sdss_iso'
p793
sg240
S'0.83'
p794
sg242
S'-99'
p795
sg244
S'17.2'
p796
sg246
S'7372'
p797
sg248
S'16.6'
p798
sg250
g251
sg252
g754
sg253
S'0.0172'
p799
sg255
S'-99.99'
p800
sg257
S'-99.99'
p801
sg259
S'86.58476'
p802
sg261
S'-99.99'
p803
sg263
F1.1
sg264
S'-99.99'
p804
sg266
S'6.254'
p805
sa(dp806
g96
S'36'
p807
sg98
S'12'
p808
sg100
S'-99.99'
p809
sg102
S'-99'
p810
sg104
F177.665
sg105
F130.05851860989347
sg106
S'77'
p811
sg108
S'0.025151'
p812
sg110
g135
sg112
g357
sg114
S'217.76268'
p813
sg116
g135
sg118
S'-99.99'
p814
sg120
S'-99.99'
p815
sg122
g744
sg124
g294
sg126
S'-99.99'
p816
sg128
S'110.29'
p817
sg130
S'2.2104'
p818
sg132
S'-99'
p819
sg134
g135
sg136
S'-99.99'
p820
sg138
F0.02476037196807416
sg139
S'25.67'
p821
sg141
S'110.297'
p822
sg143
S'163.12'
p823
sg145
S'2MFGC09922'
p824
sg147
S'0.77'
p825
sg149
S'26.78539'
p826
sg151
S'7.404'
p827
sg153
S'-99.99'
p828
sg155
S'25'
p829
sg157
S'47'
p830
sg159
g135
sg160
S'26'
p831
sg162
S'-99.99'
p832
sg164
g762
sg166
g763
sg168
F0.012546828347054093
sg169
S'-99.99'
p833
sg171
g298
sg173
S'-99.99'
p834
sg175
g298
sg176
g767
sg178
S'-99.99'
p835
sg180
F7223.0
sg181
S'-99.99'
p836
sg183
g770
sg185
S'0.72'
p837
sg187
S'-99.99'
p838
sg189
g135
sg191
S'-99.99'
p839
sg193
g135
sg195
S'14.4'
p840
sg197
g775
sg199
S'2MFGC09922'
p841
sg201
S'-99.99'
p842
sg203
g778
sg205
S'-99.99'
p843
sg207
g780
sg209
S'K_2mass_tot'
p844
sg211
S'K_2mass_tot'
p845
sg213
g214
sg215
g783
sg217
g26
sg218
S'11.02'
p846
sg220
S'-99.99'
p847
sg222
g135
sg224
g786
sg226
S"['2MASXJ12360219+2647071', 'SDSSJ123602.20+264707.3']"
p848
sg228
S'189.00921'
p849
sg230
S'-99.99'
p850
sg232
S'7831'
p851
sg234
S'-99.99'
p852
sg236
S'73'
p853
sg238
S'K_2mass_tot'
p854
sg240
S'2.4'
p855
sg242
S'-99'
p856
sg244
S'-99.99'
p857
sg246
S'7540'
p858
sg248
S'48.0'
p859
sg250
g251
sg252
g825
sg253
S'0.0163'
p860
sg255
S'-99.99'
p861
sg257
S'-99.99'
p862
sg259
S'86.551124'
p863
sg261
S'-99.99'
p864
sg263
F29.1
sg264
S'-99.99'
p865
sg266
S'7.7'
p866
sa(dp867
g96
S'35'
p868
sg98
S'12'
p869
sg100
S'110.0'
p870
sg102
S'100082'
p871
sg104
F433.643
sg105
F404.11450691109815
sg106
S'47'
p872
sg108
S'0.024987'
p873
sg110
S'B_(m_B^0)'
p874
sg112
g357
sg114
S'215.636722'
p875
sg116
S'B_(Johnson)'
p876
sg118
S'76.7'
p877
sg120
S'12.94'
p878
sg122
g744
sg124
g294
sg126
S'12.294'
p879
sg128
S'110'
p880
sg130
S'45.8568'
p881
sg132
S'80'
p882
sg134
S'TF'
p883
sg136
S'0.64'
p884
sg138
F0.013757855882211368
sg139
S'54.66'
p885
sg141
S'109.605'
p886
sg143
S'274.78'
p887
sg145
S'NGC4556'
p888
sg147
S'1.7'
p889
sg149
S'26.90889'
p890
sg151
S'32.004'
p891
sg153
S'108.667'
p892
sg155
S'70'
p893
sg157
S'54'
p894
sg159
g135
sg160
S'26'
p895
sg162
S'4.4'
p896
sg164
g762
sg166
g763
sg168
F0.052492844841038735
sg169
S'0.83'
p897
sg171
g765
sg173
S'13.747'
p898
sg175
g298
sg176
g767
sg178
S'14.1'
p899
sg180
F7223.0
sg181
S'102.0'
p900
sg183
g770
sg185
S'3.6'
p901
sg187
S'3.8'
p902
sg189
S'E+:'
p903
sg191
S'13.9'
p904
sg193
S'B_(m_B)'
p905
sg195
S'71.75'
p906
sg197
g775
sg199
S'NGC4556'
p907
sg201
S'114.0'
p908
sg203
g778
sg205
S'14.6'
p909
sg207
g780
sg209
S'K_2mass_tot'
p910
sg211
S'K_2mass_tot'
p911
sg213
g214
sg215
g783
sg217
g26
sg218
S'4.98'
p912
sg220
S'1.0'
p913
sg222
S'.E+..*.'
p914
sg224
g786
sg226
S"['NGC4556', 'UGC07765', '2MASXJ12354585+2654317', 'SDSSJ123545.85+265431.9']"
p915
sg228
S'188.94107'
p916
sg230
S'1.1'
p917
sg232
S'7782'
p918
sg234
S'0.8'
p919
sg236
S'46'
p920
sg238
S'K_2mass_tot'
p921
sg240
S'5.1'
p922
sg242
S'12'
p923
sg244
S'14.2'
p924
sg246
S'7491'
p925
sg248
S'102.5'
p926
sg250
g251
sg252
g889
sg253
S'0.0151'
p927
sg255
S'5.0'
p928
sg257
S'4.989'
p929
sg259
S'86.502512'
p930
sg261
S'72.14'
p931
sg263
F87.4
sg264
S'2.7'
p932
sg266
S'38.26'
p933
saas.