(dp0
S'Vhels'
p1
(lp2
F1284.0
aF1284.0
aF7312.0
aF616.0
aF616.0
aF1736.0
aF2410.0
asS'impacts'
p3
(lp4
F100.931
aF100.931
aF366.291
aF20.517
aF20.517
aF330.608
aF247.452
asS'group_dists'
p5
(lp6
F14.9
aF14.9
aF76.7
aF8.9
aF8.9
aF21.0
aF25.7
asS'MTypes'
p7
(lp8
S'E+0-1_pec;NLRG_Sy'
p9
aS'E+0-1_pec;NLRG_Sy'
p10
aS'SA(s)0^0^:'
p11
aS'SB(s)m;LINER_HII'
p12
aS'SB(s)m;LINER_HII'
p13
aS'SAB(s)bc;HII_LINER'
p14
aS'SA(s)a_Sy1'
p15
asS'e_Lya_Ws'
p16
(lp17
F20.0
aF16.0
aF9.0
aF25.0
aF30.0
aF2.0
aF5.0
asS'Nas'
p18
(lp19
F46400000000000.0
aF235000000000000.0
aF10700000000000.0
aF262000000000000.0
aF262000000000000.0
aF143000000000000.0
aF6410000000000.0
asS'Lya_Ws'
p20
(lp21
F176.0
aF525.0
aF51.0
aF568.0
aF585.0
aF369.0
aF31.0
asS'bestDists'
p22
(lp23
F16.4
aF16.4
aF110.0
aF11.3
aF11.3
aF13.6
aF18.4
asS'adjustedIncs'
p24
(lp25
F31.0
aF31.0
aF17.0
aF90.0
aF90.0
aF74.0
aF74.0
asS'targets'
p26
(lp27
S'MS1228.6+1219'
p28
aS'MS1228.6+1219'
p29
aS'RX_J1236.0+2641'
p30
aS'CSO295'
p31
aS'CSO295'
p32
aS'3C273.0'
p33
aS'PG1216+069'
p34
asS'e_bs'
p35
(lp36
F2.4
aF1.4
aF3.0
aF3.7
aF3.9
aF2.2
aF1.4
asS'incs'
p37
(lp38
F31.0
aF31.0
aF16.0
aF78.0
aF78.0
aF70.0
aF70.0
asS'azimuths'
p39
(lp40
F11.1
aF11.1
aF45.7
aF81.6
aF81.6
aF5.6
aF85.3
asS'group_nums'
p41
(lp42
S'100002'
p43
aS'100002'
p44
aS'100082'
p45
aS'112910'
p46
aS'112910'
p47
aS'170002'
p48
aS'120002'
p49
asS'Ws'
p50
(lp51
F57.5
aF94.4
aF34.6
aF106.8
aF129.0
aF70.0
aF22.7
asS'ls'
p52
(lp53
F0.19277267513827911
aF0.7943400512297468
aF0.05953674544917223
aF0.9804125209542504
aF0.9358670472419909
aF0.023991275666620748
aF0.025568341864647147
asS'Lya_vs'
p54
(lp55
F1046.0
aF1286.0
aF7223.0
aF600.0
aF662.0
aF1580.0
aF2548.0
asS'R_virs'
p56
(lp57
F210.39
aF210.39
aF226.16
aF177.36
aF177.36
aF187.12
aF138.54
asS'Bmags'
p58
(lp59
F9.59
aF9.59
aF14.3
aF11.7
aF11.7
aF11.4
aF12.6
asS'cuss'
p60
(lp61
F226.1579981517346
aF226.1579981517346
aF264.6439567569983
aF156.0082523201898
aF156.0082523201898
aF175.280107165645
aF91.1925083326476
asS'vcorrs'
p62
(lp63
F1584.0
aF1584.0
aF7603.0
aF871.0
aF871.0
aF2031.0
aF2708.0
asS'e_Nas'
p64
(lp65
F6410000000000.0
aF28400000000000.0
aF2010000000000.0
aF42500000000000.0
aF43300000000000.0
aF1050000000000.0
aF1030000000000.0
asS'e_bestDists'
p66
(lp67
F2.79
aF2.79
aF7.34
aF4.21
aF4.21
aF3.3
aF8.02
asS'group_mems'
p68
(lp69
S'197'
p70
aS'197'
p71
aS'12'
p72
aS'1'
p73
ag73
aS'4'
p74
aS'39'
p75
asS'e_Lstar_meds'
p76
(lp77
F4.8
aF4.8
aF1.2
aF0.72
aF0.72
aF0.91
aF1.0
asS'Dec_targets'
p78
(lp79
F12.051944444444445
aF12.051944444444445
aF26.693333333333335
aF36.67777777777778
aF36.67777777777778
aF2.0525
aF6.643888888888889
asS'PAs'
p80
(lp81
F153.0
aF153.0
aF90.0
aF43.0
aF43.0
aF70.0
aF50.0
asS'Lstar_meds'
p82
(lp83
F6.2
aF6.2
aF3.8
aF0.42
aF0.42
aF0.81
aF0.5
asS'RA_galaxies'
p84
(lp85
F187.70593
aF187.70593
aF189.16625
aF163.12971
aF163.12971
aF188.53509
aF184.29117
asS'bs'
p86
(lp87
F34.5
aF56.7
aF20.8
aF64.1
aF77.5
aF42.0
aF13.6
asS'e_Ws'
p88
(lp89
F3.9
aF2.4
aF5.0
aF6.1
aF6.5
aF3.6
aF2.4
asS'Dec_galaxies'
p90
(lp91
F12.39112
aF12.39112
aF26.82994
aF36.61878
aF36.61878
aF2.65366
aF7.19158
asS'MajDiams'
p92
(lp93
F37.12
aF37.12
aF41.22
aF28.98
aF28.98
aF31.32
aF20.26
asS'RA_targets'
p94
(lp95
F187.80458333333334
aF187.80458333333334
aF189.01708333333332
aF163.02291666666667
aF163.02291666666667
aF187.27791666666667
aF184.83708333333334
asS'e_Lya_vs'
p96
(lp97
F2.0
aF2.0
aF1.0
aF1.0
aF7.0
aF1.0
aF4.0
asS'z_targets'
p98
(lp99
F0.11612
aF0.11612
aF0.20915
aF0.60999
aF0.60999
aF0.15834
aF0.3313
asS'Names'
p100
(lp101
S'NGC4486'
p102
aS'NGC4486'
p103
aS'IC3585'
p104
aS'NGC3432'
p105
aS'NGC3432'
p106
aS'NGC4527'
p107
aS'NGC4235'
p108
asS'l_cuss'
p109
(lp110
F0.19883685626508646
aF0.8193281463707167
aF0.12078664404544016
aF0.9765830553408188
aF0.9322115750814878
aF0.015513641382541077
aF0.00039396463280967316
asS'others'
p111
(lp112
(lp113
(dp114
S'RAm'
p115
S'31'
p116
sS'RAh'
p117
S'12'
p118
sS'RID_median'
p119
S'-99.99'
p120
sS'group_num'
p121
S'100002'
p122
sS'impact'
p123
F143.636
sS'cus'
p124
F50.099014750791255
sS'adjustedInc'
p125
S'71'
p126
sS'z'
p127
S'0.003486'
p128
sS'Bmag_max_key'
p129
S'B_(B_T)'
p130
sS'e_W'
p131
S'3.9'
p132
sS'GLON'
p133
S'285.201512'
p134
sS'Bmag_min_key'
p135
S'B_(m_B)'
p136
sS'group_dist'
p137
S'14.9'
p138
sS'rmag_sdss'
p139
S'12.506'
p140
sS'identified'
p141
S'Lya'
p142
sS'e_b'
p143
S'2.4'
p144
sS'zmag_sdss'
p145
S'11.947'
p146
sS'bestDist'
p147
S'18.94'
p148
sS'RAs'
p149
S'32.5272'
p150
sS'RC3_pa'
p151
S'65'
p152
sS'distIndicator'
p153
S'x'
p154
sS'e_Lstar_min'
p155
S'0.12'
p156
sS'l'
p157
F0.15490468605143468
sS'MajDiam'
p158
S'13.59'
p159
sS'distvcorr'
p160
S'18.942'
p161
sS'R_vir'
p162
S'105.18'
p163
sS'Name'
p164
S'NGC4497'
p165
sS'e_MajDiam'
p166
S'0.52'
p167
sS'DEdeg'
p168
S'11.62472'
p169
sS'DEs'
p170
S'28.992'
p171
sS'RID_mean'
p172
S'-99.99'
p173
sS'PA'
p174
S'75'
p175
sS'DEm'
p176
S'37'
p177
sS'lumClass'
p178
g154
sS'DEd'
p179
S'11'
p180
sS'Lstar_med'
p181
S'0.3'
p182
sS'W'
p183
S'57.5'
p184
sS'e_Lya_W'
p185
S'20'
p186
sS'l_cus'
p187
F0.0002692265924263614
sS'RC3_r25'
p188
S'0.46'
p189
sS'e_inc'
p190
S'2'
p191
sS'gmag_sdss'
p192
S'13.215'
p193
sS'e_Lya_v'
p194
g191
sS'e_Na'
p195
S'6.41E+12'
p196
sS'Bmag'
p197
S'13.2'
p198
sS'Lya_v'
p199
F1046.0
sS'RID_min'
p200
S'-99.99'
p201
sS'Na'
p202
S'4.64E+13'
p203
sS'e_MinDiam_ang'
p204
S'2.8'
p205
sS'Lstar_sdss'
p206
S'0.2'
p207
sS'MType'
p208
S'SAB(s)0+:'
p209
sS'Bmag_max'
p210
S'13.2'
p211
sS'Bmag_key'
p212
S'B_(B_T^0)'
p213
sS'MinDiam_ang'
p214
S'56.24'
p215
sS'Lya_W'
p216
S'176'
p217
sS'NEDname'
p218
S'NGC4497'
p219
sS'RID_max'
p220
S'-99.99'
p221
sS'Dec_target'
p222
S'12.051944444444445'
p223
sS'Bmag_min'
p224
S'13.4'
p225
sS'z_target'
p226
S'0.11612'
p227
sS'paKey'
p228
S'K_2mass_tot'
p229
sS'diameterKey'
p230
S'K_2mass_tot'
p231
sS'flag'
p232
S'0'
p233
sS'b'
p234
S'34.5'
p235
sS'target'
p236
g28
sS'e_bestDist'
p237
S'1.89'
p238
sS'e_Lstar_max'
p239
S'0.15'
p240
sS'RC3_type'
p241
S'.LXS+*.'
p242
sS'RA_target'
p243
S'187.80458333333334'
p244
sS'altNames'
p245
S"['NGC4497', 'IC3452', 'UGC07665', '2MASXJ12313253+1137291', 'SDSSJ123132.52+113728.9']"
p246
sS'RAdeg'
p247
S'187.88553'
p248
sS'e_Lstar_med'
p249
S'0.14'
p250
sS'vcorr'
p251
S'1345'
p252
sS'e_Lstar_sdss'
p253
S'0.093'
p254
sS'inc'
p255
S'68'
p256
sS'ratioKey'
p257
S'K_2mass_tot'
p258
sS'e_MajDiam_ang'
p259
S'7.4'
p260
sS'group_mem'
p261
S'197'
p262
sS'Bmag_sdss'
p263
S'13.7'
p264
sS'Vhel'
p265
S'1045'
p266
sS'MajDiam_ang'
p267
S'148.0'
p268
sS'DE-'
p269
S'+'
p270
sS'e_MinDiam'
p271
g167
sS'E(B-V)'
p272
S'0.0369'
p273
sS'Lstar_max'
p274
S'0.31'
p275
sS'RID_std'
p276
S'-99.99'
p277
sS'GLAT'
p278
S'73.807687'
p279
sS'RC3_d25'
p280
S'122.5'
p281
sS'azimuth'
p282
F85.5
sS'Lstar_min'
p283
S'0.25'
p284
sS'MinDiam'
p285
S'5.165'
p286
sa(dp287
g115
S'31'
p288
sg117
S'12'
p289
sg119
S'-99.99'
p290
sg121
S'-99'
p291
sg123
F22.059
sg124
F4.134459937646028
sg125
S'50'
p292
sg127
S'0.002591'
p293
sg129
S'B_t'
p294
sg131
g132
sg133
S'284.766394'
p295
sg135
S'B_J_25'
p296
sg137
S'-99.99'
p297
sg139
S'16.371'
p298
sg141
g142
sg143
g144
sg145
S'16.007'
p299
sg147
S'15.16'
p300
sg149
S'33.3528'
p301
sg151
S'-99'
p302
sg153
g154
sg155
S'0.0018'
p303
sg157
F0.10587677862750439
sg158
S'2.576'
p304
sg160
S'15.168'
p305
sg162
S'33.39'
p306
sg164
S'PGC041458'
p307
sg166
S'0.22'
p308
sg168
S'12.06378'
p309
sg170
S'49.608'
p310
sg172
S'-99.99'
p311
sg174
S'154'
p312
sg176
S'3'
p313
sg178
g154
sg179
S'12'
p314
sg181
S'0.0064'
p315
sg183
g184
sg185
g186
sg187
F7.104062631394904e-14
sg188
S'-99.99'
p316
sg190
g73
sg192
S'16.991'
p317
sg194
g191
sg195
g196
sg197
S'16.9'
p318
sg199
F1046.0
sg200
S'-99.99'
p319
sg202
g203
sg204
S'0.58'
p320
sg206
S'0.004'
p321
sg208
S'dE6,N'
p322
sg210
S'16.8'
p323
sg212
S'B_tot__(INT/WFC)'
p324
sg214
S'23.12'
p325
sg216
g217
sg218
S'VCC1369'
p326
sg220
S'-99.99'
p327
sg222
g223
sg224
S'17.4'
p328
sg226
g227
sg228
S'r_sdss_iso'
p329
sg230
S'r_sdss_iso'
p330
sg232
g233
sg234
g235
sg236
g28
sg237
S'1.51'
p331
sg239
S'0.0033'
p332
sg241
g154
sg243
g244
sg245
S"['SDSSJ123133.35+120349.5']"
p333
sg247
S'187.88897'
p334
sg249
S'0.0029'
p335
sg251
S'1077'
p336
sg253
S'0.0018'
p337
sg255
S'49'
p338
sg257
S'r_sdss_iso'
p339
sg259
S'0.35'
p340
sg261
S'-99'
p341
sg263
S'17.4'
p342
sg265
S'777'
p343
sg267
S'35.03'
p344
sg269
g270
sg271
g308
sg272
S'0.0242'
p345
sg274
S'0.0069'
p346
sg276
S'-99.99'
p347
sg278
S'74.230105'
p348
sg280
S'-99.99'
p349
sg282
F72.2
sg283
S'0.0039'
p350
sg285
S'1.7'
p351
sa(dp352
g115
S'30'
p353
sg117
S'12'
p354
sg119
S'-99.99'
p355
sg121
S'-99'
p356
sg123
F134.905
sg124
F72.76894534758628
sg125
S'12'
p357
sg127
S'0.0042'
p358
sg129
g154
sg131
g132
sg133
S'283.753686'
p359
sg135
g154
sg137
S'-99.99'
p360
sg139
S'11.752'
p361
sg141
g142
sg143
g144
sg145
S'10.94'
p362
sg147
S'21.95'
p363
sg149
S'47.5512'
p364
sg151
S'-99'
p365
sg153
g154
sg155
S'-99.99'
p366
sg157
F0.10013624810395332
sg158
S'17.43'
p367
sg160
S'21.957'
p368
sg162
S'124.88'
p369
sg164
S'SDSSJ123047.55+122318.1'
p370
sg166
S'1.9'
p371
sg168
S'12.38836'
p372
sg170
S'18.096'
p373
sg172
S'-99.99'
p374
sg174
S'5'
p375
sg176
S'23'
p376
sg178
g154
sg179
S'12'
p377
sg181
S'-99.99'
p378
sg183
g184
sg185
g186
sg187
F0.01034655632516298
sg188
S'-99.99'
p379
sg190
g313
sg192
S'12.544'
p380
sg194
g191
sg195
g196
sg197
S'-99.99'
p381
sg199
F1046.0
sg200
S'-99.99'
p382
sg202
g203
sg204
S'1.3'
p383
sg206
S'0.47'
p384
sg208
g154
sg210
S'-99.99'
p385
sg212
g154
sg214
S'160.5'
p386
sg216
g217
sg218
S'SDSSJ123047.55+122318.1'
p387
sg220
S'-99.99'
p388
sg222
g223
sg224
S'-99.99'
p389
sg226
g227
sg228
S'r_sdss_dev'
p390
sg230
S'r_sdss_pet'
p391
sg232
g233
sg234
g235
sg236
g28
sg237
S'2.19'
p392
sg239
S'-99.99'
p393
sg241
g154
sg243
g244
sg245
S"['SDSSJ123047.55+122318.1']"
p394
sg247
S'187.69813'
p395
sg249
S'-99.99'
p396
sg251
S'1559'
p397
sg253
S'0.22'
p398
sg255
S'12'
p399
sg257
S'r_sdss_dev'
p400
sg259
S'1.3'
p401
sg261
S'-99'
p402
sg263
S'13'
p403
sg265
S'1259'
p404
sg267
S'163.8'
p405
sg269
g270
sg271
g371
sg272
S'0.0196'
p406
sg274
S'-99.99'
p407
sg276
S'-99.99'
p408
sg278
S'74.486215'
p409
sg280
S'-99.99'
p410
sg282
F22.2
sg283
S'-99.99'
p411
sg285
S'17.08'
p412
sa(dp413
g115
S'30'
p414
sg117
S'12'
p415
sg119
S'16.8'
p416
sg121
S'-99'
p417
sg123
F29.438
sg124
F1.991688300663535
sg125
S'61'
p418
sg127
S'0.004183'
p419
sg129
S'B_J_25'
p420
sg131
g132
sg133
S'284.144051'
p421
sg135
S'B_t'
p422
sg137
S'-99.99'
p423
sg139
S'16.681'
p424
sg141
g142
sg143
g144
sg145
S'16.821'
p425
sg147
S'16.8'
p426
sg149
S'48.5208'
p427
sg151
S'-99'
p428
sg153
S'TFest'
p429
sg155
S'0.00049'
p430
sg157
F0.07399083536634846
sg158
S'1.583'
p431
sg160
S'21.886'
p432
sg162
S'23.86'
p433
sg164
S'PGC041360'
p434
sg166
S'0.057'
p435
sg168
S'12.04502'
p436
sg170
S'42.072'
p437
sg172
S'16.9'
p438
sg174
S'78'
p439
sg176
g191
sg178
g154
sg179
S'12'
p440
sg181
S'0.0031'
p441
sg183
g184
sg185
g186
sg187
F4.506852821624547e-96
sg188
S'0.51'
p442
sg190
g191
sg192
S'16.71'
p443
sg194
g191
sg195
g196
sg197
S'17.9'
p444
sg199
F1046.0
sg200
S'16.8'
p445
sg202
g203
sg204
S'0.63'
p446
sg206
S'0.0075'
p447
sg208
S'Blue_Compact_Dwarf'
p448
sg210
S'17.9'
p449
sg212
S'B_J_25'
p450
sg214
S'9.911'
p451
sg216
g217
sg218
S'VCC1313'
p452
sg220
S'17.0'
p453
sg222
g223
sg224
S'18'
p454
sg226
g227
sg228
S'r_sdss_iso'
p455
sg230
S'r_sdss_iso'
p456
sg232
g233
sg234
g235
sg236
g28
sg237
S'0.1'
p457
sg239
S'0.0003'
p458
sg241
S'       '
p459
sg243
g244
sg245
S"['SDSSJ123048.61+120242.8']"
p460
sg247
S'187.70217'
p461
sg249
S'0.0003'
p462
sg251
S'1554'
p463
sg253
S'0.00026'
p464
sg255
S'59'
p465
sg257
S'rc3_dr_25'
p466
sg259
S'0.27'
p467
sg261
S'-99'
p468
sg263
S'16.9'
p469
sg265
S'1254'
p470
sg267
S'19.43'
p471
sg269
g270
sg271
g435
sg272
S'0.0235'
p472
sg274
S'0.0031'
p473
sg276
S'0.1'
p474
sg278
S'74.159451'
p475
sg280
S'13.13'
p476
sg282
F8.0
sg283
S'0.0029'
p477
sg285
S'0.8073'
p478
sa(dp479
g115
S'30'
p480
sg117
S'12'
p481
sg119
S'17.1'
p482
sg121
S'100002'
p483
sg123
F67.818
sg124
F18.8386547290405
sg125
S'38'
p484
sg127
S'0.002528'
p485
sg129
S'B_T__(Johnson)'
p486
sg131
g132
sg133
S'284.03156'
p487
sg135
S'B_(HST)'
p488
sg137
S'14.9'
p489
sg139
S'12.217'
p490
sg141
g142
sg143
g144
sg145
S'11.078'
p491
sg147
S'17.1'
p492
sg149
S'57.7104'
p493
sg151
S'-99'
p494
sg153
S'GCLF'
p495
sg155
S'0.087'
p496
sg157
F0.04522842883697785
sg158
S'7.08'
p497
sg160
S'14.901'
p498
sg162
S'67.07'
p499
sg164
S'NGC4486A'
p500
sg166
S'0.46'
p501
sg168
S'12.27036'
p502
sg170
S'13.296'
p503
sg172
S'16.871'
p504
sg174
g375
sg176
S'16'
p505
sg178
g154
sg179
S'12'
p506
sg181
S'0.26'
p507
sg183
g184
sg185
g186
sg187
F2.9592559063604426e-07
sg188
S'-99.99'
p508
sg190
g375
sg192
S'12.85'
p509
sg194
g191
sg195
g196
sg197
S'13.1'
p510
sg199
F1046.0
sg200
S'15.0'
p511
sg202
g203
sg204
S'3.4'
p512
sg206
S'0.23'
p513
sg208
S'E2'
p514
sg210
S'13.1'
p515
sg212
S'B_T__(Johnson)'
p516
sg214
S'68.32'
p517
sg216
g217
sg218
S'NGC4486A'
p518
sg220
S'18.4'
p519
sg222
g223
sg224
S'13.3'
p520
sg226
g227
sg228
S'K_2mass_tot'
p521
sg230
S'K_2mass_tot'
p522
sg232
g233
sg234
g235
sg236
g28
sg237
S'1.39'
p523
sg239
S'0.099'
p524
sg241
g154
sg243
g244
sg245
S"['NGC4486A', 'UGC07658', '2MASXJ12305772+1216132', 'SDSSJ123057.71+121613.2']"
p525
sg247
S'187.74046'
p526
sg249
S'0.099'
p527
sg251
S'1058'
p528
sg253
S'0.085'
p529
sg255
S'37'
p530
sg257
S'K_2mass_tot'
p531
sg259
S'4.3'
p532
sg261
S'197'
p533
sg263
S'13.3'
p534
sg265
S'758'
p535
sg267
S'85.4'
p536
sg269
g270
sg271
g501
sg272
S'0.0202'
p537
sg274
S'0.26'
p538
sg276
S'1.394'
p539
sg278
S'74.385832'
p540
sg280
S'-99.99'
p541
sg282
F21.0
sg283
S'0.23'
p542
sg285
S'5.664'
p543
saa(lp544
(dp545
g115
S'30'
p546
sg117
S'12'
p547
sg119
S'-99.99'
p548
sg121
S'-99'
p549
sg123
F134.905
sg124
F72.76894534758628
sg125
S'12'
p550
sg127
S'0.0042'
p551
sg129
g154
sg131
S'2.4'
p552
sg133
S'283.753686'
p553
sg135
g154
sg137
S'-99.99'
p554
sg139
S'11.752'
p555
sg141
S'Lya'
p556
sg143
S'1.4'
p557
sg145
S'10.94'
p558
sg147
S'21.95'
p559
sg149
S'47.5512'
p560
sg151
S'-99'
p561
sg153
g154
sg155
S'-99.99'
p562
sg157
F0.3056778408534248
sg158
S'17.43'
p563
sg160
S'21.957'
p564
sg162
S'124.88'
p565
sg164
S'SDSSJ123047.55+122318.1'
p566
sg166
S'1.9'
p567
sg168
S'12.38836'
p568
sg170
S'18.096'
p569
sg172
S'-99.99'
p570
sg174
g375
sg176
S'23'
p571
sg178
g154
sg179
S'12'
p572
sg181
S'-99.99'
p573
sg183
S'94.4'
p574
sg185
S'16'
p575
sg187
F0.031584097243796204
sg188
S'-99.99'
p576
sg190
g313
sg192
S'12.544'
p577
sg194
g191
sg195
S'2.84E+13'
p578
sg197
S'-99.99'
p579
sg199
F1286.0
sg200
S'-99.99'
p580
sg202
S'2.35E+14'
p581
sg204
S'1.3'
p582
sg206
S'0.47'
p583
sg208
g154
sg210
S'-99.99'
p584
sg212
g154
sg214
S'160.5'
p585
sg216
S'525'
p586
sg218
S'SDSSJ123047.55+122318.1'
p587
sg220
S'-99.99'
p588
sg222
S'12.051944444444445'
p589
sg224
S'-99.99'
p590
sg226
S'0.11612'
p591
sg228
S'r_sdss_dev'
p592
sg230
S'r_sdss_pet'
p593
sg232
g233
sg234
S'56.7'
p594
sg236
g29
sg237
S'2.19'
p595
sg239
S'-99.99'
p596
sg241
g154
sg243
S'187.80458333333334'
p597
sg245
S"['SDSSJ123047.55+122318.1']"
p598
sg247
S'187.69813'
p599
sg249
S'-99.99'
p600
sg251
S'1559'
p601
sg253
S'0.22'
p602
sg255
S'12'
p603
sg257
S'r_sdss_dev'
p604
sg259
S'1.3'
p605
sg261
S'-99'
p606
sg263
S'13'
p607
sg265
S'1259'
p608
sg267
S'163.8'
p609
sg269
g270
sg271
g567
sg272
S'0.0196'
p610
sg274
S'-99.99'
p611
sg276
S'-99.99'
p612
sg278
S'74.486215'
p613
sg280
S'-99.99'
p614
sg282
F22.2
sg283
S'-99.99'
p615
sg285
S'17.08'
p616
sa(dp617
g115
S'30'
p618
sg117
S'12'
p619
sg119
S'16.8'
p620
sg121
S'-99'
p621
sg123
F29.438
sg124
F1.991688300663535
sg125
S'61'
p622
sg127
S'0.004183'
p623
sg129
S'B_J_25'
p624
sg131
g552
sg133
S'284.144051'
p625
sg135
S'B_t'
p626
sg137
S'-99.99'
p627
sg139
S'16.681'
p628
sg141
g556
sg143
g557
sg145
S'16.821'
p629
sg147
S'16.8'
p630
sg149
S'48.5208'
p631
sg151
S'-99'
p632
sg153
S'TFest'
p633
sg155
S'0.00049'
p634
sg157
F0.21271244691469227
sg158
S'1.583'
p635
sg160
S'21.886'
p636
sg162
S'23.86'
p637
sg164
S'PGC041360'
p638
sg166
S'0.057'
p639
sg168
S'12.04502'
p640
sg170
S'42.072'
p641
sg172
S'16.9'
p642
sg174
S'78'
p643
sg176
g191
sg178
g154
sg179
S'12'
p644
sg181
S'0.0031'
p645
sg183
g574
sg185
g575
sg187
F1.2956519369264337e-95
sg188
S'0.51'
p646
sg190
g191
sg192
S'16.71'
p647
sg194
g191
sg195
g578
sg197
S'17.9'
p648
sg199
F1286.0
sg200
S'16.8'
p649
sg202
g581
sg204
S'0.63'
p650
sg206
S'0.0075'
p651
sg208
S'Blue_Compact_Dwarf'
p652
sg210
S'17.9'
p653
sg212
S'B_J_25'
p654
sg214
S'9.911'
p655
sg216
g586
sg218
S'VCC1313'
p656
sg220
S'17.0'
p657
sg222
g589
sg224
S'18'
p658
sg226
g591
sg228
S'r_sdss_iso'
p659
sg230
S'r_sdss_iso'
p660
sg232
g233
sg234
g594
sg236
g29
sg237
S'0.1'
p661
sg239
S'0.0003'
p662
sg241
S'       '
p663
sg243
g597
sg245
S"['SDSSJ123048.61+120242.8']"
p664
sg247
S'187.70217'
p665
sg249
S'0.0003'
p666
sg251
S'1554'
p667
sg253
S'0.00026'
p668
sg255
S'59'
p669
sg257
S'rc3_dr_25'
p670
sg259
S'0.27'
p671
sg261
S'-99'
p672
sg263
S'16.9'
p673
sg265
S'1254'
p674
sg267
S'19.43'
p675
sg269
g270
sg271
g639
sg272
S'0.0235'
p676
sg274
S'0.0031'
p677
sg276
S'0.1'
p678
sg278
S'74.159451'
p679
sg280
S'13.13'
p680
sg282
F8.0
sg283
S'0.0029'
p681
sg285
S'0.8073'
p682
sa(dp683
g115
S'30'
p684
sg117
S'12'
p685
sg119
S'16.4'
p686
sg121
S'100002'
p687
sg123
F102.384
sg124
F30.173112234040428
sg125
S'36'
p688
sg127
S'0.0045'
p689
sg129
S'B_(m_B)'
p690
sg131
g552
sg133
S'283.385189'
p691
sg135
S'B_(B_T)'
p692
sg137
S'14.9'
p693
sg139
S'14.046'
p694
sg141
g556
sg143
g557
sg145
S'13.373'
p695
sg147
S'16.4'
p696
sg149
S'17.4168'
p697
sg151
S'140'
p698
sg153
S'SBF'
p699
sg155
S'0.37'
p700
sg157
F0.19990541991855112
sg158
S'9.692'
p701
sg160
S'23.225'
p702
sg162
S'83.3'
p703
sg164
S'NGC4478'
p704
sg166
S'1.3'
p705
sg168
S'12.32855'
p706
sg170
S'42.78'
p707
sg172
S'16.11'
p708
sg174
S'140'
p709
sg176
S'19'
p710
sg178
g154
sg179
S'12'
p711
sg181
S'0.55'
p712
sg183
g574
sg185
g575
sg187
F9.046205293878549e-06
sg188
S'0.85'
p713
sg190
S'6'
p714
sg192
S'14.873'
p715
sg194
g191
sg195
g578
sg197
S'12.2'
p716
sg199
F1286.0
sg200
S'8.87'
p717
sg202
g581
sg204
S'5.0'
p718
sg206
S'0.03'
p719
sg208
S'E2'
p720
sg210
S'12.2'
p721
sg212
S'B_(HST)'
p722
sg214
S'99.96'
p723
sg216
g586
sg218
S'NGC4478'
p724
sg220
S'23.3'
p725
sg222
g589
sg224
S'12.4'
p726
sg226
g591
sg228
S'K_2mass_tot'
p727
sg230
S'K_2mass_tot'
p728
sg232
g233
sg234
g594
sg236
g29
sg237
S'2.74'
p729
sg239
S'0.44'
p730
sg241
S'.E.2...'
p731
sg243
g597
sg245
S"['NGC4478', 'UGC07645', '2MASXJ12301743+1219428', 'SDSSJ123017.41+121942.7']"
p732
sg247
S'187.57257'
p733
sg249
S'0.43'
p734
sg251
S'1649'
p735
sg253
S'0.023'
p736
sg255
S'35'
p737
sg257
S'K_2mass_tot'
p738
sg259
S'6.1'
p739
sg261
S'197'
p740
sg263
S'15.4'
p741
sg265
S'1349'
p742
sg267
S'121.9'
p743
sg269
g270
sg271
g705
sg272
S'0.0207'
p744
sg274
S'0.57'
p745
sg276
S'2.74'
p746
sg278
S'74.392153'
p747
sg280
S'114.33'
p748
sg282
F0.6
sg283
S'0.48'
p749
sg285
S'7.948'
p750
saa(lp751
(dp752
g115
S'36'
p753
sg117
S'12'
p754
sg119
S'-99.99'
p755
sg121
S'-99'
p756
sg123
F131.386
sg124
F25.599397118994816
sg125
S'45'
p757
sg127
S'0.024591'
p758
sg129
g154
sg131
g375
sg133
S'218.322536'
p759
sg135
g154
sg137
S'-99.99'
p760
sg139
S'16.007'
p761
sg141
S'Lya'
p762
sg143
g313
sg145
S'15.395'
p763
sg147
S'107.93'
p764
sg149
S'12.2616'
p765
sg151
S'-99'
p766
sg153
g154
sg155
S'-99.99'
p767
sg157
F0.031770762648058115
sg158
S'8.686'
p768
sg160
S'107.931'
p769
sg162
S'77.23'
p770
sg164
S'IC3565'
p771
sg166
S'0.63'
p772
sg168
S'26.75612'
p773
sg170
S'22.032'
p774
sg172
S'-99.99'
p775
sg174
S'25'
p776
sg176
S'45'
p777
sg178
g154
sg179
S'26'
p778
sg181
S'-99.99'
p779
sg183
S'34.6'
p780
sg185
S'9'
p781
sg187
F2.084658396859238e-12
sg188
S'-99.99'
p782
sg190
g74
sg192
S'16.711'
p783
sg194
g73
sg195
S'2.01E+12'
p784
sg197
S'-99.99'
p785
sg199
F7223.0
sg200
S'-99.99'
p786
sg202
S'1.07E+13'
p787
sg204
S'0.6'
p788
sg206
S'0.25'
p789
sg208
g154
sg210
S'-99.99'
p790
sg212
g154
sg214
S'11.95'
p791
sg216
S'51'
p792
sg218
S'IC3565'
p793
sg220
S'-99.99'
p794
sg222
S'26.693333333333335'
p795
sg224
S'-99.99'
p796
sg226
S'0.20915'
p797
sg228
S'K_2mass_tot'
p798
sg230
S'K_2mass_tot'
p799
sg232
g233
sg234
S'20.8'
p800
sg236
g30
sg237
S'10.79'
p801
sg239
S'-99.99'
p802
sg241
g154
sg243
S'189.01708333333332'
p803
sg245
S"['IC3565', '2MASXJ12361227+2645221', 'SDSSJ123612.26+264521.9']"
p804
sg247
S'189.05109'
p805
sg249
S'-99.99'
p806
sg251
S'7663'
p807
sg253
S'0.12'
p808
sg255
S'44'
p809
sg257
S'r_sdss_iso'
p810
sg259
S'0.83'
p811
sg261
S'-99'
p812
sg263
S'17.2'
p813
sg265
S'7372'
p814
sg267
S'16.6'
p815
sg269
g270
sg271
g772
sg272
S'0.0172'
p816
sg274
S'-99.99'
p817
sg276
S'-99.99'
p818
sg278
S'86.58476'
p819
sg280
S'-99.99'
p820
sg282
F0.8
sg283
S'-99.99'
p821
sg285
S'6.254'
p822
sa(dp823
g115
S'36'
p824
sg117
S'12'
p825
sg119
S'-99.99'
p826
sg121
S'-99'
p827
sg123
F177.718
sg124
F130.05851860989347
sg125
S'77'
p828
sg127
S'0.025151'
p829
sg129
g154
sg131
g375
sg133
S'217.76268'
p830
sg135
g154
sg137
S'-99.99'
p831
sg139
S'-99.99'
p832
sg141
g762
sg143
g313
sg145
S'-99.99'
p833
sg147
S'110.29'
p834
sg149
S'2.2104'
p835
sg151
S'-99'
p836
sg153
g154
sg155
S'-99.99'
p837
sg157
F0.024742850860609622
sg158
S'25.67'
p838
sg160
S'110.297'
p839
sg162
S'163.12'
p840
sg164
S'2MFGC09922'
p841
sg166
S'0.77'
p842
sg168
S'26.78539'
p843
sg170
S'7.404'
p844
sg172
S'-99.99'
p845
sg174
S'25'
p846
sg176
S'47'
p847
sg178
g154
sg179
S'26'
p848
sg181
S'-99.99'
p849
sg183
g780
sg185
g781
sg187
F0.01253286507834713
sg188
S'-99.99'
p850
sg190
g73
sg192
S'-99.99'
p851
sg194
g73
sg195
g784
sg197
S'-99.99'
p852
sg199
F7223.0
sg200
S'-99.99'
p853
sg202
g787
sg204
S'0.72'
p854
sg206
S'-99.99'
p855
sg208
g154
sg210
S'-99.99'
p856
sg212
g154
sg214
S'14.4'
p857
sg216
g792
sg218
S'2MFGC09922'
p858
sg220
S'-99.99'
p859
sg222
g795
sg224
S'-99.99'
p860
sg226
g797
sg228
S'K_2mass_tot'
p861
sg230
S'K_2mass_tot'
p862
sg232
g233
sg234
g800
sg236
g30
sg237
S'11.02'
p863
sg239
S'-99.99'
p864
sg241
g154
sg243
g803
sg245
S"['2MASXJ12360219+2647071', 'SDSSJ123602.20+264707.3']"
p865
sg247
S'189.00921'
p866
sg249
S'-99.99'
p867
sg251
S'7831'
p868
sg253
S'-99.99'
p869
sg255
S'73'
p870
sg257
S'K_2mass_tot'
p871
sg259
S'2.4'
p872
sg261
S'-99'
p873
sg263
S'-99.99'
p874
sg265
S'7540'
p875
sg267
S'48.0'
p876
sg269
g270
sg271
g842
sg272
S'0.0163'
p877
sg274
S'-99.99'
p878
sg276
S'-99.99'
p879
sg278
S'86.551124'
p880
sg280
S'-99.99'
p881
sg282
F29.4
sg283
S'-99.99'
p882
sg285
S'7.7'
p883
sa(dp884
g115
S'35'
p885
sg117
S'12'
p886
sg119
S'110.0'
p887
sg121
S'100082'
p888
sg123
F433.857
sg124
F404.11450691109815
sg125
S'47'
p889
sg127
S'0.024987'
p890
sg129
S'B_(m_B^0)'
p891
sg131
g375
sg133
S'215.636722'
p892
sg135
S'B_(Johnson)'
p893
sg137
S'76.7'
p894
sg139
S'12.94'
p895
sg141
g762
sg143
g313
sg145
S'12.294'
p896
sg147
S'110'
p897
sg149
S'45.8568'
p898
sg151
S'80'
p899
sg153
S'TF'
p900
sg155
S'0.64'
p901
sg157
F0.013724070411467367
sg158
S'54.66'
p902
sg160
S'109.605'
p903
sg162
S'274.78'
p904
sg164
S'NGC4556'
p905
sg166
S'1.7'
p906
sg168
S'26.90889'
p907
sg170
S'32.004'
p908
sg172
S'108.667'
p909
sg174
S'70'
p910
sg176
S'54'
p911
sg178
g154
sg179
S'26'
p912
sg181
S'4.4'
p913
sg183
g780
sg185
g781
sg187
F0.05243320621074266
sg188
S'0.83'
p914
sg190
g74
sg192
S'13.747'
p915
sg194
g73
sg195
g784
sg197
S'14.1'
p916
sg199
F7223.0
sg200
S'102.0'
p917
sg202
g787
sg204
S'3.6'
p918
sg206
S'3.8'
p919
sg208
S'E+:'
p920
sg210
S'13.9'
p921
sg212
S'B_(m_B)'
p922
sg214
S'71.75'
p923
sg216
g792
sg218
S'NGC4556'
p924
sg220
S'114.0'
p925
sg222
g795
sg224
S'14.6'
p926
sg226
g797
sg228
S'K_2mass_tot'
p927
sg230
S'K_2mass_tot'
p928
sg232
g233
sg234
g800
sg236
g30
sg237
S'4.98'
p929
sg239
S'1.0'
p930
sg241
S'.E+..*.'
p931
sg243
g803
sg245
S"['NGC4556', 'UGC07765', '2MASXJ12354585+2654317', 'SDSSJ123545.85+265431.9']"
p932
sg247
S'188.94107'
p933
sg249
S'1.1'
p934
sg251
S'7782'
p935
sg253
S'0.8'
p936
sg255
S'46'
p937
sg257
S'K_2mass_tot'
p938
sg259
S'5.1'
p939
sg261
S'12'
p940
sg263
S'14.2'
p941
sg265
S'7491'
p942
sg267
S'102.5'
p943
sg269
g270
sg271
g906
sg272
S'0.0151'
p944
sg274
S'5.0'
p945
sg276
S'4.989'
p946
sg278
S'86.502512'
p947
sg280
S'72.14'
p948
sg282
F87.5
sg283
S'2.7'
p949
sg285
S'38.26'
p950
saa(lp951
(dp952
g115
S'52'
p953
sg117
S'10'
p954
sg119
S'-99.99'
p955
sg121
S'-99'
p956
sg123
F21.742
sg124
F25.119044488853472
sg125
S'66'
p957
sg127
S'0.001947'
p958
sg129
g154
sg131
S'6.1'
p959
sg133
S'184.751984'
p960
sg135
g154
sg137
S'-99.99'
p961
sg139
S'12.132'
p962
sg141
S'Lya'
p963
sg143
S'3.7'
p964
sg145
S'11.796'
p965
sg147
S'11.81'
p966
sg149
S'33.1392'
p967
sg151
S'-99'
p968
sg153
g154
sg155
S'-99.99'
p969
sg157
F0.9166328354925924
sg158
S'8.577'
p970
sg160
S'11.817'
p971
sg162
S'76.56'
p972
sg164
S'SDSSJ105233.13+363736.7'
p973
sg166
S'0.44'
p974
sg168
S'36.62689'
p975
sg170
S'36.804'
p976
sg172
S'-99.99'
p977
sg174
S'41'
p978
sg176
S'37'
p979
sg178
g154
sg179
S'36'
p980
sg181
S'-99.99'
p981
sg183
S'106.8'
p982
sg185
S'25'
p983
sg187
F0.4697327576425702
sg188
S'-99.99'
p984
sg190
g233
sg192
S'13.064'
p985
sg194
g73
sg195
S'4.25E+13'
p986
sg197
S'-99.99'
p987
sg199
F600.0
sg200
S'-99.99'
p988
sg202
S'2.62E+14'
p989
sg204
S'0.98'
p990
sg206
S'0.079'
p991
sg208
S'WR?_HII'
p992
sg210
S'-99.99'
p993
sg212
g154
sg214
S'65.87'
p994
sg216
S'568'
p995
sg218
S'SDSSJ105233.13+363736.7'
p996
sg220
S'-99.99'
p997
sg222
S'36.67777777777778'
p998
sg224
S'-99.99'
p999
sg226
S'0.60999'
p1000
sg228
S'r_sdss_iso'
p1001
sg230
S'r_sdss_iso'
p1002
sg232
g233
sg234
S'64.1'
p1003
sg236
g31
sg237
S'1.18'
p1004
sg239
S'-99.99'
p1005
sg241
g154
sg243
S'163.02291666666667'
p1006
sg245
S"['SDSSJ105233.13+363736.7']"
p1007
sg247
S'163.13808'
p1008
sg249
S'-99.99'
p1009
sg251
S'839'
p1010
sg253
S'0.036'
p1011
sg255
S'64'
p1012
sg257
S'r_sdss_iso'
p1013
sg259
S'0.95'
p1014
sg261
S'-99'
p1015
sg263
S'13.6'
p1016
sg265
S'584'
p1017
sg267
S'149.7'
p1018
sg269
g270
sg271
g974
sg272
S'0.011'
p1019
sg274
S'-99.99'
p1020
sg276
S'-99.99'
p1021
sg278
S'63.167249'
p1022
sg280
S'-99.99'
p1023
sg282
F77.9
sg283
S'-99.99'
p1024
sg285
S'3.774'
p1025
sa(dp1026
g115
S'52'
p1027
sg117
S'10'
p1028
sg119
S'-99.99'
p1029
sg121
S'-99'
p1030
sg123
F22.037
sg124
F14.42223381189613
sg125
S'70'
p1031
sg127
S'0.001671'
p1032
sg129
g154
sg131
g959
sg133
S'184.657548'
p1033
sg135
g154
sg137
S'-99.99'
p1034
sg139
S'15.698'
p1035
sg141
g963
sg143
g964
sg145
S'18.915'
p1036
sg147
S'10.64'
p1037
sg149
S'40.8'
p1038
sg151
S'-99'
p1039
sg153
g154
sg155
S'-99.99'
p1040
sg157
F0.6817590163539798
sg158
S'5.925'
p1041
sg160
S'10.648'
p1042
sg162
S'59.31'
p1043
sg164
S'SDSSJ105240.79+363953.7'
p1044
sg166
S'0.38'
p1045
sg168
S'36.66494'
p1046
sg170
S'53.784'
p1047
sg172
S'-99.99'
p1048
sg174
S'42'
p1049
sg176
S'39'
p1050
sg178
g154
sg179
S'36'
p1051
sg181
S'-99.99'
p1052
sg183
g982
sg185
g983
sg187
F0.07579126077112487
sg188
S'-99.99'
p1053
sg190
g73
sg192
S'15.611'
p1054
sg194
g73
sg195
g986
sg197
S'-99.99'
p1055
sg199
F600.0
sg200
S'-99.99'
p1056
sg202
g989
sg204
S'2.6'
p1057
sg206
S'0.0082'
p1058
sg208
g154
sg210
S'-99.99'
p1059
sg212
g154
sg214
S'44.76'
p1060
sg216
g995
sg218
S'SDSSJ105240.79+363953.7'
p1061
sg220
S'-99.99'
p1062
sg222
g998
sg224
S'-99.99'
p1063
sg226
g1000
sg228
S'r_sdss_iso'
p1064
sg230
S'r_sdss_pet'
p1065
sg232
g233
sg234
g1003
sg236
g31
sg237
S'1.06'
p1066
sg239
S'-99.99'
p1067
sg241
g154
sg243
g1006
sg245
S"['SDSSJ105240.79+363953.7']"
p1068
sg247
S'163.17'
p1069
sg249
S'-99.99'
p1070
sg251
S'756'
p1071
sg253
S'0.0038'
p1072
sg255
S'67'
p1073
sg257
S'r_sdss_iso'
p1074
sg259
S'0.96'
p1075
sg261
S'-99'
p1076
sg263
S'15.8'
p1077
sg265
S'501'
p1078
sg267
S'114.8'
p1079
sg269
g270
sg271
g1045
sg272
S'0.011'
p1080
sg274
S'-99.99'
p1081
sg276
S'-99.99'
p1082
sg278
S'63.184219'
p1083
sg280
S'-99.99'
p1084
sg282
F54.2
sg283
S'-99.99'
p1085
sg285
S'2.311'
p1086
sa(dp1087
g115
S'52'
p1088
sg117
S'10'
p1089
sg119
S'-99.99'
p1090
sg121
S'-99'
p1091
sg123
F22.9
sg124
F13.191720520349119
sg125
S'35'
p1092
sg127
S'0.002552'
p1093
sg129
g154
sg131
g959
sg133
S'184.847516'
p1094
sg135
g154
sg137
S'-99.99'
p1095
sg139
S'15.532'
p1096
sg141
g963
sg143
g964
sg145
S'15.837'
p1097
sg147
S'14.36'
p1098
sg149
S'16.7496'
p1099
sg151
S'-99'
p1100
sg153
g154
sg155
S'-99.99'
p1101
sg157
F0.4306632764541731
sg158
S'5.583'
p1102
sg160
S'14.366'
p1103
sg162
S'56.93'
p1104
sg164
S'UGC05983'
p1105
sg166
S'0.75'
p1106
sg168
S'36.59451'
p1107
sg170
S'40.236'
p1108
sg172
S'-99.99'
p1109
sg174
S'96'
p1110
sg176
S'35'
p1111
sg178
g154
sg179
S'36'
p1112
sg181
S'-99.99'
p1113
sg183
g982
sg185
g983
sg187
F0.02486974218211488
sg188
S'-99.99'
p1114
sg190
g375
sg192
S'15.79'
p1115
sg194
g73
sg195
g986
sg197
S'-99.99'
p1116
sg199
F600.0
sg200
S'-99.99'
p1117
sg202
g989
sg204
S'3.8'
p1118
sg206
S'0.011'
p1119
sg208
S'DWARF'
p1120
sg210
S'-99.99'
p1121
sg212
g154
sg214
S'66.54'
p1122
sg216
g995
sg218
S'UGC05983'
p1123
sg220
S'-99.99'
p1124
sg222
g998
sg224
S'-99.99'
p1125
sg226
g1000
sg228
S'r_sdss_iso'
p1126
sg230
S'poss_103a-O'
p1127
sg232
g233
sg234
g1003
sg236
g31
sg237
S'1.43'
p1128
sg239
S'-99.99'
p1129
sg241
g154
sg243
g1006
sg245
S"['UGC05983', 'SDSSJ105216.74+363540.2']"
p1130
sg247
S'163.06979'
p1131
sg249
S'-99.99'
p1132
sg251
S'1020'
p1133
sg253
S'0.0053'
p1134
sg255
S'34'
p1135
sg257
S'poss_103a-O'
p1136
sg259
S'0.87'
p1137
sg261
S'-99'
p1138
sg263
S'16.1'
p1139
sg265
S'765'
p1140
sg267
S'80.16'
p1141
sg269
g270
sg271
g1106
sg272
S'0.011'
p1142
sg274
S'-99.99'
p1143
sg276
S'-99.99'
p1144
sg278
S'63.12044'
p1145
sg280
S'-99.99'
p1146
sg282
F59.7
sg283
S'-99.99'
p1147
sg285
S'4.634'
p1148
saa(lp1149
(dp1150
g115
S'52'
p1151
sg117
S'10'
p1152
sg119
S'-99.99'
p1153
sg121
S'-99'
p1154
sg123
F21.742
sg124
F25.119044488853472
sg125
S'66'
p1155
sg127
S'0.001947'
p1156
sg129
g154
sg131
S'6.5'
p1157
sg133
S'184.751984'
p1158
sg135
g154
sg137
S'-99.99'
p1159
sg139
S'12.132'
p1160
sg141
S'Lya'
p1161
sg143
S'3.9'
p1162
sg145
S'11.796'
p1163
sg147
S'11.81'
p1164
sg149
S'33.1392'
p1165
sg151
S'-99'
p1166
sg153
g154
sg155
S'-99.99'
p1167
sg157
F0.7923529960293945
sg158
S'8.577'
p1168
sg160
S'11.817'
p1169
sg162
S'76.56'
p1170
sg164
S'SDSSJ105233.13+363736.7'
p1171
sg166
S'0.44'
p1172
sg168
S'36.62689'
p1173
sg170
S'36.804'
p1174
sg172
S'-99.99'
p1175
sg174
S'41'
p1176
sg176
S'37'
p1177
sg178
g154
sg179
S'36'
p1178
sg181
S'-99.99'
p1179
sg183
S'129'
p1180
sg185
S'30'
p1181
sg187
F0.4060449761776484
sg188
S'-99.99'
p1182
sg190
g233
sg192
S'13.064'
p1183
sg194
S'7'
p1184
sg195
S'4.33E+13'
p1185
sg197
S'-99.99'
p1186
sg199
F662.0
sg200
S'-99.99'
p1187
sg202
S'2.62E+14'
p1188
sg204
S'0.98'
p1189
sg206
S'0.079'
p1190
sg208
S'WR?_HII'
p1191
sg210
S'-99.99'
p1192
sg212
g154
sg214
S'65.87'
p1193
sg216
S'585'
p1194
sg218
S'SDSSJ105233.13+363736.7'
p1195
sg220
S'-99.99'
p1196
sg222
S'36.67777777777778'
p1197
sg224
S'-99.99'
p1198
sg226
S'0.60999'
p1199
sg228
S'r_sdss_iso'
p1200
sg230
S'r_sdss_iso'
p1201
sg232
g233
sg234
S'77.5'
p1202
sg236
g32
sg237
S'1.18'
p1203
sg239
S'-99.99'
p1204
sg241
g154
sg243
S'163.02291666666667'
p1205
sg245
S"['SDSSJ105233.13+363736.7']"
p1206
sg247
S'163.13808'
p1207
sg249
S'-99.99'
p1208
sg251
S'839'
p1209
sg253
S'0.036'
p1210
sg255
S'64'
p1211
sg257
S'r_sdss_iso'
p1212
sg259
S'0.95'
p1213
sg261
S'-99'
p1214
sg263
S'13.6'
p1215
sg265
S'584'
p1216
sg267
S'149.7'
p1217
sg269
g270
sg271
g1172
sg272
S'0.011'
p1218
sg274
S'-99.99'
p1219
sg276
S'-99.99'
p1220
sg278
S'63.167249'
p1221
sg280
S'-99.99'
p1222
sg282
F77.9
sg283
S'-99.99'
p1223
sg285
S'3.774'
p1224
sa(dp1225
g115
S'52'
p1226
sg117
S'10'
p1227
sg119
S'-99.99'
p1228
sg121
S'-99'
p1229
sg123
F22.9
sg124
F13.191720520349119
sg125
S'35'
p1230
sg127
S'0.002552'
p1231
sg129
g154
sg131
g1157
sg133
S'184.847516'
p1232
sg135
g154
sg137
S'-99.99'
p1233
sg139
S'15.532'
p1234
sg141
g1161
sg143
g1162
sg145
S'15.837'
p1235
sg147
S'14.36'
p1236
sg149
S'16.7496'
p1237
sg151
S'-99'
p1238
sg153
g154
sg155
S'-99.99'
p1239
sg157
F0.652444790680418
sg158
S'5.583'
p1240
sg160
S'14.366'
p1241
sg162
S'56.93'
p1242
sg164
S'UGC05983'
p1243
sg166
S'0.75'
p1244
sg168
S'36.59451'
p1245
sg170
S'40.236'
p1246
sg172
S'-99.99'
p1247
sg174
S'96'
p1248
sg176
S'35'
p1249
sg178
g154
sg179
S'36'
p1250
sg181
S'-99.99'
p1251
sg183
g1180
sg185
g1181
sg187
F0.0376770777064678
sg188
S'-99.99'
p1252
sg190
g375
sg192
S'15.79'
p1253
sg194
g1184
sg195
g1185
sg197
S'-99.99'
p1254
sg199
F662.0
sg200
S'-99.99'
p1255
sg202
g1188
sg204
S'3.8'
p1256
sg206
S'0.011'
p1257
sg208
S'DWARF'
p1258
sg210
S'-99.99'
p1259
sg212
g154
sg214
S'66.54'
p1260
sg216
g1194
sg218
S'UGC05983'
p1261
sg220
S'-99.99'
p1262
sg222
g1197
sg224
S'-99.99'
p1263
sg226
g1199
sg228
S'r_sdss_iso'
p1264
sg230
S'poss_103a-O'
p1265
sg232
g233
sg234
g1202
sg236
g32
sg237
S'1.43'
p1266
sg239
S'-99.99'
p1267
sg241
g154
sg243
g1205
sg245
S"['UGC05983', 'SDSSJ105216.74+363540.2']"
p1268
sg247
S'163.06979'
p1269
sg249
S'-99.99'
p1270
sg251
S'1020'
p1271
sg253
S'0.0053'
p1272
sg255
S'34'
p1273
sg257
S'poss_103a-O'
p1274
sg259
S'0.87'
p1275
sg261
S'-99'
p1276
sg263
S'16.1'
p1277
sg265
S'765'
p1278
sg267
S'80.16'
p1279
sg269
g270
sg271
g1244
sg272
S'0.011'
p1280
sg274
S'-99.99'
p1281
sg276
S'-99.99'
p1282
sg278
S'63.12044'
p1283
sg280
S'-99.99'
p1284
sg282
F59.7
sg283
S'-99.99'
p1285
sg285
S'4.634'
p1286
sa(dp1287
g115
S'52'
p1288
sg117
S'10'
p1289
sg119
S'-99.99'
p1290
sg121
S'-99'
p1291
sg123
F22.037
sg124
F14.42223381189613
sg125
S'70'
p1292
sg127
S'0.001671'
p1293
sg129
g154
sg131
g1157
sg133
S'184.657548'
p1294
sg135
g154
sg137
S'-99.99'
p1295
sg139
S'15.698'
p1296
sg141
g1161
sg143
g1162
sg145
S'18.915'
p1297
sg147
S'10.64'
p1298
sg149
S'40.8'
p1299
sg151
S'-99'
p1300
sg153
g154
sg155
S'-99.99'
p1301
sg157
F0.4556277994522937
sg158
S'5.925'
p1302
sg160
S'10.648'
p1303
sg162
S'59.31'
p1304
sg164
S'SDSSJ105240.79+363953.7'
p1305
sg166
S'0.38'
p1306
sg168
S'36.66494'
p1307
sg170
S'53.784'
p1308
sg172
S'-99.99'
p1309
sg174
S'42'
p1310
sg176
S'39'
p1311
sg178
g154
sg179
S'36'
p1312
sg181
S'-99.99'
p1313
sg183
g1180
sg185
g1181
sg187
F0.05065221659632986
sg188
S'-99.99'
p1314
sg190
g73
sg192
S'15.611'
p1315
sg194
g1184
sg195
g1185
sg197
S'-99.99'
p1316
sg199
F662.0
sg200
S'-99.99'
p1317
sg202
g1188
sg204
S'2.6'
p1318
sg206
S'0.0082'
p1319
sg208
g154
sg210
S'-99.99'
p1320
sg212
g154
sg214
S'44.76'
p1321
sg216
g1194
sg218
S'SDSSJ105240.79+363953.7'
p1322
sg220
S'-99.99'
p1323
sg222
g1197
sg224
S'-99.99'
p1324
sg226
g1199
sg228
S'r_sdss_iso'
p1325
sg230
S'r_sdss_pet'
p1326
sg232
g233
sg234
g1202
sg236
g32
sg237
S'1.06'
p1327
sg239
S'-99.99'
p1328
sg241
g154
sg243
g1205
sg245
S"['SDSSJ105240.79+363953.7']"
p1329
sg247
S'163.17'
p1330
sg249
S'-99.99'
p1331
sg251
S'756'
p1332
sg253
S'0.0038'
p1333
sg255
S'67'
p1334
sg257
S'r_sdss_iso'
p1335
sg259
S'0.96'
p1336
sg261
S'-99'
p1337
sg263
S'15.8'
p1338
sg265
S'501'
p1339
sg267
S'114.8'
p1340
sg269
g270
sg271
g1306
sg272
S'0.011'
p1341
sg274
S'-99.99'
p1342
sg276
S'-99.99'
p1343
sg278
S'63.184219'
p1344
sg280
S'-99.99'
p1345
sg282
F54.2
sg283
S'-99.99'
p1346
sg285
S'2.311'
p1347
saa(lp1348
(dp1349
g115
S'29'
p1350
sg117
S'12'
p1351
sg119
S'14.6'
p1352
sg121
S'-99'
p1353
sg123
F170.98
sg124
F28.659042240190093
sg125
S'62'
p1354
sg127
S'0.005254'
p1355
sg129
S'B_(Johnson)'
p1356
sg131
S'3.6'
p1357
sg133
S'289.589197'
p1358
sg135
S'B_(Johnson)'
p1359
sg137
S'-99.99'
p1360
sg139
S'14.741'
p1361
sg141
S'Lya'
p1362
sg143
S'2.2'
p1363
sg145
S'14.788'
p1364
sg147
S'14.6'
p1365
sg149
S'2.1408'
p1366
sg151
S'145'
p1367
sg153
S'TF'
p1368
sg155
S'0.094'
p1369
sg157
F0.012056946068598393
sg158
S'9.365'
p1370
sg160
S'26.341'
p1371
sg162
S'81.35'
p1372
sg164
S'UGC07612'
p1373
sg166
S'4.2'
p1374
sg168
S'2.72319'
p1375
sg170
S'23.484'
p1376
sg172
S'24.25'
p1377
sg174
S'145'
p1378
sg176
S'43'
p1379
sg178
S'LC_V'
p1380
sg179
g191
sg181
S'0.058'
p1381
sg183
S'70'
p1382
sg185
g191
sg187
F3.481685003745826e-16
sg188
S'0.54'
p1383
sg190
g375
sg192
S'14.993'
p1384
sg194
g73
sg195
S'1.05E+12'
p1385
sg197
S'14.4'
p1386
sg199
F1580.0
sg200
S'14.6'
p1387
sg202
S'1.43E+14'
p1388
sg204
S'9.6'
p1389
sg206
S'0.025'
p1390
sg208
S'Sm:_HII'
p1391
sg210
S'14.1'
p1392
sg212
S'B_(B_T^0)'
p1393
sg214
S'66.15'
p1394
sg216
S'369'
p1395
sg218
S'UGC07612'
p1396
sg220
S'33.9'
p1397
sg222
S'2.0525'
p1398
sg224
S'15.1'
p1399
sg226
S'0.15834'
p1400
sg228
S'poss_103a-O'
p1401
sg230
S'poss_103a-O'
p1402
sg232
g233
sg234
S'42'
p1403
sg236
g33
sg237
S'9.65'
p1404
sg239
S'0.23'
p1405
sg241
S'.S..9*.'
p1406
sg243
S'187.27791666666667'
p1407
sg245
S"['UGC07612', 'SDSSJ122901.87+024324.6']"
p1408
sg247
S'187.25892'
p1409
sg249
S'0.17'
p1410
sg251
S'1870'
p1411
sg253
S'0.076'
p1412
sg255
S'60'
p1413
sg257
S'poss_103a-O'
p1414
sg259
S'1.3'
p1415
sg261
S'-99'
p1416
sg263
S'15.3'
p1417
sg265
S'1575'
p1418
sg267
S'132.3'
p1419
sg269
g270
sg271
g1374
sg272
S'0.0153'
p1420
sg274
S'0.074'
p1421
sg276
S'9.65'
p1422
sg278
S'65.012984'
p1423
sg280
S'128.28'
p1424
sg282
F33.4
sg283
S'0.031'
p1425
sg285
S'4.682'
p1426
sa(dp1427
g115
S'34'
p1428
sg117
S'12'
p1429
sg119
S'14.9'
p1430
sg121
S'170002'
p1431
sg123
F348.733
sg124
F161.20465603697681
sg125
S'61'
p1432
sg127
S'0.006031'
p1433
sg129
S'B'
p1434
sg131
g1357
sg133
S'292.949501'
p1435
sg135
S'B_(B_T)'
p1436
sg137
S'21'
p1437
sg139
S'12'
p1438
sg141
g1362
sg143
g1363
sg145
S'11.106'
p1439
sg147
S'14.9'
p1440
sg149
S'27.0504'
p1441
sg151
S'130'
p1442
sg153
S'Ceph'
p1443
sg155
S'1.0'
p1444
sg157
F0.0064025696903046705
sg158
S'29.62'
p1445
sg160
S'29.614'
p1446
sg162
S'180.05'
p1447
sg164
S'NGC4536'
p1448
sg166
S'2.9'
p1449
sg168
S'2.18814'
p1450
sg170
S'17.304'
p1451
sg172
S'15.363'
p1452
sg174
S'95'
p1453
sg176
S'11'
p1454
sg178
S'LC_II-III'
p1455
sg179
g191
sg181
S'2.0'
p1456
sg183
g1382
sg185
g191
sg187
F0.0025302449034422273
sg188
S'0.43'
p1457
sg190
g313
sg192
S'13.181'
p1458
sg194
g73
sg195
g1385
sg197
S'10.6'
p1459
sg199
F1580.0
sg200
S'8.67'
p1460
sg202
g1388
sg204
S'11.0'
p1461
sg206
S'0.11'
p1462
sg208
S'SAB(rs)bc;HII_Sbrst'
p1463
sg210
S'9.89'
p1464
sg212
S'B_(B_T^0)'
p1465
sg214
S'213.2'
p1466
sg216
g1395
sg218
S'NGC4536'
p1467
sg220
S'28.0'
p1468
sg222
g1398
sg224
S'11.2'
p1469
sg226
g1400
sg228
S'K_lga2mass_tot'
p1470
sg230
S'K_lga2mass_tot'
p1471
sg232
g233
sg234
g1403
sg236
g33
sg237
S'2.83'
p1472
sg239
S'3.3'
p1473
sg241
S'.SXT4..'
p1474
sg243
g1407
sg245
S"['NGC4536', 'UGC07732', '2MASXJ12342712+0211163', 'SDSSJ123427.04+021117.2']"
p1475
sg247
S'188.61271'
p1476
sg249
S'1.8'
p1477
sg251
S'2103'
p1478
sg253
S'0.093'
p1479
sg255
S'59'
p1480
sg257
S'K_lga2mass_tot'
p1481
sg259
S'21.0'
p1482
sg261
g74
sg263
S'13.8'
p1483
sg265
S'1808'
p1484
sg267
S'410.0'
p1485
sg269
g270
sg271
g1449
sg272
S'0.0157'
p1486
sg274
S'3.8'
p1487
sg276
S'2.83'
p1488
sg278
S'64.730132'
p1489
sg280
S'455.15'
p1490
sg282
F10.8
sg283
S'1.2'
p1491
sg285
S'15.4'
p1492
sa(dp1493
g115
S'29'
p1494
sg117
S'12'
p1495
sg119
S'-99.99'
p1496
sg121
S'-99'
p1497
sg123
F94.177
sg124
F8.49394836027392
sg125
S'62'
p1498
sg127
S'0.005966'
p1499
sg129
S'B_(LCO)'
p1500
sg131
g1357
sg133
S'290.374472'
p1501
sg135
S'b_J'
p1502
sg137
S'-99.99'
p1503
sg139
S'16.674'
p1504
sg141
g1362
sg143
g1363
sg145
S'16.08'
p1505
sg147
S'29.34'
p1506
sg149
S'50.58'
p1507
sg151
S'-99'
p1508
sg153
g154
sg155
S'0.0049'
p1509
sg157
F0.005540459592975663
sg158
S'4.163'
p1510
sg160
S'29.346'
p1511
sg162
S'46.49'
p1512
sg164
S'2PIGGNGPGALB+3.26065+0.04028'
p1513
sg166
S'0.31'
p1514
sg168
S'2.03158'
p1515
sg170
S'53.688'
p1516
sg172
S'-99.99'
p1517
sg174
S'152'
p1518
sg176
g73
sg178
g154
sg179
g191
sg181
S'0.012'
p1519
sg183
g1382
sg185
g191
sg187
F1.368898515450383e-54
sg188
S'-99.99'
p1520
sg190
g191
sg192
S'17.204'
p1521
sg194
g73
sg195
g1385
sg197
S'17.6'
p1522
sg199
F1580.0
sg200
S'-99.99'
p1523
sg202
g1388
sg204
S'0.67'
p1524
sg206
S'0.012'
p1525
sg208
g154
sg210
S'17.6'
p1526
sg212
S'B_(LCO)'
p1527
sg214
S'14.63'
p1528
sg216
g1395
sg218
S'SDSSJ122950.57+020153.7'
p1529
sg220
S'-99.99'
p1530
sg222
g1398
sg224
S'17.8'
p1531
sg226
g1400
sg228
S'r_sdss_iso'
p1532
sg230
S'r_sdss_iso'
p1533
sg232
g233
sg234
g1403
sg236
g33
sg237
S'2.93'
p1534
sg239
S'0.0054'
p1535
sg241
g154
sg243
g1407
sg245
S"['SDSSJ122950.57+020153.7']"
p1536
sg247
S'187.46075'
p1537
sg249
S'0.0054'
p1538
sg251
S'2084'
p1539
sg253
S'0.0057'
p1540
sg255
S'60'
p1541
sg257
S'r_sdss_iso'
p1542
sg259
S'0.32'
p1543
sg261
S'-99'
p1544
sg263
S'17.6'
p1545
sg265
S'1789'
p1546
sg267
S'29.26'
p1547
sg269
g270
sg271
g1514
sg272
S'0.0165'
p1548
sg274
S'0.012'
p1549
sg276
S'-99.99'
p1550
sg278
S'64.375538'
p1551
sg280
S'-99.99'
p1552
sg282
F55.5
sg283
S'0.01'
p1553
sg285
S'2.082'
p1554
saa(lp1555
(dp1556
g115
S'19'
p1557
sg117
S'12'
p1558
sg119
S'-99.99'
p1559
sg121
S'-99'
p1560
sg123
F37.396
sg124
F8.30490471354127
sg125
S'31'
p1561
sg127
S'0.007295'
p1562
sg129
S'B_(Magellan)'
p1563
sg131
S'2.4'
p1564
sg133
S'281.013838'
p1565
sg135
S'B_(LCO)'
p1566
sg137
S'-99.99'
p1567
sg139
S'16.948'
p1568
sg141
S'Lya'
p1569
sg143
S'1.4'
p1570
sg145
S'16.572'
p1571
sg147
S'35'
p1572
sg149
S'20.6736'
p1573
sg151
S'-99'
p1574
sg153
g154
sg155
S'0.0056'
p1575
sg157
F0.01986817541366812
sg158
S'4.101'
p1576
sg160
S'35.001'
p1577
sg162
S'46.01'
p1578
sg164
S'PGC039653'
p1579
sg166
S'0.43'
p1580
sg168
S'6.7051'
p1581
sg170
S'18.36'
p1582
sg172
S'-99.99'
p1583
sg174
S'79'
p1584
sg176
S'42'
p1585
sg178
g154
sg179
g714
sg181
S'0.014'
p1586
sg183
S'22.7'
p1587
sg185
g375
sg187
F6.016292255345809e-11
sg188
S'-99.99'
p1588
sg190
g191
sg192
S'17.614'
p1589
sg194
g74
sg195
S'1.03E+12'
p1590
sg197
S'17.8'
p1591
sg199
F2548.0
sg200
S'-99.99'
p1592
sg202
S'6.41E+12'
p1593
sg204
S'0.39'
p1594
sg206
S'0.012'
p1595
sg208
g154
sg210
S'17.8'
p1596
sg212
S'B_(Magellan)'
p1597
sg214
S'20.78'
p1598
sg216
S'31'
p1599
sg218
S'VCC0339'
p1600
sg220
S'-99.99'
p1601
sg222
S'6.643888888888889'
p1602
sg224
S'18'
p1603
sg226
S'0.33130'
p1604
sg228
S'r_sdss_iso'
p1605
sg230
S'r_sdss_iso'
p1606
sg232
g233
sg234
S'13.6'
p1607
sg236
g34
sg237
S'3.5'
p1608
sg239
S'0.0064'
p1609
sg241
g154
sg243
S'184.83708333333334'
p1610
sg245
S"['SDSSJ121920.67+064218.3']"
p1611
sg247
S'184.83614'
p1612
sg249
S'0.0064'
p1613
sg251
S'2485'
p1614
sg253
S'0.0053'
p1615
sg255
S'31'
p1616
sg257
S'r_sdss_iso'
p1617
sg259
S'0.29'
p1618
sg261
S'-99'
p1619
sg263
S'18'
p1620
sg265
S'2187'
p1621
sg267
S'24.17'
p1622
sg269
g270
sg271
g1580
sg272
S'0.018'
p1623
sg274
S'0.014'
p1624
sg276
S'-99.99'
p1625
sg278
S'68.200452'
p1626
sg280
S'-99.99'
p1627
sg282
F79.9
sg283
S'0.012'
p1628
sg285
S'3.527'
p1629
sa(dp1630
g115
S'17'
p1631
sg117
S'12'
p1632
sg119
S'27.9'
p1633
sg121
S'120002'
p1634
sg123
F233.021
sg124
F103.68203191971115
sg125
S'59'
p1635
sg127
S'0.007455'
p1636
sg129
S'B_(B_T^0)'
p1637
sg131
g1564
sg133
S'279.829994'
p1638
sg135
S'B_(B_T)'
p1639
sg137
S'25.7'
p1640
sg139
S'12.223'
p1641
sg141
g1569
sg143
g1570
sg145
S'11.488'
p1642
sg147
S'27.9'
p1643
sg149
S'25.812'
p1644
sg151
S'128'
p1645
sg153
S'TF'
p1646
sg155
S'0.63'
p1647
sg157
F0.006991664309550501
sg158
S'22.07'
p1648
sg160
S'35.676'
p1649
sg162
S'146.97'
p1650
sg164
S'NGC4223'
p1651
sg166
S'2.1'
p1652
sg168
S'6.69007'
p1653
sg170
S'24.252'
p1654
sg172
S'28.0'
p1655
sg174
S'130'
p1656
sg176
S'41'
p1657
sg178
g154
sg179
g714
sg181
S'0.81'
p1658
sg183
g1587
sg185
g375
sg187
F0.0005529229276766317
sg188
S'0.52'
p1659
sg190
g313
sg192
S'12.993'
p1660
sg194
g74
sg195
g1590
sg197
S'12.9'
p1661
sg199
F2548.0
sg200
S'20.4'
p1662
sg202
g1593
sg204
S'4.4'
p1663
sg206
S'0.5'
p1664
sg208
S'SA(s)0+:;Sy_LINER'
p1665
sg210
S'12.9'
p1666
sg212
S'B_(m_B)'
p1667
sg214
S'88.13'
p1668
sg216
g1599
sg218
S'NGC4223'
p1669
sg220
S'33.9'
p1670
sg222
g1602
sg224
S'13'
p1671
sg226
g1604
sg228
S'K_2mass_tot'
p1672
sg230
S'K_2mass_tot'
p1673
sg232
g233
sg234
g1607
sg236
g34
sg237
S'4.89'
p1674
sg239
S'0.66'
p1675
sg241
S'.LAS+*.'
p1676
sg243
g1610
sg245
S"['NGC4223', 'IC3102', 'UGC07319', '2MASXJ12172582+0641239', 'SDSSJ121725.80+064124.2']"
p1677
sg247
S'184.35755'
p1678
sg249
S'0.66'
p1679
sg251
S'2533'
p1680
sg253
S'0.41'
p1681
sg255
S'57'
p1682
sg257
S'K_2mass_tot'
p1683
sg259
S'8.2'
p1684
sg261
S'39'
p1685
sg263
S'13.5'
p1686
sg265
S'2235'
p1687
sg267
S'163.2'
p1688
sg269
g270
sg271
g1652
sg272
S'0.0186'
p1689
sg274
S'0.81'
p1690
sg276
S'4.894'
p1691
sg278
S'68.023262'
p1692
sg280
S'154.22'
p1693
sg282
F34.5
sg283
S'0.78'
p1694
sg285
S'11.92'
p1695
sa(dp1696
g115
S'18'
p1697
sg117
S'12'
p1698
sg119
S'-99.99'
p1699
sg121
S'-99'
p1700
sg123
F196.518
sg124
F32.14598467927215
sg125
S'53'
p1701
sg127
S'0.008596'
p1702
sg129
g154
sg131
g1564
sg133
S'280.414182'
p1703
sg135
g154
sg137
S'-99.99'
p1704
sg139
S'14.642'
p1705
sg141
g1569
sg143
g1570
sg145
S'14.015'
p1706
sg147
S'40.49'
p1707
sg149
S'14.4192'
p1708
sg151
S'-99'
p1709
sg153
g154
sg155
S'-99.99'
p1710
sg157
F0.005133633054362335
sg158
S'10.11'
p1711
sg160
S'40.492'
p1712
sg162
S'85.76'
p1713
sg164
S'PGC039509'
p1714
sg166
S'0.63'
p1715
sg168
S'6.60364'
p1716
sg170
S'13.104'
p1717
sg172
S'-99.99'
p1718
sg174
S'105'
p1719
sg176
S'36'
p1720
sg178
g154
sg179
g714
sg181
S'-99.99'
p1721
sg183
g1587
sg185
g375
sg187
F5.75749797317063e-17
sg188
S'-99.99'
p1722
sg190
g313
sg192
S'15.299'
p1723
sg194
g74
sg195
g1590
sg197
S'-99.99'
p1724
sg199
F2548.0
sg200
S'-99.99'
p1725
sg202
g1593
sg204
S'1.6'
p1726
sg206
S'0.13'
p1727
sg208
S'dS0,N_pec'
p1728
sg210
S'-99.99'
p1729
sg212
g154
sg214
S'31.93'
p1730
sg216
g1599
sg218
S'VCC0278'
p1731
sg220
S'-99.99'
p1732
sg222
g1602
sg224
S'-99.99'
p1733
sg226
g1604
sg228
S'K_2mass_tot'
p1734
sg230
S'K_2mass_tot'
p1735
sg232
g233
sg234
g1607
sg236
g34
sg237
S'4.04'
p1736
sg239
S'-99.99'
p1737
sg241
g154
sg243
g1610
sg245
S"['2MASXJ12181446+0636142', 'SDSSJ121814.42+063613.1']"
p1738
sg247
S'184.56008'
p1739
sg249
S'-99.99'
p1740
sg251
S'2875'
p1741
sg253
S'0.06'
p1742
sg255
S'52'
p1743
sg257
S'K_2mass_tot'
p1744
sg259
S'2.6'
p1745
sg261
S'-99'
p1746
sg263
S'15.7'
p1747
sg265
S'2577'
p1748
sg267
S'51.5'
p1749
sg269
g270
sg271
g1715
sg272
S'0.0188'
p1750
sg274
S'-99.99'
p1751
sg276
S'-99.99'
p1752
sg278
S'68.012089'
p1753
sg280
S'-99.99'
p1754
sg282
F23.3
sg283
S'-99.99'
p1755
sg285
S'6.268'
p1756
saas.