(dp0
S'SDSSJ105518.89+482525.7'
p1
S'sa'
p2
sS'UGC04238'
p3
S'sb'
p4
sS'UGC04239'
p5
S'sa'
p6
sS'NGC3613'
p7
S'e'
p8
sS'KUG1116+259'
p9
S'sa'
p10
sS'NGC3619'
p11
S's0'
p12
sS'NGC4529'
p13
S'sb'
p14
sS'SDSSJ151022.85+111031.8'
p15
S'i'
p16
sS'NGC1398'
p17
S'sb'
p18
sS'NGC0962'
p19
g8
sS'ESO343-G014'
p20
S'sb'
p21
sS'UGC04527'
p22
g16
sS'NGC1097'
p23
S'sb'
p24
sS'ESO482-G032'
p25
g16
sS'PGC001695'
p26
S'sa'
p27
sS'NGC4517'
p28
S'sa'
p29
sS'NGC0134'
p30
S'sb'
p31
sS'SDSSJ122011.43+015730.7'
p32
g16
sS'SDSSJ115718.02+113921.1'
p33
g8
sS'ESO157-IG050'
p34
S'sb'
p35
sS'UGC06446'
p36
S'sa'
p37
sS'NGC3198'
p38
S'sb'
p39
sS'NGC3351'
p40
S'sb'
p41
sS'SDSSJ115145.81+380053.8'
p42
S'sb'
p43
sS'SDSSJ112230.40+031545.8'
p44
S's0'
p45
sS'UGC09760'
p46
S'sb'
p47
sS'NGC3631'
p48
S'sa'
p49
sS'PGC039946'
p50
S'sa'
p51
sS'NGC3633'
p52
S'sa'
p53
sS'UGC04787'
p54
S'sb'
p55
sS'HS0925+4654'
p56
S's0'
p57
sS'MCG+05-24-007'
p58
S'sa'
p59
sS'UGC03804'
p60
S'sa'
p61
sS'2PIGGSGPGALB+0.72082-0.52866'
p62
S's0'
p63
sS'UGC04895'
p64
S'sb'
p65
sS'SDSSJ153802.75+573018.3'
p66
S'sb'
p67
sS'PGC024169'
p68
S'sa'
p69
sS'UGC10247'
p70
S'sb'
p71
sS'NGC5951'
p72
S'sb'
p73
sS'UGC00279'
p74
S'sb'
p75
sS'IC3440'
p76
S'sb'
p77
sS'NGC3432'
p78
S'sb'
p79
sS'SDSSJ105935.63+144407.7'
p80
S'sb'
p81
sS'UGC09126'
p82
g16
sS'MCG+09-19-008'
p83
S'sa'
p84
sS'NGC2933'
p85
S'sa'
p86
sS'MCG-03-58-009'
p87
S'sa'
p88
sS'UGC05478'
p89
g16
sS'NGC0988'
p90
S'sb'
p91
sS'UGC03717'
p92
S'sb'
p93
sS'UGC08186'
p94
S'sb'
p95
sS'NGC6096'
p96
S's0'
p97
sS'SDSSJ112014.69+421358.1'
p98
S's0'
p99
sS'PGC034796'
p100
S'sb'
p101
sS'UGC11785'
p102
S'sb'
p103
sS'MCG-05-01-020'
p104
g8
sS'UGC08839'
p105
g16
sS'SDSSJ103108.88+504708.7'
p106
S'sa'
p107
sS'MCG+06-32-039'
p108
S'sa'
p109
sS'NGC4939'
p110
S'sa'
p111
sS'NGC6654'
p112
S'sb'
p113
sS'UGC07370'
p114
S'sb'
p115
sS'SDSSJ112418.74+420323.1'
p116
S'sa'
p117
sS'NGC6140'
p118
S'sb'
p119
sS'NGC2928'
p120
S'sa'
p121
sS'NGC4565'
p122
S'sa'
p123
sS'NGC6954'
p124
S's0'
p125
sS'NGC1617'
p126
S'sb'
p127
sS'MRK0021'
p128
S'sb'
p129
sS'NGC4251'
p130
S'sb'
p131
sS'SDSSJ135411.14+243322.5'
p132
g8
sS'SDSSJ021213.91-073501.1'
p133
g16
sS'UGC12281'
p134
S'sb'
p135
sS'IC5332'
p136
S'sa'
p137
sS'MCG+08-18-029'
p138
S'sb'
p139
sS'IC4322'
p140
g8
sS'NGC2770'
p141
S'sa'
p142
sS'UGC08492'
p143
S's0'
p144
sS'UGC05454'
p145
S'sa'
p146
sS'NGC3642'
p147
S'sa'
p148
sS'IC1746'
p149
S's0'
p150
sS'NGC4316'
p151
S'sb'
p152
sS'MCG+08-17-099'
p153
S'sa'
p154
sS'NGC4559'
p155
S'sa'
p156
sS'MCG-04-26-019'
p157
S'sa'
p158
sS'NGC5987'
p159
S'sb'
p160
sS'SDSSJ130206.46+584142.9'
p161
S'sb'
p162
sS'IC0691'
p163
g16
sS'NGC4246'
p164
S'sa'
p165
sS'2PIGGNGPGALB+3.26383+0.02704'
p166
S's0'
p167
sS'MCG-06-03-014'
p168
S'sb'
p169
sS'UGC08679'
p170
g16
sS'IC2439'
p171
S'sb'
p172
sS'SDSSJ134251.43+184144.5'
p173
S'sa'
p174
sS'SDSSJ121903.71+063342.9'
p175
g16
sS'MCG+11-18-020'
p176
S's0'
p177
sS'NGC3489'
p178
S'sa'
p179
sS'UGC05357'
p180
S'sb'
p181
sS'UGC05427'
p182
S'sb'
p183
sS'NGC1574'
p184
S's0'
p185
sS'PGC049556'
p186
g8
sS'ESO347-G008'
p187
g16
sS'SDSSJ114743.02+370823.2'
p188
S'sb'
p189
sS'NGC3640'
p190
g8
sS'PGC046123'
p191
S'sa'
p192
sS'SDSSJ080842.74+461828.9'
p193
S'sa'
p194
sS'UGC08663'
p195
S's0'
p196
sS'NGC3067'
p197
S'sa'
p198
sS'UGC04831'
p199
S'sa'
p200
sS'UGC08667'
p201
S'sb'
p202
sS'MCG+10-14-058'
p203
S'sb'
p204
sS'UGC06664'
p205
S'sb'
p206
sS'UGC10294'
p207
g16
sS'UGC07708'
p208
S'sb'
p209
sS'NGC0718'
p210
S'sa'
p211
sS'SDSSJ105035.24+660242.5'
p212
g16
sS'UGC05432'
p213
g8
sS'SDSSJ143001.87+032352.1'
p214
S'sa'
p215
sS'PGC055892'
p216
S's0'
p217
sS'ESO157-G049'
p218
S'sb'
p219
sS'UGC00347'
p220
S'sb'
p221
sS'MRK0892'
p222
S'sa'
p223
s.