(dp0
S'SDSSJ105518.89+482525.7'
p1
S'sa'
p2
sS'UGC04238'
p3
S'sb'
p4
sS'UGC04239'
p5
S'sa'
p6
sS'NGC3613'
p7
S'e'
p8
sS'KUG1116+259'
p9
S'sa'
p10
sS'NGC3619'
p11
S's0'
p12
sS'NGC4529'
p13
S'sb'
p14
sS'SDSSJ151022.85+111031.8'
p15
S'i'
p16
sS'NGC1398'
p17
S'sb'
p18
sS'NGC0962'
p19
g8
sS'ESO343-G014'
p20
S'sb'
p21
sS'UGC04527'
p22
g16
sS'NGC1097'
p23
S'sb'
p24
sS'NGC4319'
p25
S'sb'
p26
sS'ESO482-G032'
p27
g16
sS'PGC001695'
p28
S'sa'
p29
sS'NGC4517'
p30
S'sa'
p31
sS'NGC0134'
p32
S'sb'
p33
sS'SDSSJ122011.43+015730.7'
p34
g16
sS'SDSSJ115718.02+113921.1'
p35
g8
sS'ESO157-IG050'
p36
S'sb'
p37
sS'UGC06446'
p38
S'sa'
p39
sS'IC3061'
p40
S'sb'
p41
sS'NGC3351'
p42
S'sb'
p43
sS'SDSSJ115145.81+380053.8'
p44
S'sb'
p45
sS'NGC3198'
p46
S'sb'
p47
sS'UGC09760'
p48
S'sb'
p49
sS'NGC3631'
p50
S'sa'
p51
sS'PGC039946'
p52
S'sa'
p53
sS'NGC3633'
p54
S'sa'
p55
sS'UGC04787'
p56
S'sb'
p57
sS'HS0925+4654'
p58
S's0'
p59
sS'NGC2648'
p60
S'sa'
p61
sS'MCG+05-24-007'
p62
S'sa'
p63
sS'UGC03804'
p64
S'sa'
p65
sS'2PIGGSGPGALB+0.72082-0.52866'
p66
S's0'
p67
sS'UGC04895'
p68
S'sb'
p69
sS'SDSSJ153802.75+573018.3'
p70
S'sb'
p71
sS'SDSSJ113457.46+255644.6'
p72
S'i'
p73
sS'PGC024169'
p74
S'sa'
p75
sS'UGC10247'
p76
S'sb'
p77
sS'NGC5951'
p78
S'sb'
p79
sS'UGC00279'
p80
S'sb'
p81
sS'IC3440'
p82
S'sb'
p83
sS'NGC3432'
p84
S'sb'
p85
sS'SDSSJ105935.63+144407.7'
p86
S'sb'
p87
sS'UGC09126'
p88
g16
sS'MCG+09-19-008'
p89
S'sa'
p90
sS'NGC2933'
p91
S'sa'
p92
sS'MCG-03-58-009'
p93
S'sa'
p94
sS'UGC05478'
p95
g16
sS'NGC0988'
p96
S'sb'
p97
sS'UGC03717'
p98
S'sb'
p99
sS'UGC08186'
p100
S'sb'
p101
sS'NGC6096'
p102
S's0'
p103
sS'SDSSJ112014.69+421358.1'
p104
S's0'
p105
sS'PGC034796'
p106
S'sb'
p107
sS'UGC11785'
p108
S'sb'
p109
sS'MCG-05-01-020'
p110
g8
sS'UGC08839'
p111
g16
sS'SDSSJ103108.88+504708.7'
p112
S'sa'
p113
sS'MCG+06-32-039'
p114
S'sa'
p115
sS'NGC4939'
p116
S'sa'
p117
sS'NGC3666'
p118
S'sa'
p119
sS'NGC6654'
p120
S'sb'
p121
sS'UGC07370'
p122
S'sb'
p123
sS'NGC5364'
p124
S'sa'
p125
sS'SDSSJ112418.74+420323.1'
p126
S'sa'
p127
sS'NGC6140'
p128
S'sb'
p129
sS'NGC2928'
p130
S'sa'
p131
sS'NGC4565'
p132
S'sa'
p133
sS'NGC4274'
p134
S'sb'
p135
sS'NGC6954'
p136
S's0'
p137
sS'NGC1617'
p138
S'sb'
p139
sS'MRK0021'
p140
S'sb'
p141
sS'NGC4251'
p142
S'sb'
p143
sS'SDSSJ135411.14+243322.5'
p144
g8
sS'SDSSJ021213.91-073501.1'
p145
g16
sS'UGC12281'
p146
S'sb'
p147
sS'IC5332'
p148
S'sa'
p149
sS'MCG+08-18-029'
p150
S'sb'
p151
sS'IC4322'
p152
g8
sS'NGC2770'
p153
S'sa'
p154
sS'UGC08492'
p155
S's0'
p156
sS'UGC05454'
p157
S'sa'
p158
sS'NGC3642'
p159
S'sa'
p160
sS'UGC08496'
p161
S'sa'
p162
sS'IC1746'
p163
S's0'
p164
sS'NGC4316'
p165
S'sb'
p166
sS'MCG+08-17-099'
p167
S'sa'
p168
sS'NGC4559'
p169
S'sa'
p170
sS'MCG-04-26-019'
p171
S'sa'
p172
sS'NGC5987'
p173
S'sb'
p174
sS'SDSSJ130206.46+584142.9'
p175
S'sb'
p176
sS'IC0691'
p177
g16
sS'NGC4246'
p178
S'sa'
p179
sS'2PIGGNGPGALB+3.26383+0.02704'
p180
S's0'
p181
sS'MCG-06-03-014'
p182
S'sb'
p183
sS'NGC4486'
p184
S'e'
p185
sS'UGC08679'
p186
g16
sS'IC2439'
p187
S'sb'
p188
sS'SDSSJ134251.43+184144.5'
p189
S'sa'
p190
sS'NGC3810'
p191
S'sa'
p192
sS'SDSSJ121903.71+063342.9'
p193
g16
sS'MCG+11-18-020'
p194
S's0'
p195
sS'NGC3489'
p196
S'sa'
p197
sS'UGC05357'
p198
S'sb'
p199
sS'UGC05427'
p200
S'sb'
p201
sS'NGC1574'
p202
S's0'
p203
sS'PGC049556'
p204
g8
sS'ESO347-G008'
p205
g16
sS'SDSSJ114743.02+370823.2'
p206
S'sb'
p207
sS'NGC3640'
p208
g8
sS'PGC046123'
p209
S'sa'
p210
sS'SDSSJ080842.74+461828.9'
p211
S'sa'
p212
sS'UGC08663'
p213
S's0'
p214
sS'NGC3067'
p215
S'sa'
p216
sS'UGC04831'
p217
S'sa'
p218
sS'UGC08667'
p219
S'sb'
p220
sS'MCG+10-14-058'
p221
S'sb'
p222
sS'UGC06664'
p223
S'sb'
p224
sS'UGC10294'
p225
g16
sS'UGC07708'
p226
S'sb'
p227
sS'NGC0718'
p228
S'sa'
p229
sS'SDSSJ105035.24+660242.5'
p230
g16
sS'UGC05432'
p231
g8
sS'SDSSJ143001.87+032352.1'
p232
S'sa'
p233
sS'PGC055892'
p234
S's0'
p235
sS'ESO157-G049'
p236
S'sb'
p237
sS'UGC00347'
p238
S'sb'
p239
sS'SDSSJ112230.40+031545.8'
p240
S's0'
p241
sS'MRK0892'
p242
S'sa'
p243
s.