(dp0
S'SDSSJ105518.89+482525.7'
p1
S'sa'
p2
sS'UGC04238'
p3
S'sb'
p4
sS'UGC04239'
p5
S'sa'
p6
sS'NGC3613'
p7
S'e'
p8
sS'KUG1116+259'
p9
S'sa'
p10
sS'MCG+08-17-099'
p11
S'sa'
p12
sS'NGC3619'
p13
S's0'
p14
sS'NGC4529'
p15
S'sb'
p16
sS'SDSSJ151022.85+111031.8'
p17
S'i'
p18
sS'NGC1398'
p19
S'sb'
p20
sS'ESO482-G032'
p21
g18
sS'ESO343-G014'
p22
S'sb'
p23
sS'UGC04527'
p24
g18
sS'NGC3666'
p25
S'sa'
p26
sS'IC0691'
p27
g18
sS'PGC001695'
p28
S'sa'
p29
sS'NGC4517'
p30
S'sa'
p31
sS'NGC0134'
p32
S'sb'
p33
sS'SDSSJ122011.43+015730.7'
p34
g18
sS'SDSSJ115718.02+113921.1'
p35
S'sa'
p36
sS'ESO157-IG050'
p37
S'sb'
p38
sS'NGC4565'
p39
S'sa'
p40
sS'IC3061'
p41
S'sb'
p42
sS'NGC3351'
p43
S'sb'
p44
sS'SDSSJ115145.81+380053.8'
p45
S'sb'
p46
sS'NGC3198'
p47
S'sb'
p48
sS'UGC09760'
p49
S'sb'
p50
sS'NGC3631'
p51
S'sa'
p52
sS'NGC3633'
p53
S'sa'
p54
sS'UGC04787'
p55
S'sb'
p56
sS'HS0925+4654'
p57
S'x'
p58
sS'NGC2648'
p59
S'sa'
p60
sS'NGC3067'
p61
S'sa'
p62
sS'UGC03804'
p63
S'sa'
p64
sS'2PIGGSGPGALB+0.72082-0.52866'
p65
g58
sS'UGC04895'
p66
S'sb'
p67
sS'SDSSJ153802.75+573018.3'
p68
S'sb'
p69
sS'SDSSJ113457.46+255644.6'
p70
S'i'
p71
sS'PGC024169'
p72
S'sa'
p73
sS'UGC10247'
p74
S'sb'
p75
sS'NGC5951'
p76
S'sb'
p77
sS'UGC00279'
p78
S'sb'
p79
sS'IC3440'
p80
S'sb'
p81
sS'NGC3432'
p82
S'sb'
p83
sS'SDSSJ105935.63+144407.7'
p84
S'sb'
p85
sS'NGC6954'
p86
g36
sS'MCG+09-19-008'
p87
S'sa'
p88
sS'NGC2933'
p89
S'sa'
p90
sS'MCG-03-58-009'
p91
S'sa'
p92
sS'UGC05478'
p93
g18
sS'NGC0988'
p94
S'sb'
p95
sS'UGC03717'
p96
S'sb'
p97
sS'UGC08186'
p98
S'sb'
p99
sS'NGC6096'
p100
g36
sS'SDSSJ112014.69+421358.1'
p101
g36
sS'PGC034796'
p102
S'sb'
p103
sS'UGC11785'
p104
S'sb'
p105
sS'MCG-05-01-020'
p106
g8
sS'UGC08839'
p107
g18
sS'SDSSJ103108.88+504708.7'
p108
S'sa'
p109
sS'MCG+06-32-039'
p110
S'sa'
p111
sS'NGC4939'
p112
S'sa'
p113
sS'NGC6654'
p114
S'sb'
p115
sS'NGC0962'
p116
g8
sS'NGC5364'
p117
S'sa'
p118
sS'SDSSJ112418.74+420323.1'
p119
S'sa'
p120
sS'NGC6140'
p121
S'sb'
p122
sS'NGC2928'
p123
S'sa'
p124
sS'UGC06446'
p125
S'sa'
p126
sS'NGC4274'
p127
S'sb'
p128
sS'UGC09126'
p129
g18
sS'NGC1617'
p130
S'sb'
p131
sS'MRK0021'
p132
S'sb'
p133
sS'UGC08679'
p134
g18
sS'SDSSJ135411.14+243322.5'
p135
g8
sS'SDSSJ021213.91-073501.1'
p136
g18
sS'UGC12281'
p137
S'sb'
p138
sS'SDSSJ134251.43+184144.5'
p139
S'sa'
p140
sS'NGC1097'
p141
S'sb'
p142
sS'IC4322'
p143
g8
sS'NGC2770'
p144
S'sa'
p145
sS'UGC08492'
p146
S'e'
p147
sS'UGC05454'
p148
S'sa'
p149
sS'NGC3642'
p150
S'sa'
p151
sS'UGC08496'
p152
S'sa'
p153
sS'IC1746'
p154
g36
sS'NGC4316'
p155
S'sb'
p156
sS'MCG+08-18-029'
p157
S'sb'
p158
sS'NGC4559'
p159
S'sa'
p160
sS'MCG-04-26-019'
p161
S'sa'
p162
sS'NGC5987'
p163
S'sb'
p164
sS'SDSSJ130206.46+584142.9'
p165
S'sb'
p166
sS'NGC4319'
p167
S'sb'
p168
sS'NGC4246'
p169
S'sa'
p170
sS'2PIGGNGPGALB+3.26383+0.02704'
p171
g36
sS'MCG-06-03-014'
p172
S'sb'
p173
sS'NGC4486'
p174
S'e'
p175
sS'NGC4251'
p176
S'sb'
p177
sS'IC2439'
p178
S'sb'
p179
sS'IC5332'
p180
S'sa'
p181
sS'NGC3810'
p182
S'sa'
p183
sS'SDSSJ121903.71+063342.9'
p184
g18
sS'MCG+11-18-020'
p185
S's0'
p186
sS'NGC3489'
p187
S'sa'
p188
sS'UGC05357'
p189
S'sb'
p190
sS'UGC05427'
p191
S'sb'
p192
sS'NGC1574'
p193
S's0'
p194
sS'PGC049556'
p195
g8
sS'ESO347-G008'
p196
g18
sS'MRK0892'
p197
S'sa'
p198
sS'SDSSJ080842.74+461828.9'
p199
S'sa'
p200
sS'SDSSJ114743.02+370823.2'
p201
S'sb'
p202
sS'NGC3640'
p203
g8
sS'PGC046123'
p204
S'sa'
p205
sS'PGC039946'
p206
S'sa'
p207
sS'UGC08663'
p208
g147
sS'MCG+05-24-007'
p209
S'sa'
p210
sS'UGC04831'
p211
S'sa'
p212
sS'UGC08667'
p213
S'sb'
p214
sS'MCG+10-14-058'
p215
S'sb'
p216
sS'UGC06664'
p217
S'sb'
p218
sS'UGC10294'
p219
g18
sS'UGC07708'
p220
S'sb'
p221
sS'NGC0718'
p222
S'sa'
p223
sS'SDSSJ105035.24+660242.5'
p224
g18
sS'UGC05432'
p225
g8
sS'SDSSJ143001.87+032352.1'
p226
S'sa'
p227
sS'PGC055892'
p228
S'sb'
p229
sS'ESO157-G049'
p230
S'sb'
p231
sS'UGC00347'
p232
S'sb'
p233
sS'SDSSJ112230.40+031545.8'
p234
g36
sS'UGC07370'
p235
S'sb'
p236
s.